
minishell:     file format elf64-x86-64


Disassembly of section .init:

0000000000401000 <_init>:
  401000:	f3 0f 1e fa          	endbr64 
  401004:	48 83 ec 08          	sub    $0x8,%rsp
  401008:	48 8b 05 e9 ef 00 00 	mov    0xefe9(%rip),%rax        # 40fff8 <__gmon_start__@Base>
  40100f:	48 85 c0             	test   %rax,%rax
  401012:	74 02                	je     401016 <_init+0x16>
  401014:	ff d0                	call   *%rax
  401016:	48 83 c4 08          	add    $0x8,%rsp
  40101a:	c3                   	ret    

Disassembly of section .plt:

0000000000401020 <free@plt-0x10>:
  401020:	ff 35 e2 ef 00 00    	push   0xefe2(%rip)        # 410008 <_GLOBAL_OFFSET_TABLE_+0x8>
  401026:	ff 25 e4 ef 00 00    	jmp    *0xefe4(%rip)        # 410010 <_GLOBAL_OFFSET_TABLE_+0x10>
  40102c:	0f 1f 40 00          	nopl   0x0(%rax)

0000000000401030 <free@plt>:
  401030:	ff 25 e2 ef 00 00    	jmp    *0xefe2(%rip)        # 410018 <free@GLIBC_2.2.5>
  401036:	68 00 00 00 00       	push   $0x0
  40103b:	e9 e0 ff ff ff       	jmp    401020 <_init+0x20>

0000000000401040 <unlink@plt>:
  401040:	ff 25 da ef 00 00    	jmp    *0xefda(%rip)        # 410020 <unlink@GLIBC_2.2.5>
  401046:	68 01 00 00 00       	push   $0x1
  40104b:	e9 d0 ff ff ff       	jmp    401020 <_init+0x20>

0000000000401050 <add_history@plt>:
  401050:	ff 25 d2 ef 00 00    	jmp    *0xefd2(%rip)        # 410028 <add_history@Base>
  401056:	68 02 00 00 00       	push   $0x2
  40105b:	e9 c0 ff ff ff       	jmp    401020 <_init+0x20>

0000000000401060 <write@plt>:
  401060:	ff 25 ca ef 00 00    	jmp    *0xefca(%rip)        # 410030 <write@GLIBC_2.2.5>
  401066:	68 03 00 00 00       	push   $0x3
  40106b:	e9 b0 ff ff ff       	jmp    401020 <_init+0x20>

0000000000401070 <chdir@plt>:
  401070:	ff 25 c2 ef 00 00    	jmp    *0xefc2(%rip)        # 410038 <chdir@GLIBC_2.2.5>
  401076:	68 04 00 00 00       	push   $0x4
  40107b:	e9 a0 ff ff ff       	jmp    401020 <_init+0x20>

0000000000401080 <dup2@plt>:
  401080:	ff 25 ba ef 00 00    	jmp    *0xefba(%rip)        # 410040 <dup2@GLIBC_2.2.5>
  401086:	68 05 00 00 00       	push   $0x5
  40108b:	e9 90 ff ff ff       	jmp    401020 <_init+0x20>

0000000000401090 <printf@plt>:
  401090:	ff 25 b2 ef 00 00    	jmp    *0xefb2(%rip)        # 410048 <printf@GLIBC_2.2.5>
  401096:	68 06 00 00 00       	push   $0x6
  40109b:	e9 80 ff ff ff       	jmp    401020 <_init+0x20>

00000000004010a0 <dup@plt>:
  4010a0:	ff 25 aa ef 00 00    	jmp    *0xefaa(%rip)        # 410050 <dup@GLIBC_2.2.5>
  4010a6:	68 07 00 00 00       	push   $0x7
  4010ab:	e9 70 ff ff ff       	jmp    401020 <_init+0x20>

00000000004010b0 <ioctl@plt>:
  4010b0:	ff 25 a2 ef 00 00    	jmp    *0xefa2(%rip)        # 410058 <ioctl@GLIBC_2.2.5>
  4010b6:	68 08 00 00 00       	push   $0x8
  4010bb:	e9 60 ff ff ff       	jmp    401020 <_init+0x20>

00000000004010c0 <getcwd@plt>:
  4010c0:	ff 25 9a ef 00 00    	jmp    *0xef9a(%rip)        # 410060 <getcwd@GLIBC_2.2.5>
  4010c6:	68 09 00 00 00       	push   $0x9
  4010cb:	e9 50 ff ff ff       	jmp    401020 <_init+0x20>

00000000004010d0 <readline@plt>:
  4010d0:	ff 25 92 ef 00 00    	jmp    *0xef92(%rip)        # 410068 <readline@Base>
  4010d6:	68 0a 00 00 00       	push   $0xa
  4010db:	e9 40 ff ff ff       	jmp    401020 <_init+0x20>

00000000004010e0 <close@plt>:
  4010e0:	ff 25 8a ef 00 00    	jmp    *0xef8a(%rip)        # 410070 <close@GLIBC_2.2.5>
  4010e6:	68 0b 00 00 00       	push   $0xb
  4010eb:	e9 30 ff ff ff       	jmp    401020 <_init+0x20>

00000000004010f0 <pipe@plt>:
  4010f0:	ff 25 82 ef 00 00    	jmp    *0xef82(%rip)        # 410078 <pipe@GLIBC_2.2.5>
  4010f6:	68 0c 00 00 00       	push   $0xc
  4010fb:	e9 20 ff ff ff       	jmp    401020 <_init+0x20>

0000000000401100 <read@plt>:
  401100:	ff 25 7a ef 00 00    	jmp    *0xef7a(%rip)        # 410080 <read@GLIBC_2.2.5>
  401106:	68 0d 00 00 00       	push   $0xd
  40110b:	e9 10 ff ff ff       	jmp    401020 <_init+0x20>

0000000000401110 <execve@plt>:
  401110:	ff 25 72 ef 00 00    	jmp    *0xef72(%rip)        # 410088 <execve@GLIBC_2.2.5>
  401116:	68 0e 00 00 00       	push   $0xe
  40111b:	e9 00 ff ff ff       	jmp    401020 <_init+0x20>

0000000000401120 <signal@plt>:
  401120:	ff 25 6a ef 00 00    	jmp    *0xef6a(%rip)        # 410090 <signal@GLIBC_2.2.5>
  401126:	68 0f 00 00 00       	push   $0xf
  40112b:	e9 f0 fe ff ff       	jmp    401020 <_init+0x20>

0000000000401130 <malloc@plt>:
  401130:	ff 25 62 ef 00 00    	jmp    *0xef62(%rip)        # 410098 <malloc@GLIBC_2.2.5>
  401136:	68 10 00 00 00       	push   $0x10
  40113b:	e9 e0 fe ff ff       	jmp    401020 <_init+0x20>

0000000000401140 <rl_redisplay@plt>:
  401140:	ff 25 5a ef 00 00    	jmp    *0xef5a(%rip)        # 4100a0 <rl_redisplay@Base>
  401146:	68 11 00 00 00       	push   $0x11
  40114b:	e9 d0 fe ff ff       	jmp    401020 <_init+0x20>

0000000000401150 <rl_on_new_line@plt>:
  401150:	ff 25 52 ef 00 00    	jmp    *0xef52(%rip)        # 4100a8 <rl_on_new_line@Base>
  401156:	68 12 00 00 00       	push   $0x12
  40115b:	e9 c0 fe ff ff       	jmp    401020 <_init+0x20>

0000000000401160 <waitpid@plt>:
  401160:	ff 25 4a ef 00 00    	jmp    *0xef4a(%rip)        # 4100b0 <waitpid@GLIBC_2.2.5>
  401166:	68 13 00 00 00       	push   $0x13
  40116b:	e9 b0 fe ff ff       	jmp    401020 <_init+0x20>

0000000000401170 <open@plt>:
  401170:	ff 25 42 ef 00 00    	jmp    *0xef42(%rip)        # 4100b8 <open@GLIBC_2.2.5>
  401176:	68 14 00 00 00       	push   $0x14
  40117b:	e9 a0 fe ff ff       	jmp    401020 <_init+0x20>

0000000000401180 <access@plt>:
  401180:	ff 25 3a ef 00 00    	jmp    *0xef3a(%rip)        # 4100c0 <access@GLIBC_2.2.5>
  401186:	68 15 00 00 00       	push   $0x15
  40118b:	e9 90 fe ff ff       	jmp    401020 <_init+0x20>

0000000000401190 <perror@plt>:
  401190:	ff 25 32 ef 00 00    	jmp    *0xef32(%rip)        # 4100c8 <perror@GLIBC_2.2.5>
  401196:	68 16 00 00 00       	push   $0x16
  40119b:	e9 80 fe ff ff       	jmp    401020 <_init+0x20>

00000000004011a0 <rl_replace_line@plt>:
  4011a0:	ff 25 2a ef 00 00    	jmp    *0xef2a(%rip)        # 4100d0 <rl_replace_line@Base>
  4011a6:	68 17 00 00 00       	push   $0x17
  4011ab:	e9 70 fe ff ff       	jmp    401020 <_init+0x20>

00000000004011b0 <exit@plt>:
  4011b0:	ff 25 22 ef 00 00    	jmp    *0xef22(%rip)        # 4100d8 <exit@GLIBC_2.2.5>
  4011b6:	68 18 00 00 00       	push   $0x18
  4011bb:	e9 60 fe ff ff       	jmp    401020 <_init+0x20>

00000000004011c0 <fork@plt>:
  4011c0:	ff 25 1a ef 00 00    	jmp    *0xef1a(%rip)        # 4100e0 <fork@GLIBC_2.2.5>
  4011c6:	68 19 00 00 00       	push   $0x19
  4011cb:	e9 50 fe ff ff       	jmp    401020 <_init+0x20>

Disassembly of section .text:

00000000004011d0 <_start>:
  4011d0:	f3 0f 1e fa          	endbr64 
  4011d4:	31 ed                	xor    %ebp,%ebp
  4011d6:	49 89 d1             	mov    %rdx,%r9
  4011d9:	5e                   	pop    %rsi
  4011da:	48 89 e2             	mov    %rsp,%rdx
  4011dd:	48 83 e4 f0          	and    $0xfffffffffffffff0,%rsp
  4011e1:	50                   	push   %rax
  4011e2:	54                   	push   %rsp
  4011e3:	45 31 c0             	xor    %r8d,%r8d
  4011e6:	31 c9                	xor    %ecx,%ecx
  4011e8:	48 c7 c7 80 14 40 00 	mov    $0x401480,%rdi
  4011ef:	ff 15 fb ed 00 00    	call   *0xedfb(%rip)        # 40fff0 <__libc_start_main@GLIBC_2.34>
  4011f5:	f4                   	hlt    
  4011f6:	66 2e 0f 1f 84 00 00 	cs nopw 0x0(%rax,%rax,1)
  4011fd:	00 00 00 

0000000000401200 <_dl_relocate_static_pie>:
  401200:	f3 0f 1e fa          	endbr64 
  401204:	c3                   	ret    
  401205:	66 2e 0f 1f 84 00 00 	cs nopw 0x0(%rax,%rax,1)
  40120c:	00 00 00 
  40120f:	90                   	nop

0000000000401210 <deregister_tm_clones>:
  401210:	b8 f8 00 41 00       	mov    $0x4100f8,%eax
  401215:	48 3d f8 00 41 00    	cmp    $0x4100f8,%rax
  40121b:	74 13                	je     401230 <deregister_tm_clones+0x20>
  40121d:	b8 00 00 00 00       	mov    $0x0,%eax
  401222:	48 85 c0             	test   %rax,%rax
  401225:	74 09                	je     401230 <deregister_tm_clones+0x20>
  401227:	bf f8 00 41 00       	mov    $0x4100f8,%edi
  40122c:	ff e0                	jmp    *%rax
  40122e:	66 90                	xchg   %ax,%ax
  401230:	c3                   	ret    
  401231:	66 66 2e 0f 1f 84 00 	data16 cs nopw 0x0(%rax,%rax,1)
  401238:	00 00 00 00 
  40123c:	0f 1f 40 00          	nopl   0x0(%rax)

0000000000401240 <register_tm_clones>:
  401240:	be f8 00 41 00       	mov    $0x4100f8,%esi
  401245:	48 81 ee f8 00 41 00 	sub    $0x4100f8,%rsi
  40124c:	48 89 f0             	mov    %rsi,%rax
  40124f:	48 c1 ee 3f          	shr    $0x3f,%rsi
  401253:	48 c1 f8 03          	sar    $0x3,%rax
  401257:	48 01 c6             	add    %rax,%rsi
  40125a:	48 d1 fe             	sar    %rsi
  40125d:	74 11                	je     401270 <register_tm_clones+0x30>
  40125f:	b8 00 00 00 00       	mov    $0x0,%eax
  401264:	48 85 c0             	test   %rax,%rax
  401267:	74 07                	je     401270 <register_tm_clones+0x30>
  401269:	bf f8 00 41 00       	mov    $0x4100f8,%edi
  40126e:	ff e0                	jmp    *%rax
  401270:	c3                   	ret    
  401271:	66 66 2e 0f 1f 84 00 	data16 cs nopw 0x0(%rax,%rax,1)
  401278:	00 00 00 00 
  40127c:	0f 1f 40 00          	nopl   0x0(%rax)

0000000000401280 <__do_global_dtors_aux>:
  401280:	f3 0f 1e fa          	endbr64 
  401284:	80 3d 7d ee 00 00 00 	cmpb   $0x0,0xee7d(%rip)        # 410108 <completed.0>
  40128b:	75 13                	jne    4012a0 <__do_global_dtors_aux+0x20>
  40128d:	55                   	push   %rbp
  40128e:	48 89 e5             	mov    %rsp,%rbp
  401291:	e8 7a ff ff ff       	call   401210 <deregister_tm_clones>
  401296:	c6 05 6b ee 00 00 01 	movb   $0x1,0xee6b(%rip)        # 410108 <completed.0>
  40129d:	5d                   	pop    %rbp
  40129e:	c3                   	ret    
  40129f:	90                   	nop
  4012a0:	c3                   	ret    
  4012a1:	66 66 2e 0f 1f 84 00 	data16 cs nopw 0x0(%rax,%rax,1)
  4012a8:	00 00 00 00 
  4012ac:	0f 1f 40 00          	nopl   0x0(%rax)

00000000004012b0 <frame_dummy>:
  4012b0:	f3 0f 1e fa          	endbr64 
  4012b4:	eb 8a                	jmp    401240 <register_tm_clones>
  4012b6:	66 2e 0f 1f 84 00 00 	cs nopw 0x0(%rax,%rax,1)
  4012bd:	00 00 00 

00000000004012c0 <handle_eof_or_ctrl_d>:
  4012c0:	55                   	push   %rbp
  4012c1:	48 89 e5             	mov    %rsp,%rbp
  4012c4:	48 83 ec 10          	sub    $0x10,%rsp
  4012c8:	48 89 7d f8          	mov    %rdi,-0x8(%rbp)
  4012cc:	48 bf 04 c0 40 00 00 	movabs $0x40c004,%rdi
  4012d3:	00 00 00 
  4012d6:	b0 00                	mov    $0x0,%al
  4012d8:	e8 b3 fd ff ff       	call   401090 <printf@plt>
  4012dd:	48 8b 7d f8          	mov    -0x8(%rbp),%rdi
  4012e1:	48 8b 45 f8          	mov    -0x8(%rbp),%rax
  4012e5:	8b 70 6c             	mov    0x6c(%rax),%esi
  4012e8:	e8 c3 68 00 00       	call   407bb0 <exit_like_a_boss>
  4012ed:	48 83 c4 10          	add    $0x10,%rsp
  4012f1:	5d                   	pop    %rbp
  4012f2:	c3                   	ret    
  4012f3:	66 2e 0f 1f 84 00 00 	cs nopw 0x0(%rax,%rax,1)
  4012fa:	00 00 00 
  4012fd:	0f 1f 00             	nopl   (%rax)

0000000000401300 <is_only_whitespace>:
  401300:	55                   	push   %rbp
  401301:	48 89 e5             	mov    %rsp,%rbp
  401304:	48 83 ec 10          	sub    $0x10,%rsp
  401308:	48 89 7d f0          	mov    %rdi,-0x10(%rbp)
  40130c:	48 8b 45 f0          	mov    -0x10(%rbp),%rax
  401310:	0f be 38             	movsbl (%rax),%edi
  401313:	e8 38 90 00 00       	call   40a350 <ft_iswhitespace>
  401318:	83 f8 00             	cmp    $0x0,%eax
  40131b:	0f 84 11 00 00 00    	je     401332 <is_only_whitespace+0x32>
  401321:	48 8b 45 f0          	mov    -0x10(%rbp),%rax
  401325:	48 83 c0 01          	add    $0x1,%rax
  401329:	48 89 45 f0          	mov    %rax,-0x10(%rbp)
  40132d:	e9 da ff ff ff       	jmp    40130c <is_only_whitespace+0xc>
  401332:	48 8b 45 f0          	mov    -0x10(%rbp),%rax
  401336:	0f be 00             	movsbl (%rax),%eax
  401339:	83 f8 00             	cmp    $0x0,%eax
  40133c:	0f 84 10 00 00 00    	je     401352 <is_only_whitespace+0x52>
  401342:	48 8b 45 f0          	mov    -0x10(%rbp),%rax
  401346:	0f be 00             	movsbl (%rax),%eax
  401349:	83 f8 0a             	cmp    $0xa,%eax
  40134c:	0f 85 0c 00 00 00    	jne    40135e <is_only_whitespace+0x5e>
  401352:	c7 45 fc 01 00 00 00 	movl   $0x1,-0x4(%rbp)
  401359:	e9 07 00 00 00       	jmp    401365 <is_only_whitespace+0x65>
  40135e:	c7 45 fc 00 00 00 00 	movl   $0x0,-0x4(%rbp)
  401365:	8b 45 fc             	mov    -0x4(%rbp),%eax
  401368:	48 83 c4 10          	add    $0x10,%rsp
  40136c:	5d                   	pop    %rbp
  40136d:	c3                   	ret    
  40136e:	66 90                	xchg   %ax,%ax

0000000000401370 <read_input>:
  401370:	55                   	push   %rbp
  401371:	48 89 e5             	mov    %rsp,%rbp
  401374:	48 83 ec 10          	sub    $0x10,%rsp
  401378:	48 89 7d f8          	mov    %rdi,-0x8(%rbp)
  40137c:	48 c7 45 f0 00 00 00 	movq   $0x0,-0x10(%rbp)
  401383:	00 
  401384:	48 8b 7d f8          	mov    -0x8(%rbp),%rdi
  401388:	31 f6                	xor    %esi,%esi
  40138a:	e8 91 80 00 00       	call   409420 <set_mode>
  40138f:	48 bf 0a c0 40 00 00 	movabs $0x40c00a,%rdi
  401396:	00 00 00 
  401399:	e8 32 fd ff ff       	call   4010d0 <readline@plt>
  40139e:	48 89 45 f0          	mov    %rax,-0x10(%rbp)
  4013a2:	8b 04 25 0c 01 41 00 	mov    0x41010c,%eax
  4013a9:	83 f8 02             	cmp    $0x2,%eax
  4013ac:	0f 85 1b 00 00 00    	jne    4013cd <read_input+0x5d>
  4013b2:	48 8b 45 f8          	mov    -0x8(%rbp),%rax
  4013b6:	c7 40 6c 82 00 00 00 	movl   $0x82,0x6c(%rax)
  4013bd:	c7 04 25 0c 01 41 00 	movl   $0x0,0x41010c
  4013c4:	00 00 00 00 
  4013c8:	e9 aa 00 00 00       	jmp    401477 <read_input+0x107>
  4013cd:	48 8b 7d f8          	mov    -0x8(%rbp),%rdi
  4013d1:	48 8b 75 f0          	mov    -0x10(%rbp),%rsi
  4013d5:	e8 b6 84 00 00       	call   409890 <add_string_to_thrash_list>
  4013da:	48 8b 7d f8          	mov    -0x8(%rbp),%rdi
  4013de:	be 01 00 00 00       	mov    $0x1,%esi
  4013e3:	e8 38 80 00 00       	call   409420 <set_mode>
  4013e8:	48 83 7d f0 00       	cmpq   $0x0,-0x10(%rbp)
  4013ed:	0f 85 09 00 00 00    	jne    4013fc <read_input+0x8c>
  4013f3:	48 8b 7d f8          	mov    -0x8(%rbp),%rdi
  4013f7:	e8 c4 fe ff ff       	call   4012c0 <handle_eof_or_ctrl_d>
  4013fc:	48 8b 7d f0          	mov    -0x10(%rbp),%rdi
  401400:	e8 4b fc ff ff       	call   401050 <add_history@plt>
  401405:	48 8b 7d f0          	mov    -0x10(%rbp),%rdi
  401409:	e8 f2 fe ff ff       	call   401300 <is_only_whitespace>
  40140e:	83 f8 00             	cmp    $0x0,%eax
  401411:	0f 85 60 00 00 00    	jne    401477 <read_input+0x107>
  401417:	48 8b 7d f0          	mov    -0x10(%rbp),%rdi
  40141b:	e8 20 98 00 00       	call   40ac40 <ft_strdup>
  401420:	48 89 c1             	mov    %rax,%rcx
  401423:	48 8b 45 f8          	mov    -0x8(%rbp),%rax
  401427:	48 89 48 20          	mov    %rcx,0x20(%rax)
  40142b:	48 8b 45 f8          	mov    -0x8(%rbp),%rax
  40142f:	48 83 78 20 00       	cmpq   $0x0,0x20(%rax)
  401434:	0f 85 1c 00 00 00    	jne    401456 <read_input+0xe6>
  40143a:	48 8b 7d f8          	mov    -0x8(%rbp),%rdi
  40143e:	48 be 16 c0 40 00 00 	movabs $0x40c016,%rsi
  401445:	00 00 00 
  401448:	31 c0                	xor    %eax,%eax
  40144a:	89 c2                	mov    %eax,%edx
  40144c:	b9 ff 00 00 00       	mov    $0xff,%ecx
  401451:	e8 aa 66 00 00       	call   407b00 <snuff_it>
  401456:	48 8b 45 f8          	mov    -0x8(%rbp),%rax
  40145a:	48 8b 78 20          	mov    0x20(%rax),%rdi
  40145e:	e8 4d 8f 00 00       	call   40a3b0 <ft_strlen>
  401463:	89 c1                	mov    %eax,%ecx
  401465:	48 8b 45 f8          	mov    -0x8(%rbp),%rax
  401469:	89 48 28             	mov    %ecx,0x28(%rax)
  40146c:	48 8b 45 f8          	mov    -0x8(%rbp),%rax
  401470:	c7 40 18 00 00 00 00 	movl   $0x0,0x18(%rax)
  401477:	48 83 c4 10          	add    $0x10,%rsp
  40147b:	5d                   	pop    %rbp
  40147c:	c3                   	ret    
  40147d:	0f 1f 00             	nopl   (%rax)

0000000000401480 <main>:
  401480:	55                   	push   %rbp
  401481:	48 89 e5             	mov    %rsp,%rbp
  401484:	48 81 ec b0 00 00 00 	sub    $0xb0,%rsp
  40148b:	c7 45 fc 00 00 00 00 	movl   $0x0,-0x4(%rbp)
  401492:	48 8d bd 50 ff ff ff 	lea    -0xb0(%rbp),%rdi
  401499:	e8 d2 05 00 00       	call   401a70 <init_data>
  40149e:	48 8b 3c 25 00 01 41 	mov    0x410100,%rdi
  4014a5:	00 
  4014a6:	e8 55 98 00 00       	call   40ad00 <ft_strdup_array>
  4014ab:	48 89 45 d8          	mov    %rax,-0x28(%rbp)
  4014af:	48 83 7d d8 00       	cmpq   $0x0,-0x28(%rbp)
  4014b4:	0f 85 1f 00 00 00    	jne    4014d9 <main+0x59>
  4014ba:	48 8d bd 50 ff ff ff 	lea    -0xb0(%rbp),%rdi
  4014c1:	48 be 39 c0 40 00 00 	movabs $0x40c039,%rsi
  4014c8:	00 00 00 
  4014cb:	31 c0                	xor    %eax,%eax
  4014cd:	89 c2                	mov    %eax,%edx
  4014cf:	b9 ff 00 00 00       	mov    $0xff,%ecx
  4014d4:	e8 27 66 00 00       	call   407b00 <snuff_it>
  4014d9:	48 8d bd 50 ff ff ff 	lea    -0xb0(%rbp),%rdi
  4014e0:	e8 db 7c 00 00       	call   4091c0 <set_signal_controls>
  4014e5:	48 8d bd 50 ff ff ff 	lea    -0xb0(%rbp),%rdi
  4014ec:	e8 8f 06 00 00       	call   401b80 <get_all_cmd_paths>
  4014f1:	48 8d bd 50 ff ff ff 	lea    -0xb0(%rbp),%rdi
  4014f8:	e8 73 fe ff ff       	call   401370 <read_input>
  4014fd:	48 83 bd 70 ff ff ff 	cmpq   $0x0,-0x90(%rbp)
  401504:	00 
  401505:	0f 84 85 00 00 00    	je     401590 <main+0x110>
  40150b:	48 8d bd 50 ff ff ff 	lea    -0xb0(%rbp),%rdi
  401512:	e8 c9 26 00 00       	call   403be0 <check_quote_syntax>
  401517:	83 f8 00             	cmp    $0x0,%eax
  40151a:	0f 85 70 00 00 00    	jne    401590 <main+0x110>
  401520:	48 8d bd 50 ff ff ff 	lea    -0xb0(%rbp),%rdi
  401527:	e8 a4 1d 00 00       	call   4032d0 <make_token_list>
  40152c:	48 8d bd 50 ff ff ff 	lea    -0xb0(%rbp),%rdi
  401533:	e8 18 23 00 00       	call   403850 <merge_unseparated>
  401538:	48 8d bd 50 ff ff ff 	lea    -0xb0(%rbp),%rdi
  40153f:	e8 0c 03 00 00       	call   401850 <count_pipes>
  401544:	48 8d bd 50 ff ff ff 	lea    -0xb0(%rbp),%rdi
  40154b:	e8 a0 27 00 00       	call   403cf0 <check_token_syntax>
  401550:	83 f8 00             	cmp    $0x0,%eax
  401553:	0f 85 32 00 00 00    	jne    40158b <main+0x10b>
  401559:	48 8d bd 50 ff ff ff 	lea    -0xb0(%rbp),%rdi
  401560:	e8 3b 2f 00 00       	call   4044a0 <make_executives>
  401565:	48 8d bd 50 ff ff ff 	lea    -0xb0(%rbp),%rdi
  40156c:	e8 df 29 00 00       	call   403f50 <count_executives>
  401571:	83 f8 00             	cmp    $0x0,%eax
  401574:	0f 8e 0c 00 00 00    	jle    401586 <main+0x106>
  40157a:	48 8d bd 50 ff ff ff 	lea    -0xb0(%rbp),%rdi
  401581:	e8 9a 4f 00 00       	call   406520 <execute_execs>
  401586:	e9 00 00 00 00       	jmp    40158b <main+0x10b>
  40158b:	e9 00 00 00 00       	jmp    401590 <main+0x110>
  401590:	48 8d bd 50 ff ff ff 	lea    -0xb0(%rbp),%rdi
  401597:	e8 14 64 00 00       	call   4079b0 <clean_up_data>
  40159c:	e9 44 ff ff ff       	jmp    4014e5 <main+0x65>
  4015a1:	66 2e 0f 1f 84 00 00 	cs nopw 0x0(%rax,%rax,1)
  4015a8:	00 00 00 
  4015ab:	0f 1f 44 00 00       	nopl   0x0(%rax,%rax,1)

00000000004015b0 <boo>:
  4015b0:	55                   	push   %rbp
  4015b1:	48 89 e5             	mov    %rsp,%rbp
  4015b4:	48 83 ec 30          	sub    $0x30,%rsp
  4015b8:	48 89 7d f8          	mov    %rdi,-0x8(%rbp)
  4015bc:	48 89 75 f0          	mov    %rsi,-0x10(%rbp)
  4015c0:	48 89 55 e8          	mov    %rdx,-0x18(%rbp)
  4015c4:	89 4d e4             	mov    %ecx,-0x1c(%rbp)
  4015c7:	48 83 7d e8 00       	cmpq   $0x0,-0x18(%rbp)
  4015cc:	0f 84 6d 00 00 00    	je     40163f <boo+0x8f>
  4015d2:	bf 02 00 00 00       	mov    $0x2,%edi
  4015d7:	48 be 58 c0 40 00 00 	movabs $0x40c058,%rsi
  4015de:	00 00 00 
  4015e1:	ba 01 00 00 00       	mov    $0x1,%edx
  4015e6:	e8 75 fa ff ff       	call   401060 <write@plt>
  4015eb:	48 8b 45 e8          	mov    -0x18(%rbp),%rax
  4015ef:	48 89 45 d8          	mov    %rax,-0x28(%rbp)
  4015f3:	48 8b 7d e8          	mov    -0x18(%rbp),%rdi
  4015f7:	e8 b4 8d 00 00       	call   40a3b0 <ft_strlen>
  4015fc:	48 8b 75 d8          	mov    -0x28(%rbp),%rsi
  401600:	48 63 d0             	movslq %eax,%rdx
  401603:	bf 02 00 00 00       	mov    $0x2,%edi
  401608:	e8 53 fa ff ff       	call   401060 <write@plt>
  40160d:	bf 02 00 00 00       	mov    $0x2,%edi
  401612:	48 be 58 c0 40 00 00 	movabs $0x40c058,%rsi
  401619:	00 00 00 
  40161c:	ba 01 00 00 00       	mov    $0x1,%edx
  401621:	e8 3a fa ff ff       	call   401060 <write@plt>
  401626:	bf 02 00 00 00       	mov    $0x2,%edi
  40162b:	48 be 5a c0 40 00 00 	movabs $0x40c05a,%rsi
  401632:	00 00 00 
  401635:	ba 02 00 00 00       	mov    $0x2,%edx
  40163a:	e8 21 fa ff ff       	call   401060 <write@plt>
  40163f:	48 8b 45 f0          	mov    -0x10(%rbp),%rax
  401643:	48 89 45 d0          	mov    %rax,-0x30(%rbp)
  401647:	48 8b 7d f0          	mov    -0x10(%rbp),%rdi
  40164b:	e8 60 8d 00 00       	call   40a3b0 <ft_strlen>
  401650:	48 8b 75 d0          	mov    -0x30(%rbp),%rsi
  401654:	48 63 d0             	movslq %eax,%rdx
  401657:	bf 02 00 00 00       	mov    $0x2,%edi
  40165c:	e8 ff f9 ff ff       	call   401060 <write@plt>
  401661:	8b 4d e4             	mov    -0x1c(%rbp),%ecx
  401664:	48 8b 45 f8          	mov    -0x8(%rbp),%rax
  401668:	89 48 6c             	mov    %ecx,0x6c(%rax)
  40166b:	48 83 c4 30          	add    $0x30,%rsp
  40166f:	5d                   	pop    %rbp
  401670:	c3                   	ret    
  401671:	66 2e 0f 1f 84 00 00 	cs nopw 0x0(%rax,%rax,1)
  401678:	00 00 00 
  40167b:	0f 1f 44 00 00       	nopl   0x0(%rax,%rax,1)

0000000000401680 <ft_getenv>:
  401680:	55                   	push   %rbp
  401681:	48 89 e5             	mov    %rsp,%rbp
  401684:	48 83 ec 30          	sub    $0x30,%rsp
  401688:	48 89 7d f0          	mov    %rdi,-0x10(%rbp)
  40168c:	48 89 75 e8          	mov    %rsi,-0x18(%rbp)
  401690:	48 83 7d f0 00       	cmpq   $0x0,-0x10(%rbp)
  401695:	0f 84 0b 00 00 00    	je     4016a6 <ft_getenv+0x26>
  40169b:	48 83 7d e8 00       	cmpq   $0x0,-0x18(%rbp)
  4016a0:	0f 85 0d 00 00 00    	jne    4016b3 <ft_getenv+0x33>
  4016a6:	48 c7 45 f8 00 00 00 	movq   $0x0,-0x8(%rbp)
  4016ad:	00 
  4016ae:	e9 b8 00 00 00       	jmp    40176b <ft_getenv+0xeb>
  4016b3:	48 8b 7d e8          	mov    -0x18(%rbp),%rdi
  4016b7:	e8 f4 8c 00 00       	call   40a3b0 <ft_strlen>
  4016bc:	48 98                	cltq   
  4016be:	48 89 45 d8          	mov    %rax,-0x28(%rbp)
  4016c2:	c7 45 e4 ff ff ff ff 	movl   $0xffffffff,-0x1c(%rbp)
  4016c9:	48 8b 45 f0          	mov    -0x10(%rbp),%rax
  4016cd:	48 8b 80 88 00 00 00 	mov    0x88(%rax),%rax
  4016d4:	8b 4d e4             	mov    -0x1c(%rbp),%ecx
  4016d7:	83 c1 01             	add    $0x1,%ecx
  4016da:	89 4d e4             	mov    %ecx,-0x1c(%rbp)
  4016dd:	48 63 c9             	movslq %ecx,%rcx
  4016e0:	48 83 3c c8 00       	cmpq   $0x0,(%rax,%rcx,8)
  4016e5:	0f 84 78 00 00 00    	je     401763 <ft_getenv+0xe3>
  4016eb:	48 8b 45 f0          	mov    -0x10(%rbp),%rax
  4016ef:	48 8b 80 88 00 00 00 	mov    0x88(%rax),%rax
  4016f6:	48 63 4d e4          	movslq -0x1c(%rbp),%rcx
  4016fa:	48 8b 3c c8          	mov    (%rax,%rcx,8),%rdi
  4016fe:	48 8b 75 e8          	mov    -0x18(%rbp),%rsi
  401702:	48 8b 45 d8          	mov    -0x28(%rbp),%rax
  401706:	89 c2                	mov    %eax,%edx
  401708:	e8 f3 90 00 00       	call   40a800 <ft_strncmp>
  40170d:	83 f8 00             	cmp    $0x0,%eax
  401710:	0f 85 48 00 00 00    	jne    40175e <ft_getenv+0xde>
  401716:	48 8b 45 f0          	mov    -0x10(%rbp),%rax
  40171a:	48 8b 80 88 00 00 00 	mov    0x88(%rax),%rax
  401721:	48 63 4d e4          	movslq -0x1c(%rbp),%rcx
  401725:	48 8b 04 c8          	mov    (%rax,%rcx,8),%rax
  401729:	48 8b 4d d8          	mov    -0x28(%rbp),%rcx
  40172d:	0f be 04 08          	movsbl (%rax,%rcx,1),%eax
  401731:	83 f8 3d             	cmp    $0x3d,%eax
  401734:	0f 85 24 00 00 00    	jne    40175e <ft_getenv+0xde>
  40173a:	48 8b 45 f0          	mov    -0x10(%rbp),%rax
  40173e:	48 8b 80 88 00 00 00 	mov    0x88(%rax),%rax
  401745:	48 63 4d e4          	movslq -0x1c(%rbp),%rcx
  401749:	48 8b 04 c8          	mov    (%rax,%rcx,8),%rax
  40174d:	48 03 45 d8          	add    -0x28(%rbp),%rax
  401751:	48 83 c0 01          	add    $0x1,%rax
  401755:	48 89 45 f8          	mov    %rax,-0x8(%rbp)
  401759:	e9 0d 00 00 00       	jmp    40176b <ft_getenv+0xeb>
  40175e:	e9 66 ff ff ff       	jmp    4016c9 <ft_getenv+0x49>
  401763:	48 c7 45 f8 00 00 00 	movq   $0x0,-0x8(%rbp)
  40176a:	00 
  40176b:	48 8b 45 f8          	mov    -0x8(%rbp),%rax
  40176f:	48 83 c4 30          	add    $0x30,%rsp
  401773:	5d                   	pop    %rbp
  401774:	c3                   	ret    
  401775:	66 2e 0f 1f 84 00 00 	cs nopw 0x0(%rax,%rax,1)
  40177c:	00 00 00 
  40177f:	90                   	nop

0000000000401780 <has_unquoted_equals>:
  401780:	55                   	push   %rbp
  401781:	48 89 e5             	mov    %rsp,%rbp
  401784:	48 89 7d f8          	mov    %rdi,-0x8(%rbp)
  401788:	c7 45 f4 00 00 00 00 	movl   $0x0,-0xc(%rbp)
  40178f:	c7 45 f0 00 00 00 00 	movl   $0x0,-0x10(%rbp)
  401796:	c7 45 ec 00 00 00 00 	movl   $0x0,-0x14(%rbp)
  40179d:	48 8b 45 f8          	mov    -0x8(%rbp),%rax
  4017a1:	80 38 00             	cmpb   $0x0,(%rax)
  4017a4:	0f 84 92 00 00 00    	je     40183c <has_unquoted_equals+0xbc>
  4017aa:	48 8b 45 f8          	mov    -0x8(%rbp),%rax
  4017ae:	0f be 00             	movsbl (%rax),%eax
  4017b1:	83 f8 27             	cmp    $0x27,%eax
  4017b4:	0f 85 1b 00 00 00    	jne    4017d5 <has_unquoted_equals+0x55>
  4017ba:	83 7d f0 00          	cmpl   $0x0,-0x10(%rbp)
  4017be:	0f 85 11 00 00 00    	jne    4017d5 <has_unquoted_equals+0x55>
  4017c4:	83 7d f4 00          	cmpl   $0x0,-0xc(%rbp)
  4017c8:	0f 95 c0             	setne  %al
  4017cb:	34 ff                	xor    $0xff,%al
  4017cd:	24 01                	and    $0x1,%al
  4017cf:	0f b6 c0             	movzbl %al,%eax
  4017d2:	89 45 f4             	mov    %eax,-0xc(%rbp)
  4017d5:	48 8b 45 f8          	mov    -0x8(%rbp),%rax
  4017d9:	0f be 00             	movsbl (%rax),%eax
  4017dc:	83 f8 22             	cmp    $0x22,%eax
  4017df:	0f 85 1b 00 00 00    	jne    401800 <has_unquoted_equals+0x80>
  4017e5:	83 7d f4 00          	cmpl   $0x0,-0xc(%rbp)
  4017e9:	0f 85 11 00 00 00    	jne    401800 <has_unquoted_equals+0x80>
  4017ef:	83 7d f0 00          	cmpl   $0x0,-0x10(%rbp)
  4017f3:	0f 95 c0             	setne  %al
  4017f6:	34 ff                	xor    $0xff,%al
  4017f8:	24 01                	and    $0x1,%al
  4017fa:	0f b6 c0             	movzbl %al,%eax
  4017fd:	89 45 f0             	mov    %eax,-0x10(%rbp)
  401800:	48 8b 45 f8          	mov    -0x8(%rbp),%rax
  401804:	0f be 00             	movsbl (%rax),%eax
  401807:	83 f8 3d             	cmp    $0x3d,%eax
  40180a:	0f 85 1b 00 00 00    	jne    40182b <has_unquoted_equals+0xab>
  401810:	83 7d f4 00          	cmpl   $0x0,-0xc(%rbp)
  401814:	0f 85 11 00 00 00    	jne    40182b <has_unquoted_equals+0xab>
  40181a:	83 7d f0 00          	cmpl   $0x0,-0x10(%rbp)
  40181e:	0f 85 07 00 00 00    	jne    40182b <has_unquoted_equals+0xab>
  401824:	c7 45 ec 01 00 00 00 	movl   $0x1,-0x14(%rbp)
  40182b:	48 8b 45 f8          	mov    -0x8(%rbp),%rax
  40182f:	48 83 c0 01          	add    $0x1,%rax
  401833:	48 89 45 f8          	mov    %rax,-0x8(%rbp)
  401837:	e9 61 ff ff ff       	jmp    40179d <has_unquoted_equals+0x1d>
  40183c:	8b 45 ec             	mov    -0x14(%rbp),%eax
  40183f:	5d                   	pop    %rbp
  401840:	c3                   	ret    
  401841:	66 2e 0f 1f 84 00 00 	cs nopw 0x0(%rax,%rax,1)
  401848:	00 00 00 
  40184b:	0f 1f 44 00 00       	nopl   0x0(%rax,%rax,1)

0000000000401850 <count_pipes>:
  401850:	55                   	push   %rbp
  401851:	48 89 e5             	mov    %rsp,%rbp
  401854:	48 89 7d f8          	mov    %rdi,-0x8(%rbp)
  401858:	c7 45 f4 00 00 00 00 	movl   $0x0,-0xc(%rbp)
  40185f:	48 8b 45 f8          	mov    -0x8(%rbp),%rax
  401863:	48 8b 40 08          	mov    0x8(%rax),%rax
  401867:	48 89 45 e8          	mov    %rax,-0x18(%rbp)
  40186b:	48 83 7d e8 00       	cmpq   $0x0,-0x18(%rbp)
  401870:	0f 84 27 00 00 00    	je     40189d <count_pipes+0x4d>
  401876:	48 8b 45 e8          	mov    -0x18(%rbp),%rax
  40187a:	83 38 05             	cmpl   $0x5,(%rax)
  40187d:	0f 85 09 00 00 00    	jne    40188c <count_pipes+0x3c>
  401883:	8b 45 f4             	mov    -0xc(%rbp),%eax
  401886:	83 c0 01             	add    $0x1,%eax
  401889:	89 45 f4             	mov    %eax,-0xc(%rbp)
  40188c:	48 8b 45 e8          	mov    -0x18(%rbp),%rax
  401890:	48 8b 40 28          	mov    0x28(%rax),%rax
  401894:	48 89 45 e8          	mov    %rax,-0x18(%rbp)
  401898:	e9 ce ff ff ff       	jmp    40186b <count_pipes+0x1b>
  40189d:	8b 4d f4             	mov    -0xc(%rbp),%ecx
  4018a0:	48 8b 45 f8          	mov    -0x8(%rbp),%rax
  4018a4:	89 88 94 00 00 00    	mov    %ecx,0x94(%rax)
  4018aa:	5d                   	pop    %rbp
  4018ab:	c3                   	ret    
  4018ac:	0f 1f 40 00          	nopl   0x0(%rax)

00000000004018b0 <wait_for_children>:
  4018b0:	55                   	push   %rbp
  4018b1:	48 89 e5             	mov    %rsp,%rbp
  4018b4:	48 83 ec 20          	sub    $0x20,%rsp
  4018b8:	48 89 7d f8          	mov    %rdi,-0x8(%rbp)
  4018bc:	48 8b 45 f8          	mov    -0x8(%rbp),%rax
  4018c0:	48 8b 40 70          	mov    0x70(%rax),%rax
  4018c4:	48 89 45 f0          	mov    %rax,-0x10(%rbp)
  4018c8:	c7 45 ec 00 00 00 00 	movl   $0x0,-0x14(%rbp)
  4018cf:	48 83 7d f0 00       	cmpq   $0x0,-0x10(%rbp)
  4018d4:	0f 84 be 00 00 00    	je     401998 <wait_for_children+0xe8>
  4018da:	48 8b 45 f0          	mov    -0x10(%rbp),%rax
  4018de:	8b 38                	mov    (%rax),%edi
  4018e0:	48 8b 75 f0          	mov    -0x10(%rbp),%rsi
  4018e4:	48 83 c6 04          	add    $0x4,%rsi
  4018e8:	ba 02 00 00 00       	mov    $0x2,%edx
  4018ed:	e8 6e f8 ff ff       	call   401160 <waitpid@plt>
  4018f2:	89 45 e8             	mov    %eax,-0x18(%rbp)
  4018f5:	83 7d e8 00          	cmpl   $0x0,-0x18(%rbp)
  4018f9:	0f 8d 1c 00 00 00    	jge    40191b <wait_for_children+0x6b>
  4018ff:	48 8b 7d f8          	mov    -0x8(%rbp),%rdi
  401903:	48 be 5d c0 40 00 00 	movabs $0x40c05d,%rsi
  40190a:	00 00 00 
  40190d:	31 c0                	xor    %eax,%eax
  40190f:	89 c2                	mov    %eax,%edx
  401911:	b9 ff 00 00 00       	mov    $0xff,%ecx
  401916:	e8 e5 61 00 00       	call   407b00 <snuff_it>
  40191b:	48 8b 45 f0          	mov    -0x10(%rbp),%rax
  40191f:	8b 40 04             	mov    0x4(%rax),%eax
  401922:	83 e0 7f             	and    $0x7f,%eax
  401925:	83 c0 01             	add    $0x1,%eax
  401928:	0f be c0             	movsbl %al,%eax
  40192b:	c1 f8 01             	sar    $0x1,%eax
  40192e:	83 f8 00             	cmp    $0x0,%eax
  401931:	0f 8e 17 00 00 00    	jle    40194e <wait_for_children+0x9e>
  401937:	48 8b 45 f0          	mov    -0x10(%rbp),%rax
  40193b:	8b 40 04             	mov    0x4(%rax),%eax
  40193e:	83 e0 7f             	and    $0x7f,%eax
  401941:	05 80 00 00 00       	add    $0x80,%eax
  401946:	89 45 ec             	mov    %eax,-0x14(%rbp)
  401949:	e9 39 00 00 00       	jmp    401987 <wait_for_children+0xd7>
  40194e:	48 8b 45 f0          	mov    -0x10(%rbp),%rax
  401952:	8b 40 04             	mov    0x4(%rax),%eax
  401955:	83 e0 7f             	and    $0x7f,%eax
  401958:	83 f8 00             	cmp    $0x0,%eax
  40195b:	0f 85 17 00 00 00    	jne    401978 <wait_for_children+0xc8>
  401961:	48 8b 45 f0          	mov    -0x10(%rbp),%rax
  401965:	8b 40 04             	mov    0x4(%rax),%eax
  401968:	25 00 ff 00 00       	and    $0xff00,%eax
  40196d:	c1 f8 08             	sar    $0x8,%eax
  401970:	89 45 ec             	mov    %eax,-0x14(%rbp)
  401973:	e9 0a 00 00 00       	jmp    401982 <wait_for_children+0xd2>
  401978:	48 8b 45 f0          	mov    -0x10(%rbp),%rax
  40197c:	8b 40 04             	mov    0x4(%rax),%eax
  40197f:	89 45 ec             	mov    %eax,-0x14(%rbp)
  401982:	e9 00 00 00 00       	jmp    401987 <wait_for_children+0xd7>
  401987:	48 8b 45 f0          	mov    -0x10(%rbp),%rax
  40198b:	48 8b 40 10          	mov    0x10(%rax),%rax
  40198f:	48 89 45 f0          	mov    %rax,-0x10(%rbp)
  401993:	e9 37 ff ff ff       	jmp    4018cf <wait_for_children+0x1f>
  401998:	8b 4d ec             	mov    -0x14(%rbp),%ecx
  40199b:	48 8b 45 f8          	mov    -0x8(%rbp),%rax
  40199f:	89 48 6c             	mov    %ecx,0x6c(%rax)
  4019a2:	48 83 c4 20          	add    $0x20,%rsp
  4019a6:	5d                   	pop    %rbp
  4019a7:	c3                   	ret    
  4019a8:	0f 1f 84 00 00 00 00 	nopl   0x0(%rax,%rax,1)
  4019af:	00 

00000000004019b0 <init_hashtable>:
  4019b0:	55                   	push   %rbp
  4019b1:	48 89 e5             	mov    %rsp,%rbp
  4019b4:	48 83 ec 10          	sub    $0x10,%rsp
  4019b8:	48 89 7d f8          	mov    %rdi,-0x8(%rbp)
  4019bc:	bf 08 00 00 00       	mov    $0x8,%edi
  4019c1:	be e8 03 00 00       	mov    $0x3e8,%esi
  4019c6:	e8 c5 91 00 00       	call   40ab90 <ft_calloc>
  4019cb:	48 89 c1             	mov    %rax,%rcx
  4019ce:	48 8b 45 f8          	mov    -0x8(%rbp),%rax
  4019d2:	48 89 88 a0 00 00 00 	mov    %rcx,0xa0(%rax)
  4019d9:	48 8b 45 f8          	mov    -0x8(%rbp),%rax
  4019dd:	48 83 b8 a0 00 00 00 	cmpq   $0x0,0xa0(%rax)
  4019e4:	00 
  4019e5:	0f 85 1e 00 00 00    	jne    401a09 <init_hashtable+0x59>
  4019eb:	48 bf 74 c0 40 00 00 	movabs $0x40c074,%rdi
  4019f2:	00 00 00 
  4019f5:	be 02 00 00 00       	mov    $0x2,%esi
  4019fa:	e8 11 9e 00 00       	call   40b810 <ft_putstr_fd>
  4019ff:	bf ff 00 00 00       	mov    $0xff,%edi
  401a04:	e8 a7 f7 ff ff       	call   4011b0 <exit@plt>
  401a09:	48 8b 45 f8          	mov    -0x8(%rbp),%rax
  401a0d:	48 c7 40 70 00 00 00 	movq   $0x0,0x70(%rax)
  401a14:	00 
  401a15:	48 8b 45 f8          	mov    -0x8(%rbp),%rax
  401a19:	48 c7 40 78 00 00 00 	movq   $0x0,0x78(%rax)
  401a20:	00 
  401a21:	48 8b 45 f8          	mov    -0x8(%rbp),%rax
  401a25:	48 c7 80 80 00 00 00 	movq   $0x0,0x80(%rax)
  401a2c:	00 00 00 00 
  401a30:	48 8b 45 f8          	mov    -0x8(%rbp),%rax
  401a34:	48 c7 80 88 00 00 00 	movq   $0x0,0x88(%rax)
  401a3b:	00 00 00 00 
  401a3f:	48 8b 45 f8          	mov    -0x8(%rbp),%rax
  401a43:	c7 80 90 00 00 00 00 	movl   $0x0,0x90(%rax)
  401a4a:	00 00 00 
  401a4d:	48 8b 45 f8          	mov    -0x8(%rbp),%rax
  401a51:	c7 80 94 00 00 00 ff 	movl   $0xffffffff,0x94(%rax)
  401a58:	ff ff ff 
  401a5b:	48 8b 45 f8          	mov    -0x8(%rbp),%rax
  401a5f:	48 c7 80 98 00 00 00 	movq   $0x0,0x98(%rax)
  401a66:	00 00 00 00 
  401a6a:	48 83 c4 10          	add    $0x10,%rsp
  401a6e:	5d                   	pop    %rbp
  401a6f:	c3                   	ret    

0000000000401a70 <init_data>:
  401a70:	55                   	push   %rbp
  401a71:	48 89 e5             	mov    %rsp,%rbp
  401a74:	48 83 ec 10          	sub    $0x10,%rsp
  401a78:	48 89 7d f8          	mov    %rdi,-0x8(%rbp)
  401a7c:	48 8b 45 f8          	mov    -0x8(%rbp),%rax
  401a80:	48 c7 00 00 00 00 00 	movq   $0x0,(%rax)
  401a87:	48 8b 45 f8          	mov    -0x8(%rbp),%rax
  401a8b:	48 c7 40 08 00 00 00 	movq   $0x0,0x8(%rax)
  401a92:	00 
  401a93:	48 8b 45 f8          	mov    -0x8(%rbp),%rax
  401a97:	48 c7 40 10 00 00 00 	movq   $0x0,0x10(%rax)
  401a9e:	00 
  401a9f:	48 8b 45 f8          	mov    -0x8(%rbp),%rax
  401aa3:	c7 40 18 00 00 00 00 	movl   $0x0,0x18(%rax)
  401aaa:	48 8b 45 f8          	mov    -0x8(%rbp),%rax
  401aae:	48 c7 40 20 00 00 00 	movq   $0x0,0x20(%rax)
  401ab5:	00 
  401ab6:	48 8b 45 f8          	mov    -0x8(%rbp),%rax
  401aba:	c7 40 28 ff ff ff ff 	movl   $0xffffffff,0x28(%rax)
  401ac1:	48 8b 45 f8          	mov    -0x8(%rbp),%rax
  401ac5:	c7 40 2c ff ff ff ff 	movl   $0xffffffff,0x2c(%rax)
  401acc:	48 8b 45 f8          	mov    -0x8(%rbp),%rax
  401ad0:	48 c7 40 30 00 00 00 	movq   $0x0,0x30(%rax)
  401ad7:	00 
  401ad8:	48 8b 45 f8          	mov    -0x8(%rbp),%rax
  401adc:	48 c7 40 38 00 00 00 	movq   $0x0,0x38(%rax)
  401ae3:	00 
  401ae4:	48 8b 45 f8          	mov    -0x8(%rbp),%rax
  401ae8:	c7 40 40 ff ff ff ff 	movl   $0xffffffff,0x40(%rax)
  401aef:	48 8b 45 f8          	mov    -0x8(%rbp),%rax
  401af3:	c7 40 44 ff ff ff ff 	movl   $0xffffffff,0x44(%rax)
  401afa:	48 8b 45 f8          	mov    -0x8(%rbp),%rax
  401afe:	c7 40 48 ff ff ff ff 	movl   $0xffffffff,0x48(%rax)
  401b05:	48 8b 45 f8          	mov    -0x8(%rbp),%rax
  401b09:	c7 40 4c ff ff ff ff 	movl   $0xffffffff,0x4c(%rax)
  401b10:	48 8b 45 f8          	mov    -0x8(%rbp),%rax
  401b14:	c7 40 50 ff ff ff ff 	movl   $0xffffffff,0x50(%rax)
  401b1b:	48 8b 45 f8          	mov    -0x8(%rbp),%rax
  401b1f:	c7 40 54 ff ff ff ff 	movl   $0xffffffff,0x54(%rax)
  401b26:	48 8b 45 f8          	mov    -0x8(%rbp),%rax
  401b2a:	c7 40 58 ff ff ff ff 	movl   $0xffffffff,0x58(%rax)
  401b31:	48 8b 45 f8          	mov    -0x8(%rbp),%rax
  401b35:	c7 40 5c 00 00 00 00 	movl   $0x0,0x5c(%rax)
  401b3c:	48 8b 45 f8          	mov    -0x8(%rbp),%rax
  401b40:	c7 40 60 00 00 00 00 	movl   $0x0,0x60(%rax)
  401b47:	48 8b 45 f8          	mov    -0x8(%rbp),%rax
  401b4b:	c7 40 64 ff ff ff ff 	movl   $0xffffffff,0x64(%rax)
  401b52:	48 8b 45 f8          	mov    -0x8(%rbp),%rax
  401b56:	c7 40 68 ff ff ff ff 	movl   $0xffffffff,0x68(%rax)
  401b5d:	48 8b 45 f8          	mov    -0x8(%rbp),%rax
  401b61:	c7 40 6c 00 00 00 00 	movl   $0x0,0x6c(%rax)
  401b68:	48 8b 7d f8          	mov    -0x8(%rbp),%rdi
  401b6c:	e8 3f fe ff ff       	call   4019b0 <init_hashtable>
  401b71:	48 83 c4 10          	add    $0x10,%rsp
  401b75:	5d                   	pop    %rbp
  401b76:	c3                   	ret    
  401b77:	66 0f 1f 84 00 00 00 	nopw   0x0(%rax,%rax,1)
  401b7e:	00 00 

0000000000401b80 <get_all_cmd_paths>:
  401b80:	55                   	push   %rbp
  401b81:	48 89 e5             	mov    %rsp,%rbp
  401b84:	48 83 ec 20          	sub    $0x20,%rsp
  401b88:	48 89 7d f8          	mov    %rdi,-0x8(%rbp)
  401b8c:	c7 45 f4 ff ff ff ff 	movl   $0xffffffff,-0xc(%rbp)
  401b93:	48 c7 45 e8 00 00 00 	movq   $0x0,-0x18(%rbp)
  401b9a:	00 
  401b9b:	48 8b 4d f8          	mov    -0x8(%rbp),%rcx
  401b9f:	31 c0                	xor    %eax,%eax
  401ba1:	48 83 b9 88 00 00 00 	cmpq   $0x0,0x88(%rcx)
  401ba8:	00 
  401ba9:	88 45 e7             	mov    %al,-0x19(%rbp)
  401bac:	0f 84 22 00 00 00    	je     401bd4 <get_all_cmd_paths+0x54>
  401bb2:	48 8b 45 f8          	mov    -0x8(%rbp),%rax
  401bb6:	48 8b 80 88 00 00 00 	mov    0x88(%rax),%rax
  401bbd:	8b 4d f4             	mov    -0xc(%rbp),%ecx
  401bc0:	83 c1 01             	add    $0x1,%ecx
  401bc3:	89 4d f4             	mov    %ecx,-0xc(%rbp)
  401bc6:	48 63 c9             	movslq %ecx,%rcx
  401bc9:	48 83 3c c8 00       	cmpq   $0x0,(%rax,%rcx,8)
  401bce:	0f 95 c0             	setne  %al
  401bd1:	88 45 e7             	mov    %al,-0x19(%rbp)
  401bd4:	8a 45 e7             	mov    -0x19(%rbp),%al
  401bd7:	a8 01                	test   $0x1,%al
  401bd9:	0f 85 05 00 00 00    	jne    401be4 <get_all_cmd_paths+0x64>
  401bdf:	e9 3a 00 00 00       	jmp    401c1e <get_all_cmd_paths+0x9e>
  401be4:	48 8b 45 f8          	mov    -0x8(%rbp),%rax
  401be8:	48 8b 80 88 00 00 00 	mov    0x88(%rax),%rax
  401bef:	48 63 4d f4          	movslq -0xc(%rbp),%rcx
  401bf3:	48 8b 3c c8          	mov    (%rax,%rcx,8),%rdi
  401bf7:	48 be a1 c0 40 00 00 	movabs $0x40c0a1,%rsi
  401bfe:	00 00 00 
  401c01:	ba 05 00 00 00       	mov    $0x5,%edx
  401c06:	e8 f5 8b 00 00       	call   40a800 <ft_strncmp>
  401c0b:	83 f8 00             	cmp    $0x0,%eax
  401c0e:	0f 85 05 00 00 00    	jne    401c19 <get_all_cmd_paths+0x99>
  401c14:	e9 05 00 00 00       	jmp    401c1e <get_all_cmd_paths+0x9e>
  401c19:	e9 7d ff ff ff       	jmp    401b9b <get_all_cmd_paths+0x1b>
  401c1e:	48 8b 45 f8          	mov    -0x8(%rbp),%rax
  401c22:	48 8b 80 88 00 00 00 	mov    0x88(%rax),%rax
  401c29:	48 63 4d f4          	movslq -0xc(%rbp),%rcx
  401c2d:	48 83 3c c8 00       	cmpq   $0x0,(%rax,%rcx,8)
  401c32:	0f 85 05 00 00 00    	jne    401c3d <get_all_cmd_paths+0xbd>
  401c38:	e9 0c 01 00 00       	jmp    401d49 <get_all_cmd_paths+0x1c9>
  401c3d:	48 8b 45 f8          	mov    -0x8(%rbp),%rax
  401c41:	48 8b 80 88 00 00 00 	mov    0x88(%rax),%rax
  401c48:	48 63 4d f4          	movslq -0xc(%rbp),%rcx
  401c4c:	48 8b 3c c8          	mov    (%rax,%rcx,8),%rdi
  401c50:	48 83 c7 05          	add    $0x5,%rdi
  401c54:	be 3a 00 00 00       	mov    $0x3a,%esi
  401c59:	e8 a2 98 00 00       	call   40b500 <ft_split>
  401c5e:	48 89 c1             	mov    %rax,%rcx
  401c61:	48 8b 45 f8          	mov    -0x8(%rbp),%rax
  401c65:	48 89 48 30          	mov    %rcx,0x30(%rax)
  401c69:	48 8b 45 f8          	mov    -0x8(%rbp),%rax
  401c6d:	48 83 78 30 00       	cmpq   $0x0,0x30(%rax)
  401c72:	0f 85 1c 00 00 00    	jne    401c94 <get_all_cmd_paths+0x114>
  401c78:	48 8b 7d f8          	mov    -0x8(%rbp),%rdi
  401c7c:	48 be a7 c0 40 00 00 	movabs $0x40c0a7,%rsi
  401c83:	00 00 00 
  401c86:	31 c0                	xor    %eax,%eax
  401c88:	89 c2                	mov    %eax,%edx
  401c8a:	b9 ff 00 00 00       	mov    $0xff,%ecx
  401c8f:	e8 6c 5e 00 00       	call   407b00 <snuff_it>
  401c94:	c7 45 f4 ff ff ff ff 	movl   $0xffffffff,-0xc(%rbp)
  401c9b:	48 8b 45 f8          	mov    -0x8(%rbp),%rax
  401c9f:	48 8b 40 30          	mov    0x30(%rax),%rax
  401ca3:	8b 4d f4             	mov    -0xc(%rbp),%ecx
  401ca6:	83 c1 01             	add    $0x1,%ecx
  401ca9:	89 4d f4             	mov    %ecx,-0xc(%rbp)
  401cac:	48 63 c9             	movslq %ecx,%rcx
  401caf:	48 83 3c c8 00       	cmpq   $0x0,(%rax,%rcx,8)
  401cb4:	0f 84 8f 00 00 00    	je     401d49 <get_all_cmd_paths+0x1c9>
  401cba:	48 8b 45 f8          	mov    -0x8(%rbp),%rax
  401cbe:	48 8b 40 30          	mov    0x30(%rax),%rax
  401cc2:	48 63 4d f4          	movslq -0xc(%rbp),%rcx
  401cc6:	48 8b 04 c8          	mov    (%rax,%rcx,8),%rax
  401cca:	48 89 45 e8          	mov    %rax,-0x18(%rbp)
  401cce:	48 8b 45 f8          	mov    -0x8(%rbp),%rax
  401cd2:	48 8b 40 30          	mov    0x30(%rax),%rax
  401cd6:	48 63 4d f4          	movslq -0xc(%rbp),%rcx
  401cda:	48 8b 3c c8          	mov    (%rax,%rcx,8),%rdi
  401cde:	48 be c3 c0 40 00 00 	movabs $0x40c0c3,%rsi
  401ce5:	00 00 00 
  401ce8:	e8 c3 92 00 00       	call   40afb0 <ft_strjoin>
  401ced:	48 89 c2             	mov    %rax,%rdx
  401cf0:	48 8b 45 f8          	mov    -0x8(%rbp),%rax
  401cf4:	48 8b 40 30          	mov    0x30(%rax),%rax
  401cf8:	48 63 4d f4          	movslq -0xc(%rbp),%rcx
  401cfc:	48 89 14 c8          	mov    %rdx,(%rax,%rcx,8)
  401d00:	48 8b 7d e8          	mov    -0x18(%rbp),%rdi
  401d04:	e8 27 f3 ff ff       	call   401030 <free@plt>
  401d09:	48 c7 45 e8 00 00 00 	movq   $0x0,-0x18(%rbp)
  401d10:	00 
  401d11:	48 8b 45 f8          	mov    -0x8(%rbp),%rax
  401d15:	48 8b 40 30          	mov    0x30(%rax),%rax
  401d19:	48 63 4d f4          	movslq -0xc(%rbp),%rcx
  401d1d:	48 83 3c c8 00       	cmpq   $0x0,(%rax,%rcx,8)
  401d22:	0f 85 1c 00 00 00    	jne    401d44 <get_all_cmd_paths+0x1c4>
  401d28:	48 8b 7d f8          	mov    -0x8(%rbp),%rdi
  401d2c:	48 be c5 c0 40 00 00 	movabs $0x40c0c5,%rsi
  401d33:	00 00 00 
  401d36:	31 c0                	xor    %eax,%eax
  401d38:	89 c2                	mov    %eax,%edx
  401d3a:	b9 ff 00 00 00       	mov    $0xff,%ecx
  401d3f:	e8 bc 5d 00 00       	call   407b00 <snuff_it>
  401d44:	e9 52 ff ff ff       	jmp    401c9b <get_all_cmd_paths+0x11b>
  401d49:	48 83 c4 20          	add    $0x20,%rsp
  401d4d:	5d                   	pop    %rbp
  401d4e:	c3                   	ret    
  401d4f:	90                   	nop

0000000000401d50 <get_path_from_env>:
  401d50:	55                   	push   %rbp
  401d51:	48 89 e5             	mov    %rsp,%rbp
  401d54:	48 83 ec 20          	sub    $0x20,%rsp
  401d58:	48 89 7d f8          	mov    %rdi,-0x8(%rbp)
  401d5c:	48 89 75 f0          	mov    %rsi,-0x10(%rbp)
  401d60:	c7 45 ec ff ff ff ff 	movl   $0xffffffff,-0x14(%rbp)
  401d67:	48 8b 45 f8          	mov    -0x8(%rbp),%rax
  401d6b:	48 83 78 30 00       	cmpq   $0x0,0x30(%rax)
  401d70:	0f 84 b6 00 00 00    	je     401e2c <get_path_from_env+0xdc>
  401d76:	e9 00 00 00 00       	jmp    401d7b <get_path_from_env+0x2b>
  401d7b:	48 8b 45 f8          	mov    -0x8(%rbp),%rax
  401d7f:	48 8b 40 30          	mov    0x30(%rax),%rax
  401d83:	8b 4d ec             	mov    -0x14(%rbp),%ecx
  401d86:	83 c1 01             	add    $0x1,%ecx
  401d89:	89 4d ec             	mov    %ecx,-0x14(%rbp)
  401d8c:	48 63 c9             	movslq %ecx,%rcx
  401d8f:	48 83 3c c8 00       	cmpq   $0x0,(%rax,%rcx,8)
  401d94:	0f 84 8d 00 00 00    	je     401e27 <get_path_from_env+0xd7>
  401d9a:	48 8b 45 f8          	mov    -0x8(%rbp),%rax
  401d9e:	48 8b 40 30          	mov    0x30(%rax),%rax
  401da2:	48 63 4d ec          	movslq -0x14(%rbp),%rcx
  401da6:	48 8b 3c c8          	mov    (%rax,%rcx,8),%rdi
  401daa:	48 8b 75 f0          	mov    -0x10(%rbp),%rsi
  401dae:	e8 fd 91 00 00       	call   40afb0 <ft_strjoin>
  401db3:	48 89 c1             	mov    %rax,%rcx
  401db6:	48 8b 45 f8          	mov    -0x8(%rbp),%rax
  401dba:	48 89 48 38          	mov    %rcx,0x38(%rax)
  401dbe:	48 8b 45 f8          	mov    -0x8(%rbp),%rax
  401dc2:	48 83 78 38 00       	cmpq   $0x0,0x38(%rax)
  401dc7:	0f 85 1c 00 00 00    	jne    401de9 <get_path_from_env+0x99>
  401dcd:	48 8b 7d f8          	mov    -0x8(%rbp),%rdi
  401dd1:	48 be dd c0 40 00 00 	movabs $0x40c0dd,%rsi
  401dd8:	00 00 00 
  401ddb:	31 c0                	xor    %eax,%eax
  401ddd:	89 c2                	mov    %eax,%edx
  401ddf:	b9 ff 00 00 00       	mov    $0xff,%ecx
  401de4:	e8 17 5d 00 00       	call   407b00 <snuff_it>
  401de9:	48 8b 45 f8          	mov    -0x8(%rbp),%rax
  401ded:	48 8b 78 38          	mov    0x38(%rax),%rdi
  401df1:	be 05 00 00 00       	mov    $0x5,%esi
  401df6:	e8 85 f3 ff ff       	call   401180 <access@plt>
  401dfb:	83 f8 00             	cmp    $0x0,%eax
  401dfe:	0f 85 05 00 00 00    	jne    401e09 <get_path_from_env+0xb9>
  401e04:	e9 1e 00 00 00       	jmp    401e27 <get_path_from_env+0xd7>
  401e09:	48 8b 45 f8          	mov    -0x8(%rbp),%rax
  401e0d:	48 8b 78 38          	mov    0x38(%rax),%rdi
  401e11:	e8 1a f2 ff ff       	call   401030 <free@plt>
  401e16:	48 8b 45 f8          	mov    -0x8(%rbp),%rax
  401e1a:	48 c7 40 38 00 00 00 	movq   $0x0,0x38(%rax)
  401e21:	00 
  401e22:	e9 54 ff ff ff       	jmp    401d7b <get_path_from_env+0x2b>
  401e27:	e9 00 00 00 00       	jmp    401e2c <get_path_from_env+0xdc>
  401e2c:	48 83 c4 20          	add    $0x20,%rsp
  401e30:	5d                   	pop    %rbp
  401e31:	c3                   	ret    
  401e32:	66 2e 0f 1f 84 00 00 	cs nopw 0x0(%rax,%rax,1)
  401e39:	00 00 00 
  401e3c:	0f 1f 40 00          	nopl   0x0(%rax)

0000000000401e40 <check_if_full_path>:
  401e40:	55                   	push   %rbp
  401e41:	48 89 e5             	mov    %rsp,%rbp
  401e44:	48 83 ec 20          	sub    $0x20,%rsp
  401e48:	48 89 7d f8          	mov    %rdi,-0x8(%rbp)
  401e4c:	48 89 75 f0          	mov    %rsi,-0x10(%rbp)
  401e50:	48 89 55 e8          	mov    %rdx,-0x18(%rbp)
  401e54:	48 8b 7d e8          	mov    -0x18(%rbp),%rdi
  401e58:	be 2f 00 00 00       	mov    $0x2f,%esi
  401e5d:	e8 3e 88 00 00       	call   40a6a0 <ft_strrchr>
  401e62:	48 89 45 e0          	mov    %rax,-0x20(%rbp)
  401e66:	48 83 7d e0 00       	cmpq   $0x0,-0x20(%rbp)
  401e6b:	0f 84 d3 00 00 00    	je     401f44 <check_if_full_path+0x104>
  401e71:	48 8b 7d e8          	mov    -0x18(%rbp),%rdi
  401e75:	be 24 00 00 00       	mov    $0x24,%esi
  401e7a:	e8 71 87 00 00       	call   40a5f0 <ft_strchr>
  401e7f:	48 83 f8 00          	cmp    $0x0,%rax
  401e83:	0f 84 11 00 00 00    	je     401e9a <check_if_full_path+0x5a>
  401e89:	48 8b 7d f8          	mov    -0x8(%rbp),%rdi
  401e8d:	48 8b 75 e8          	mov    -0x18(%rbp),%rsi
  401e91:	e8 6a 2f 00 00       	call   404e00 <expand_arg>
  401e96:	48 89 45 e8          	mov    %rax,-0x18(%rbp)
  401e9a:	48 8b 7d e8          	mov    -0x18(%rbp),%rdi
  401e9e:	be 27 00 00 00       	mov    $0x27,%esi
  401ea3:	e8 48 87 00 00       	call   40a5f0 <ft_strchr>
  401ea8:	48 83 f8 00          	cmp    $0x0,%rax
  401eac:	0f 85 18 00 00 00    	jne    401eca <check_if_full_path+0x8a>
  401eb2:	48 8b 7d e8          	mov    -0x18(%rbp),%rdi
  401eb6:	be 22 00 00 00       	mov    $0x22,%esi
  401ebb:	e8 30 87 00 00       	call   40a5f0 <ft_strchr>
  401ec0:	48 83 f8 00          	cmp    $0x0,%rax
  401ec4:	0f 84 11 00 00 00    	je     401edb <check_if_full_path+0x9b>
  401eca:	48 8b 7d f8          	mov    -0x8(%rbp),%rdi
  401ece:	48 8b 75 e8          	mov    -0x18(%rbp),%rsi
  401ed2:	e8 09 35 00 00       	call   4053e0 <rm_quotes>
  401ed7:	48 89 45 e8          	mov    %rax,-0x18(%rbp)
  401edb:	48 8b 7d e8          	mov    -0x18(%rbp),%rdi
  401edf:	be 05 00 00 00       	mov    $0x5,%esi
  401ee4:	e8 97 f2 ff ff       	call   401180 <access@plt>
  401ee9:	83 f8 00             	cmp    $0x0,%eax
  401eec:	0f 85 4d 00 00 00    	jne    401f3f <check_if_full_path+0xff>
  401ef2:	48 8b 7d e8          	mov    -0x18(%rbp),%rdi
  401ef6:	e8 45 8d 00 00       	call   40ac40 <ft_strdup>
  401efb:	48 89 c1             	mov    %rax,%rcx
  401efe:	48 8b 45 f8          	mov    -0x8(%rbp),%rax
  401f02:	48 89 48 38          	mov    %rcx,0x38(%rax)
  401f06:	48 8b 45 f8          	mov    -0x8(%rbp),%rax
  401f0a:	48 83 78 38 00       	cmpq   $0x0,0x38(%rax)
  401f0f:	0f 85 1c 00 00 00    	jne    401f31 <check_if_full_path+0xf1>
  401f15:	48 8b 7d f8          	mov    -0x8(%rbp),%rdi
  401f19:	48 be fe c0 40 00 00 	movabs $0x40c0fe,%rsi
  401f20:	00 00 00 
  401f23:	31 c0                	xor    %eax,%eax
  401f25:	89 c2                	mov    %eax,%edx
  401f27:	b9 ff 00 00 00       	mov    $0xff,%ecx
  401f2c:	e8 cf 5b 00 00       	call   407b00 <snuff_it>
  401f31:	48 8b 45 f0          	mov    -0x10(%rbp),%rax
  401f35:	48 8b 00             	mov    (%rax),%rax
  401f38:	c7 40 18 01 00 00 00 	movl   $0x1,0x18(%rax)
  401f3f:	e9 00 00 00 00       	jmp    401f44 <check_if_full_path+0x104>
  401f44:	48 83 c4 20          	add    $0x20,%rsp
  401f48:	5d                   	pop    %rbp
  401f49:	c3                   	ret    
  401f4a:	66 0f 1f 44 00 00    	nopw   0x0(%rax,%rax,1)

0000000000401f50 <parse_var>:
  401f50:	55                   	push   %rbp
  401f51:	48 89 e5             	mov    %rsp,%rbp
  401f54:	48 83 ec 20          	sub    $0x20,%rsp
  401f58:	48 89 7d f8          	mov    %rdi,-0x8(%rbp)
  401f5c:	48 8b 45 f8          	mov    -0x8(%rbp),%rax
  401f60:	8b 40 18             	mov    0x18(%rax),%eax
  401f63:	89 45 f4             	mov    %eax,-0xc(%rbp)
  401f66:	48 8b 45 f8          	mov    -0x8(%rbp),%rax
  401f6a:	48 8b 40 20          	mov    0x20(%rax),%rax
  401f6e:	48 8b 4d f8          	mov    -0x8(%rbp),%rcx
  401f72:	48 63 49 18          	movslq 0x18(%rcx),%rcx
  401f76:	0f be 3c 08          	movsbl (%rax,%rcx,1),%edi
  401f7a:	e8 51 83 00 00       	call   40a2d0 <ft_isalnum_or_>
  401f7f:	89 c1                	mov    %eax,%ecx
  401f81:	b0 01                	mov    $0x1,%al
  401f83:	83 f9 00             	cmp    $0x0,%ecx
  401f86:	88 45 e7             	mov    %al,-0x19(%rbp)
  401f89:	0f 85 61 00 00 00    	jne    401ff0 <parse_var+0xa0>
  401f8f:	48 8b 45 f8          	mov    -0x8(%rbp),%rax
  401f93:	48 8b 40 20          	mov    0x20(%rax),%rax
  401f97:	48 8b 4d f8          	mov    -0x8(%rbp),%rcx
  401f9b:	48 63 49 18          	movslq 0x18(%rcx),%rcx
  401f9f:	0f be 0c 08          	movsbl (%rax,%rcx,1),%ecx
  401fa3:	b0 01                	mov    $0x1,%al
  401fa5:	83 f9 24             	cmp    $0x24,%ecx
  401fa8:	88 45 e7             	mov    %al,-0x19(%rbp)
  401fab:	0f 84 3f 00 00 00    	je     401ff0 <parse_var+0xa0>
  401fb1:	48 8b 45 f8          	mov    -0x8(%rbp),%rax
  401fb5:	48 8b 40 20          	mov    0x20(%rax),%rax
  401fb9:	48 8b 4d f8          	mov    -0x8(%rbp),%rcx
  401fbd:	48 63 49 18          	movslq 0x18(%rcx),%rcx
  401fc1:	0f be 0c 08          	movsbl (%rax,%rcx,1),%ecx
  401fc5:	b0 01                	mov    $0x1,%al
  401fc7:	83 f9 7b             	cmp    $0x7b,%ecx
  401fca:	88 45 e7             	mov    %al,-0x19(%rbp)
  401fcd:	0f 84 1d 00 00 00    	je     401ff0 <parse_var+0xa0>
  401fd3:	48 8b 45 f8          	mov    -0x8(%rbp),%rax
  401fd7:	48 8b 40 20          	mov    0x20(%rax),%rax
  401fdb:	48 8b 4d f8          	mov    -0x8(%rbp),%rcx
  401fdf:	48 63 49 18          	movslq 0x18(%rcx),%rcx
  401fe3:	0f be 04 08          	movsbl (%rax,%rcx,1),%eax
  401fe7:	83 f8 7d             	cmp    $0x7d,%eax
  401fea:	0f 94 c0             	sete   %al
  401fed:	88 45 e7             	mov    %al,-0x19(%rbp)
  401ff0:	8a 45 e7             	mov    -0x19(%rbp),%al
  401ff3:	a8 01                	test   $0x1,%al
  401ff5:	0f 85 05 00 00 00    	jne    402000 <parse_var+0xb0>
  401ffb:	e9 12 00 00 00       	jmp    402012 <parse_var+0xc2>
  402000:	48 8b 45 f8          	mov    -0x8(%rbp),%rax
  402004:	8b 48 18             	mov    0x18(%rax),%ecx
  402007:	83 c1 01             	add    $0x1,%ecx
  40200a:	89 48 18             	mov    %ecx,0x18(%rax)
  40200d:	e9 54 ff ff ff       	jmp    401f66 <parse_var+0x16>
  402012:	48 8b 45 f8          	mov    -0x8(%rbp),%rax
  402016:	8b 40 18             	mov    0x18(%rax),%eax
  402019:	2b 45 f4             	sub    -0xc(%rbp),%eax
  40201c:	83 c0 01             	add    $0x1,%eax
  40201f:	48 63 f8             	movslq %eax,%rdi
  402022:	e8 09 f1 ff ff       	call   401130 <malloc@plt>
  402027:	48 89 45 e8          	mov    %rax,-0x18(%rbp)
  40202b:	48 83 7d e8 00       	cmpq   $0x0,-0x18(%rbp)
  402030:	0f 85 1c 00 00 00    	jne    402052 <parse_var+0x102>
  402036:	48 8b 7d f8          	mov    -0x8(%rbp),%rdi
  40203a:	48 be 18 c1 40 00 00 	movabs $0x40c118,%rsi
  402041:	00 00 00 
  402044:	31 c0                	xor    %eax,%eax
  402046:	89 c2                	mov    %eax,%edx
  402048:	b9 ff 00 00 00       	mov    $0xff,%ecx
  40204d:	e8 ae 5a 00 00       	call   407b00 <snuff_it>
  402052:	48 8b 7d f8          	mov    -0x8(%rbp),%rdi
  402056:	48 8b 75 e8          	mov    -0x18(%rbp),%rsi
  40205a:	e8 31 78 00 00       	call   409890 <add_string_to_thrash_list>
  40205f:	48 8b 7d e8          	mov    -0x18(%rbp),%rdi
  402063:	48 8b 45 f8          	mov    -0x8(%rbp),%rax
  402067:	48 8b 70 20          	mov    0x20(%rax),%rsi
  40206b:	48 63 45 f4          	movslq -0xc(%rbp),%rax
  40206f:	48 01 c6             	add    %rax,%rsi
  402072:	48 8b 45 f8          	mov    -0x8(%rbp),%rax
  402076:	8b 50 18             	mov    0x18(%rax),%edx
  402079:	2b 55 f4             	sub    -0xc(%rbp),%edx
  40207c:	83 c2 01             	add    $0x1,%edx
  40207f:	e8 bc 34 00 00       	call   405540 <ft_strlcpy>
  402084:	48 8b 45 e8          	mov    -0x18(%rbp),%rax
  402088:	48 83 c4 20          	add    $0x20,%rsp
  40208c:	5d                   	pop    %rbp
  40208d:	c3                   	ret    
  40208e:	66 90                	xchg   %ax,%ax

0000000000402090 <starts_next_token>:
  402090:	55                   	push   %rbp
  402091:	48 89 e5             	mov    %rsp,%rbp
  402094:	48 83 ec 10          	sub    $0x10,%rsp
  402098:	89 7d f8             	mov    %edi,-0x8(%rbp)
  40209b:	8b 7d f8             	mov    -0x8(%rbp),%edi
  40209e:	e8 ad 82 00 00       	call   40a350 <ft_iswhitespace>
  4020a3:	83 f8 00             	cmp    $0x0,%eax
  4020a6:	0f 85 46 00 00 00    	jne    4020f2 <starts_next_token+0x62>
  4020ac:	83 7d f8 7c          	cmpl   $0x7c,-0x8(%rbp)
  4020b0:	0f 84 3c 00 00 00    	je     4020f2 <starts_next_token+0x62>
  4020b6:	83 7d f8 3c          	cmpl   $0x3c,-0x8(%rbp)
  4020ba:	0f 84 32 00 00 00    	je     4020f2 <starts_next_token+0x62>
  4020c0:	83 7d f8 3e          	cmpl   $0x3e,-0x8(%rbp)
  4020c4:	0f 84 28 00 00 00    	je     4020f2 <starts_next_token+0x62>
  4020ca:	83 7d f8 22          	cmpl   $0x22,-0x8(%rbp)
  4020ce:	0f 84 1e 00 00 00    	je     4020f2 <starts_next_token+0x62>
  4020d4:	83 7d f8 27          	cmpl   $0x27,-0x8(%rbp)
  4020d8:	0f 84 14 00 00 00    	je     4020f2 <starts_next_token+0x62>
  4020de:	83 7d f8 24          	cmpl   $0x24,-0x8(%rbp)
  4020e2:	0f 84 0a 00 00 00    	je     4020f2 <starts_next_token+0x62>
  4020e8:	83 7d f8 00          	cmpl   $0x0,-0x8(%rbp)
  4020ec:	0f 85 0c 00 00 00    	jne    4020fe <starts_next_token+0x6e>
  4020f2:	c7 45 fc 01 00 00 00 	movl   $0x1,-0x4(%rbp)
  4020f9:	e9 07 00 00 00       	jmp    402105 <starts_next_token+0x75>
  4020fe:	c7 45 fc 00 00 00 00 	movl   $0x0,-0x4(%rbp)
  402105:	8b 45 fc             	mov    -0x4(%rbp),%eax
  402108:	48 83 c4 10          	add    $0x10,%rsp
  40210c:	5d                   	pop    %rbp
  40210d:	c3                   	ret    
  40210e:	66 90                	xchg   %ax,%ax

0000000000402110 <parse_word>:
  402110:	55                   	push   %rbp
  402111:	48 89 e5             	mov    %rsp,%rbp
  402114:	48 83 ec 20          	sub    $0x20,%rsp
  402118:	48 89 7d f8          	mov    %rdi,-0x8(%rbp)
  40211c:	48 8b 45 f8          	mov    -0x8(%rbp),%rax
  402120:	8b 40 18             	mov    0x18(%rax),%eax
  402123:	89 45 f4             	mov    %eax,-0xc(%rbp)
  402126:	c7 45 f0 00 00 00 00 	movl   $0x0,-0x10(%rbp)
  40212d:	48 c7 45 e8 00 00 00 	movq   $0x0,-0x18(%rbp)
  402134:	00 
  402135:	48 8b 45 f8          	mov    -0x8(%rbp),%rax
  402139:	48 8b 40 20          	mov    0x20(%rax),%rax
  40213d:	48 8b 4d f8          	mov    -0x8(%rbp),%rcx
  402141:	48 63 49 18          	movslq 0x18(%rcx),%rcx
  402145:	0f be 0c 08          	movsbl (%rax,%rcx,1),%ecx
  402149:	31 c0                	xor    %eax,%eax
  40214b:	83 f9 00             	cmp    $0x0,%ecx
  40214e:	88 45 e7             	mov    %al,-0x19(%rbp)
  402151:	0f 84 24 00 00 00    	je     40217b <parse_word+0x6b>
  402157:	48 8b 45 f8          	mov    -0x8(%rbp),%rax
  40215b:	48 8b 40 20          	mov    0x20(%rax),%rax
  40215f:	48 8b 4d f8          	mov    -0x8(%rbp),%rcx
  402163:	48 63 49 18          	movslq 0x18(%rcx),%rcx
  402167:	0f be 3c 08          	movsbl (%rax,%rcx,1),%edi
  40216b:	e8 20 ff ff ff       	call   402090 <starts_next_token>
  402170:	83 f8 00             	cmp    $0x0,%eax
  402173:	0f 95 c0             	setne  %al
  402176:	34 ff                	xor    $0xff,%al
  402178:	88 45 e7             	mov    %al,-0x19(%rbp)
  40217b:	8a 45 e7             	mov    -0x19(%rbp),%al
  40217e:	a8 01                	test   $0x1,%al
  402180:	0f 85 05 00 00 00    	jne    40218b <parse_word+0x7b>
  402186:	e9 1b 00 00 00       	jmp    4021a6 <parse_word+0x96>
  40218b:	48 8b 45 f8          	mov    -0x8(%rbp),%rax
  40218f:	8b 48 18             	mov    0x18(%rax),%ecx
  402192:	83 c1 01             	add    $0x1,%ecx
  402195:	89 48 18             	mov    %ecx,0x18(%rax)
  402198:	8b 45 f0             	mov    -0x10(%rbp),%eax
  40219b:	83 c0 01             	add    $0x1,%eax
  40219e:	89 45 f0             	mov    %eax,-0x10(%rbp)
  4021a1:	e9 8f ff ff ff       	jmp    402135 <parse_word+0x25>
  4021a6:	83 7d f0 00          	cmpl   $0x0,-0x10(%rbp)
  4021aa:	0f 8e 68 00 00 00    	jle    402218 <parse_word+0x108>
  4021b0:	8b 45 f0             	mov    -0x10(%rbp),%eax
  4021b3:	83 c0 01             	add    $0x1,%eax
  4021b6:	48 63 f8             	movslq %eax,%rdi
  4021b9:	48 c1 e7 00          	shl    $0x0,%rdi
  4021bd:	e8 6e ef ff ff       	call   401130 <malloc@plt>
  4021c2:	48 89 45 e8          	mov    %rax,-0x18(%rbp)
  4021c6:	48 83 7d e8 00       	cmpq   $0x0,-0x18(%rbp)
  4021cb:	0f 85 1c 00 00 00    	jne    4021ed <parse_word+0xdd>
  4021d1:	48 8b 7d f8          	mov    -0x8(%rbp),%rdi
  4021d5:	48 be 38 c1 40 00 00 	movabs $0x40c138,%rsi
  4021dc:	00 00 00 
  4021df:	31 c0                	xor    %eax,%eax
  4021e1:	89 c2                	mov    %eax,%edx
  4021e3:	b9 ff 00 00 00       	mov    $0xff,%ecx
  4021e8:	e8 13 59 00 00       	call   407b00 <snuff_it>
  4021ed:	48 8b 7d f8          	mov    -0x8(%rbp),%rdi
  4021f1:	48 8b 75 e8          	mov    -0x18(%rbp),%rsi
  4021f5:	e8 96 76 00 00       	call   409890 <add_string_to_thrash_list>
  4021fa:	48 8b 7d e8          	mov    -0x18(%rbp),%rdi
  4021fe:	48 8b 45 f8          	mov    -0x8(%rbp),%rax
  402202:	48 8b 70 20          	mov    0x20(%rax),%rsi
  402206:	48 63 45 f4          	movslq -0xc(%rbp),%rax
  40220a:	48 01 c6             	add    %rax,%rsi
  40220d:	8b 55 f0             	mov    -0x10(%rbp),%edx
  402210:	83 c2 01             	add    $0x1,%edx
  402213:	e8 28 33 00 00       	call   405540 <ft_strlcpy>
  402218:	48 8b 45 e8          	mov    -0x18(%rbp),%rax
  40221c:	48 83 c4 20          	add    $0x20,%rsp
  402220:	5d                   	pop    %rbp
  402221:	c3                   	ret    
  402222:	66 2e 0f 1f 84 00 00 	cs nopw 0x0(%rax,%rax,1)
  402229:	00 00 00 
  40222c:	0f 1f 40 00          	nopl   0x0(%rax)

0000000000402230 <get_next_token>:
  402230:	55                   	push   %rbp
  402231:	48 89 e5             	mov    %rsp,%rbp
  402234:	48 83 ec 20          	sub    $0x20,%rsp
  402238:	48 89 7d e8          	mov    %rdi,-0x18(%rbp)
  40223c:	48 8b 45 e8          	mov    -0x18(%rbp),%rax
  402240:	8b 40 18             	mov    0x18(%rax),%eax
  402243:	48 8b 4d e8          	mov    -0x18(%rbp),%rcx
  402247:	3b 41 28             	cmp    0x28(%rcx),%eax
  40224a:	0f 8c 14 00 00 00    	jl     402264 <get_next_token+0x34>
  402250:	c7 45 f0 0c 00 00 00 	movl   $0xc,-0x10(%rbp)
  402257:	48 c7 45 f8 00 00 00 	movq   $0x0,-0x8(%rbp)
  40225e:	00 
  40225f:	e9 44 02 00 00       	jmp    4024a8 <get_next_token+0x278>
  402264:	48 8b 45 e8          	mov    -0x18(%rbp),%rax
  402268:	48 8b 40 20          	mov    0x20(%rax),%rax
  40226c:	48 8b 4d e8          	mov    -0x18(%rbp),%rcx
  402270:	48 63 49 18          	movslq 0x18(%rcx),%rcx
  402274:	0f be 04 08          	movsbl (%rax,%rcx,1),%eax
  402278:	83 f8 27             	cmp    $0x27,%eax
  40227b:	0f 85 19 00 00 00    	jne    40229a <get_next_token+0x6a>
  402281:	c7 45 f0 03 00 00 00 	movl   $0x3,-0x10(%rbp)
  402288:	48 8b 7d e8          	mov    -0x18(%rbp),%rdi
  40228c:	e8 bf 0d 00 00       	call   403050 <parse_single_quotes>
  402291:	48 89 45 f8          	mov    %rax,-0x8(%rbp)
  402295:	e9 0e 02 00 00       	jmp    4024a8 <get_next_token+0x278>
  40229a:	48 8b 45 e8          	mov    -0x18(%rbp),%rax
  40229e:	48 8b 40 20          	mov    0x20(%rax),%rax
  4022a2:	48 8b 4d e8          	mov    -0x18(%rbp),%rcx
  4022a6:	48 63 49 18          	movslq 0x18(%rcx),%rcx
  4022aa:	0f be 04 08          	movsbl (%rax,%rcx,1),%eax
  4022ae:	83 f8 22             	cmp    $0x22,%eax
  4022b1:	0f 85 19 00 00 00    	jne    4022d0 <get_next_token+0xa0>
  4022b7:	c7 45 f0 04 00 00 00 	movl   $0x4,-0x10(%rbp)
  4022be:	48 8b 7d e8          	mov    -0x18(%rbp),%rdi
  4022c2:	e8 89 0e 00 00       	call   403150 <parse_double_quotes>
  4022c7:	48 89 45 f8          	mov    %rax,-0x8(%rbp)
  4022cb:	e9 d8 01 00 00       	jmp    4024a8 <get_next_token+0x278>
  4022d0:	48 8b 45 e8          	mov    -0x18(%rbp),%rax
  4022d4:	48 8b 40 20          	mov    0x20(%rax),%rax
  4022d8:	48 8b 4d e8          	mov    -0x18(%rbp),%rcx
  4022dc:	48 63 49 18          	movslq 0x18(%rcx),%rcx
  4022e0:	0f be 04 08          	movsbl (%rax,%rcx,1),%eax
  4022e4:	83 f8 24             	cmp    $0x24,%eax
  4022e7:	0f 85 19 00 00 00    	jne    402306 <get_next_token+0xd6>
  4022ed:	c7 45 f0 02 00 00 00 	movl   $0x2,-0x10(%rbp)
  4022f4:	48 8b 7d e8          	mov    -0x18(%rbp),%rdi
  4022f8:	e8 53 fc ff ff       	call   401f50 <parse_var>
  4022fd:	48 89 45 f8          	mov    %rax,-0x8(%rbp)
  402301:	e9 a2 01 00 00       	jmp    4024a8 <get_next_token+0x278>
  402306:	48 8b 45 e8          	mov    -0x18(%rbp),%rax
  40230a:	48 8b 40 20          	mov    0x20(%rax),%rax
  40230e:	48 8b 4d e8          	mov    -0x18(%rbp),%rcx
  402312:	48 63 49 18          	movslq 0x18(%rcx),%rcx
  402316:	0f be 04 08          	movsbl (%rax,%rcx,1),%eax
  40231a:	83 f8 7c             	cmp    $0x7c,%eax
  40231d:	0f 85 21 00 00 00    	jne    402344 <get_next_token+0x114>
  402323:	48 8b 45 e8          	mov    -0x18(%rbp),%rax
  402327:	8b 48 18             	mov    0x18(%rax),%ecx
  40232a:	83 c1 01             	add    $0x1,%ecx
  40232d:	89 48 18             	mov    %ecx,0x18(%rax)
  402330:	c7 45 f0 05 00 00 00 	movl   $0x5,-0x10(%rbp)
  402337:	48 c7 45 f8 00 00 00 	movq   $0x0,-0x8(%rbp)
  40233e:	00 
  40233f:	e9 64 01 00 00       	jmp    4024a8 <get_next_token+0x278>
  402344:	48 8b 45 e8          	mov    -0x18(%rbp),%rax
  402348:	48 8b 40 20          	mov    0x20(%rax),%rax
  40234c:	48 8b 4d e8          	mov    -0x18(%rbp),%rcx
  402350:	48 63 49 18          	movslq 0x18(%rcx),%rcx
  402354:	0f be 04 08          	movsbl (%rax,%rcx,1),%eax
  402358:	83 f8 3c             	cmp    $0x3c,%eax
  40235b:	0f 85 15 00 00 00    	jne    402376 <get_next_token+0x146>
  402361:	48 8b 7d e8          	mov    -0x18(%rbp),%rdi
  402365:	e8 06 03 00 00       	call   402670 <parse_in_redirections>
  40236a:	89 45 f0             	mov    %eax,-0x10(%rbp)
  40236d:	48 89 55 f8          	mov    %rdx,-0x8(%rbp)
  402371:	e9 32 01 00 00       	jmp    4024a8 <get_next_token+0x278>
  402376:	48 8b 45 e8          	mov    -0x18(%rbp),%rax
  40237a:	48 8b 40 20          	mov    0x20(%rax),%rax
  40237e:	48 8b 4d e8          	mov    -0x18(%rbp),%rcx
  402382:	48 63 49 18          	movslq 0x18(%rcx),%rcx
  402386:	0f be 04 08          	movsbl (%rax,%rcx,1),%eax
  40238a:	83 f8 3e             	cmp    $0x3e,%eax
  40238d:	0f 85 15 00 00 00    	jne    4023a8 <get_next_token+0x178>
  402393:	48 8b 7d e8          	mov    -0x18(%rbp),%rdi
  402397:	e8 24 06 00 00       	call   4029c0 <parse_out_redirections>
  40239c:	89 45 f0             	mov    %eax,-0x10(%rbp)
  40239f:	48 89 55 f8          	mov    %rdx,-0x8(%rbp)
  4023a3:	e9 00 01 00 00       	jmp    4024a8 <get_next_token+0x278>
  4023a8:	48 8b 45 e8          	mov    -0x18(%rbp),%rax
  4023ac:	48 8b 40 20          	mov    0x20(%rax),%rax
  4023b0:	48 8b 4d e8          	mov    -0x18(%rbp),%rcx
  4023b4:	48 63 49 18          	movslq 0x18(%rcx),%rcx
  4023b8:	0f be 3c 08          	movsbl (%rax,%rcx,1),%edi
  4023bc:	e8 8f 7f 00 00       	call   40a350 <ft_iswhitespace>
  4023c1:	83 f8 00             	cmp    $0x0,%eax
  4023c4:	0f 84 4d 00 00 00    	je     402417 <get_next_token+0x1e7>
  4023ca:	e9 00 00 00 00       	jmp    4023cf <get_next_token+0x19f>
  4023cf:	48 8b 45 e8          	mov    -0x18(%rbp),%rax
  4023d3:	48 8b 40 20          	mov    0x20(%rax),%rax
  4023d7:	48 8b 4d e8          	mov    -0x18(%rbp),%rcx
  4023db:	48 63 49 18          	movslq 0x18(%rcx),%rcx
  4023df:	0f be 3c 08          	movsbl (%rax,%rcx,1),%edi
  4023e3:	e8 68 7f 00 00       	call   40a350 <ft_iswhitespace>
  4023e8:	83 f8 00             	cmp    $0x0,%eax
  4023eb:	0f 84 12 00 00 00    	je     402403 <get_next_token+0x1d3>
  4023f1:	48 8b 45 e8          	mov    -0x18(%rbp),%rax
  4023f5:	8b 48 18             	mov    0x18(%rax),%ecx
  4023f8:	83 c1 01             	add    $0x1,%ecx
  4023fb:	89 48 18             	mov    %ecx,0x18(%rax)
  4023fe:	e9 cc ff ff ff       	jmp    4023cf <get_next_token+0x19f>
  402403:	c7 45 f0 00 00 00 00 	movl   $0x0,-0x10(%rbp)
  40240a:	48 c7 45 f8 00 00 00 	movq   $0x0,-0x8(%rbp)
  402411:	00 
  402412:	e9 91 00 00 00       	jmp    4024a8 <get_next_token+0x278>
  402417:	48 8b 45 e8          	mov    -0x18(%rbp),%rax
  40241b:	48 8b 78 20          	mov    0x20(%rax),%rdi
  40241f:	48 8b 45 e8          	mov    -0x18(%rbp),%rax
  402423:	48 63 40 18          	movslq 0x18(%rax),%rax
  402427:	48 01 c7             	add    %rax,%rdi
  40242a:	48 be 5a c1 40 00 00 	movabs $0x40c15a,%rsi
  402431:	00 00 00 
  402434:	ba 06 00 00 00       	mov    $0x6,%edx
  402439:	e8 c2 83 00 00       	call   40a800 <ft_strncmp>
  40243e:	83 f8 00             	cmp    $0x0,%eax
  402441:	0f 85 4d 00 00 00    	jne    402494 <get_next_token+0x264>
  402447:	48 8b 45 e8          	mov    -0x18(%rbp),%rax
  40244b:	48 8b 40 20          	mov    0x20(%rax),%rax
  40244f:	48 8b 4d e8          	mov    -0x18(%rbp),%rcx
  402453:	8b 49 18             	mov    0x18(%rcx),%ecx
  402456:	83 c1 06             	add    $0x6,%ecx
  402459:	48 63 c9             	movslq %ecx,%rcx
  40245c:	0f be 3c 08          	movsbl (%rax,%rcx,1),%edi
  402460:	e8 2b fc ff ff       	call   402090 <starts_next_token>
  402465:	83 f8 00             	cmp    $0x0,%eax
  402468:	0f 84 26 00 00 00    	je     402494 <get_next_token+0x264>
  40246e:	48 8b 45 e8          	mov    -0x18(%rbp),%rax
  402472:	8b 48 18             	mov    0x18(%rax),%ecx
  402475:	83 c1 06             	add    $0x6,%ecx
  402478:	89 48 18             	mov    %ecx,0x18(%rax)
  40247b:	c7 45 f0 0a 00 00 00 	movl   $0xa,-0x10(%rbp)
  402482:	48 8b 7d e8          	mov    -0x18(%rbp),%rdi
  402486:	e8 35 00 00 00       	call   4024c0 <alloc_exp>
  40248b:	48 89 45 f8          	mov    %rax,-0x8(%rbp)
  40248f:	e9 14 00 00 00       	jmp    4024a8 <get_next_token+0x278>
  402494:	c7 45 f0 01 00 00 00 	movl   $0x1,-0x10(%rbp)
  40249b:	48 8b 7d e8          	mov    -0x18(%rbp),%rdi
  40249f:	e8 6c fc ff ff       	call   402110 <parse_word>
  4024a4:	48 89 45 f8          	mov    %rax,-0x8(%rbp)
  4024a8:	8b 45 f0             	mov    -0x10(%rbp),%eax
  4024ab:	48 8b 55 f8          	mov    -0x8(%rbp),%rdx
  4024af:	48 83 c4 20          	add    $0x20,%rsp
  4024b3:	5d                   	pop    %rbp
  4024b4:	c3                   	ret    
  4024b5:	66 2e 0f 1f 84 00 00 	cs nopw 0x0(%rax,%rax,1)
  4024bc:	00 00 00 
  4024bf:	90                   	nop

00000000004024c0 <alloc_exp>:
  4024c0:	55                   	push   %rbp
  4024c1:	48 89 e5             	mov    %rsp,%rbp
  4024c4:	48 83 ec 20          	sub    $0x20,%rsp
  4024c8:	48 89 7d f8          	mov    %rdi,-0x8(%rbp)
  4024cc:	48 b8 5a c1 40 00 00 	movabs $0x40c15a,%rax
  4024d3:	00 00 00 
  4024d6:	48 89 45 f0          	mov    %rax,-0x10(%rbp)
  4024da:	48 8b 7d f0          	mov    -0x10(%rbp),%rdi
  4024de:	e8 cd 7e 00 00       	call   40a3b0 <ft_strlen>
  4024e3:	89 45 e4             	mov    %eax,-0x1c(%rbp)
  4024e6:	8b 45 e4             	mov    -0x1c(%rbp),%eax
  4024e9:	83 c0 01             	add    $0x1,%eax
  4024ec:	48 63 f8             	movslq %eax,%rdi
  4024ef:	48 c1 e7 00          	shl    $0x0,%rdi
  4024f3:	e8 38 ec ff ff       	call   401130 <malloc@plt>
  4024f8:	48 89 45 e8          	mov    %rax,-0x18(%rbp)
  4024fc:	48 83 7d e8 00       	cmpq   $0x0,-0x18(%rbp)
  402501:	0f 85 1c 00 00 00    	jne    402523 <alloc_exp+0x63>
  402507:	48 8b 7d f8          	mov    -0x8(%rbp),%rdi
  40250b:	48 be 61 c1 40 00 00 	movabs $0x40c161,%rsi
  402512:	00 00 00 
  402515:	31 c0                	xor    %eax,%eax
  402517:	89 c2                	mov    %eax,%edx
  402519:	b9 ff 00 00 00       	mov    $0xff,%ecx
  40251e:	e8 dd 55 00 00       	call   407b00 <snuff_it>
  402523:	48 8b 7d f8          	mov    -0x8(%rbp),%rdi
  402527:	48 8b 75 e8          	mov    -0x18(%rbp),%rsi
  40252b:	e8 60 73 00 00       	call   409890 <add_string_to_thrash_list>
  402530:	48 8b 7d e8          	mov    -0x18(%rbp),%rdi
  402534:	48 8b 75 f0          	mov    -0x10(%rbp),%rsi
  402538:	8b 55 e4             	mov    -0x1c(%rbp),%edx
  40253b:	83 c2 01             	add    $0x1,%edx
  40253e:	e8 fd 2f 00 00       	call   405540 <ft_strlcpy>
  402543:	48 8b 45 e8          	mov    -0x18(%rbp),%rax
  402547:	48 83 c4 20          	add    $0x20,%rsp
  40254b:	5d                   	pop    %rbp
  40254c:	c3                   	ret    
  40254d:	0f 1f 00             	nopl   (%rax)

0000000000402550 <is_separating>:
  402550:	55                   	push   %rbp
  402551:	48 89 e5             	mov    %rsp,%rbp
  402554:	89 7d f8             	mov    %edi,-0x8(%rbp)
  402557:	83 7d f8 00          	cmpl   $0x0,-0x8(%rbp)
  40255b:	0f 84 3c 00 00 00    	je     40259d <is_separating+0x4d>
  402561:	83 7d f8 05          	cmpl   $0x5,-0x8(%rbp)
  402565:	0f 84 32 00 00 00    	je     40259d <is_separating+0x4d>
  40256b:	83 7d f8 06          	cmpl   $0x6,-0x8(%rbp)
  40256f:	0f 84 28 00 00 00    	je     40259d <is_separating+0x4d>
  402575:	83 7d f8 07          	cmpl   $0x7,-0x8(%rbp)
  402579:	0f 84 1e 00 00 00    	je     40259d <is_separating+0x4d>
  40257f:	83 7d f8 08          	cmpl   $0x8,-0x8(%rbp)
  402583:	0f 84 14 00 00 00    	je     40259d <is_separating+0x4d>
  402589:	83 7d f8 09          	cmpl   $0x9,-0x8(%rbp)
  40258d:	0f 84 0a 00 00 00    	je     40259d <is_separating+0x4d>
  402593:	83 7d f8 0c          	cmpl   $0xc,-0x8(%rbp)
  402597:	0f 85 0c 00 00 00    	jne    4025a9 <is_separating+0x59>
  40259d:	c7 45 fc 01 00 00 00 	movl   $0x1,-0x4(%rbp)
  4025a4:	e9 07 00 00 00       	jmp    4025b0 <is_separating+0x60>
  4025a9:	c7 45 fc 00 00 00 00 	movl   $0x0,-0x4(%rbp)
  4025b0:	8b 45 fc             	mov    -0x4(%rbp),%eax
  4025b3:	5d                   	pop    %rbp
  4025b4:	c3                   	ret    
  4025b5:	66 2e 0f 1f 84 00 00 	cs nopw 0x0(%rax,%rax,1)
  4025bc:	00 00 00 
  4025bf:	90                   	nop

00000000004025c0 <is_redirecting>:
  4025c0:	55                   	push   %rbp
  4025c1:	48 89 e5             	mov    %rsp,%rbp
  4025c4:	89 7d f8             	mov    %edi,-0x8(%rbp)
  4025c7:	83 7d f8 06          	cmpl   $0x6,-0x8(%rbp)
  4025cb:	0f 84 1e 00 00 00    	je     4025ef <is_redirecting+0x2f>
  4025d1:	83 7d f8 07          	cmpl   $0x7,-0x8(%rbp)
  4025d5:	0f 84 14 00 00 00    	je     4025ef <is_redirecting+0x2f>
  4025db:	83 7d f8 08          	cmpl   $0x8,-0x8(%rbp)
  4025df:	0f 84 0a 00 00 00    	je     4025ef <is_redirecting+0x2f>
  4025e5:	83 7d f8 09          	cmpl   $0x9,-0x8(%rbp)
  4025e9:	0f 85 0c 00 00 00    	jne    4025fb <is_redirecting+0x3b>
  4025ef:	c7 45 fc 01 00 00 00 	movl   $0x1,-0x4(%rbp)
  4025f6:	e9 07 00 00 00       	jmp    402602 <is_redirecting+0x42>
  4025fb:	c7 45 fc 00 00 00 00 	movl   $0x0,-0x4(%rbp)
  402602:	8b 45 fc             	mov    -0x4(%rbp),%eax
  402605:	5d                   	pop    %rbp
  402606:	c3                   	ret    
  402607:	66 0f 1f 84 00 00 00 	nopw   0x0(%rax,%rax,1)
  40260e:	00 00 

0000000000402610 <is_substantive>:
  402610:	55                   	push   %rbp
  402611:	48 89 e5             	mov    %rsp,%rbp
  402614:	89 7d f8             	mov    %edi,-0x8(%rbp)
  402617:	83 7d f8 01          	cmpl   $0x1,-0x8(%rbp)
  40261b:	0f 84 32 00 00 00    	je     402653 <is_substantive+0x43>
  402621:	83 7d f8 02          	cmpl   $0x2,-0x8(%rbp)
  402625:	0f 84 28 00 00 00    	je     402653 <is_substantive+0x43>
  40262b:	83 7d f8 03          	cmpl   $0x3,-0x8(%rbp)
  40262f:	0f 84 1e 00 00 00    	je     402653 <is_substantive+0x43>
  402635:	83 7d f8 04          	cmpl   $0x4,-0x8(%rbp)
  402639:	0f 84 14 00 00 00    	je     402653 <is_substantive+0x43>
  40263f:	83 7d f8 0b          	cmpl   $0xb,-0x8(%rbp)
  402643:	0f 84 0a 00 00 00    	je     402653 <is_substantive+0x43>
  402649:	83 7d f8 0a          	cmpl   $0xa,-0x8(%rbp)
  40264d:	0f 85 0c 00 00 00    	jne    40265f <is_substantive+0x4f>
  402653:	c7 45 fc 01 00 00 00 	movl   $0x1,-0x4(%rbp)
  40265a:	e9 07 00 00 00       	jmp    402666 <is_substantive+0x56>
  40265f:	c7 45 fc 00 00 00 00 	movl   $0x0,-0x4(%rbp)
  402666:	8b 45 fc             	mov    -0x4(%rbp),%eax
  402669:	5d                   	pop    %rbp
  40266a:	c3                   	ret    
  40266b:	0f 1f 44 00 00       	nopl   0x0(%rax,%rax,1)

0000000000402670 <parse_in_redirections>:
  402670:	55                   	push   %rbp
  402671:	48 89 e5             	mov    %rsp,%rbp
  402674:	48 83 ec 30          	sub    $0x30,%rsp
  402678:	48 89 7d e8          	mov    %rdi,-0x18(%rbp)
  40267c:	48 8b 45 e8          	mov    -0x18(%rbp),%rax
  402680:	8b 48 18             	mov    0x18(%rax),%ecx
  402683:	83 c1 01             	add    $0x1,%ecx
  402686:	89 48 18             	mov    %ecx,0x18(%rax)
  402689:	48 8b 45 e8          	mov    -0x18(%rbp),%rax
  40268d:	48 8b 40 20          	mov    0x20(%rax),%rax
  402691:	48 8b 4d e8          	mov    -0x18(%rbp),%rcx
  402695:	48 63 49 18          	movslq 0x18(%rcx),%rcx
  402699:	0f be 04 08          	movsbl (%rax,%rcx,1),%eax
  40269d:	83 f8 3c             	cmp    $0x3c,%eax
  4026a0:	0f 85 62 00 00 00    	jne    402708 <parse_in_redirections+0x98>
  4026a6:	48 8b 45 e8          	mov    -0x18(%rbp),%rax
  4026aa:	8b 48 18             	mov    0x18(%rax),%ecx
  4026ad:	83 c1 01             	add    $0x1,%ecx
  4026b0:	89 48 18             	mov    %ecx,0x18(%rax)
  4026b3:	48 8b 45 e8          	mov    -0x18(%rbp),%rax
  4026b7:	48 8b 40 20          	mov    0x20(%rax),%rax
  4026bb:	48 8b 4d e8          	mov    -0x18(%rbp),%rcx
  4026bf:	48 63 49 18          	movslq 0x18(%rcx),%rcx
  4026c3:	0f be 3c 08          	movsbl (%rax,%rcx,1),%edi
  4026c7:	e8 84 7c 00 00       	call   40a350 <ft_iswhitespace>
  4026cc:	83 f8 00             	cmp    $0x0,%eax
  4026cf:	0f 84 12 00 00 00    	je     4026e7 <parse_in_redirections+0x77>
  4026d5:	48 8b 45 e8          	mov    -0x18(%rbp),%rax
  4026d9:	8b 48 18             	mov    0x18(%rax),%ecx
  4026dc:	83 c1 01             	add    $0x1,%ecx
  4026df:	89 48 18             	mov    %ecx,0x18(%rax)
  4026e2:	e9 cc ff ff ff       	jmp    4026b3 <parse_in_redirections+0x43>
  4026e7:	48 8b 7d e8          	mov    -0x18(%rbp),%rdi
  4026eb:	e8 d0 03 00 00       	call   402ac0 <parse_delimiter>
  4026f0:	48 89 45 e0          	mov    %rax,-0x20(%rbp)
  4026f4:	c7 45 f0 09 00 00 00 	movl   $0x9,-0x10(%rbp)
  4026fb:	48 8b 45 e0          	mov    -0x20(%rbp),%rax
  4026ff:	48 89 45 f8          	mov    %rax,-0x8(%rbp)
  402703:	e9 55 00 00 00       	jmp    40275d <parse_in_redirections+0xed>
  402708:	e9 00 00 00 00       	jmp    40270d <parse_in_redirections+0x9d>
  40270d:	48 8b 45 e8          	mov    -0x18(%rbp),%rax
  402711:	48 8b 40 20          	mov    0x20(%rax),%rax
  402715:	48 8b 4d e8          	mov    -0x18(%rbp),%rcx
  402719:	48 63 49 18          	movslq 0x18(%rcx),%rcx
  40271d:	0f be 3c 08          	movsbl (%rax,%rcx,1),%edi
  402721:	e8 2a 7c 00 00       	call   40a350 <ft_iswhitespace>
  402726:	83 f8 00             	cmp    $0x0,%eax
  402729:	0f 84 12 00 00 00    	je     402741 <parse_in_redirections+0xd1>
  40272f:	48 8b 45 e8          	mov    -0x18(%rbp),%rax
  402733:	8b 48 18             	mov    0x18(%rax),%ecx
  402736:	83 c1 01             	add    $0x1,%ecx
  402739:	89 48 18             	mov    %ecx,0x18(%rax)
  40273c:	e9 cc ff ff ff       	jmp    40270d <parse_in_redirections+0x9d>
  402741:	48 8b 7d e8          	mov    -0x18(%rbp),%rdi
  402745:	e8 26 00 00 00       	call   402770 <parse_filename>
  40274a:	48 89 45 d8          	mov    %rax,-0x28(%rbp)
  40274e:	c7 45 f0 06 00 00 00 	movl   $0x6,-0x10(%rbp)
  402755:	48 8b 45 d8          	mov    -0x28(%rbp),%rax
  402759:	48 89 45 f8          	mov    %rax,-0x8(%rbp)
  40275d:	8b 45 f0             	mov    -0x10(%rbp),%eax
  402760:	48 8b 55 f8          	mov    -0x8(%rbp),%rdx
  402764:	48 83 c4 30          	add    $0x30,%rsp
  402768:	5d                   	pop    %rbp
  402769:	c3                   	ret    
  40276a:	66 0f 1f 44 00 00    	nopw   0x0(%rax,%rax,1)

0000000000402770 <parse_filename>:
  402770:	55                   	push   %rbp
  402771:	48 89 e5             	mov    %rsp,%rbp
  402774:	48 83 ec 30          	sub    $0x30,%rsp
  402778:	48 89 7d f0          	mov    %rdi,-0x10(%rbp)
  40277c:	48 8b 45 f0          	mov    -0x10(%rbp),%rax
  402780:	8b 40 18             	mov    0x18(%rax),%eax
  402783:	89 45 ec             	mov    %eax,-0x14(%rbp)
  402786:	48 8b 45 f0          	mov    -0x10(%rbp),%rax
  40278a:	8b 40 18             	mov    0x18(%rax),%eax
  40278d:	48 8b 4d f0          	mov    -0x10(%rbp),%rcx
  402791:	3b 41 28             	cmp    0x28(%rcx),%eax
  402794:	0f 8d 9e 00 00 00    	jge    402838 <parse_filename+0xc8>
  40279a:	48 8b 45 f0          	mov    -0x10(%rbp),%rax
  40279e:	48 8b 40 20          	mov    0x20(%rax),%rax
  4027a2:	48 8b 4d f0          	mov    -0x10(%rbp),%rcx
  4027a6:	48 63 49 18          	movslq 0x18(%rcx),%rcx
  4027aa:	0f be 04 08          	movsbl (%rax,%rcx,1),%eax
  4027ae:	83 f8 0a             	cmp    $0xa,%eax
  4027b1:	0f 84 74 00 00 00    	je     40282b <parse_filename+0xbb>
  4027b7:	48 8b 45 f0          	mov    -0x10(%rbp),%rax
  4027bb:	48 8b 40 20          	mov    0x20(%rax),%rax
  4027bf:	48 8b 4d f0          	mov    -0x10(%rbp),%rcx
  4027c3:	48 63 49 18          	movslq 0x18(%rcx),%rcx
  4027c7:	0f be 04 08          	movsbl (%rax,%rcx,1),%eax
  4027cb:	83 f8 00             	cmp    $0x0,%eax
  4027ce:	0f 84 57 00 00 00    	je     40282b <parse_filename+0xbb>
  4027d4:	48 8b 45 f0          	mov    -0x10(%rbp),%rax
  4027d8:	48 8b 40 20          	mov    0x20(%rax),%rax
  4027dc:	48 8b 4d f0          	mov    -0x10(%rbp),%rcx
  4027e0:	48 63 49 18          	movslq 0x18(%rcx),%rcx
  4027e4:	0f be 04 08          	movsbl (%rax,%rcx,1),%eax
  4027e8:	83 f8 7c             	cmp    $0x7c,%eax
  4027eb:	0f 84 3a 00 00 00    	je     40282b <parse_filename+0xbb>
  4027f1:	48 8b 45 f0          	mov    -0x10(%rbp),%rax
  4027f5:	48 8b 40 20          	mov    0x20(%rax),%rax
  4027f9:	48 8b 4d f0          	mov    -0x10(%rbp),%rcx
  4027fd:	48 63 49 18          	movslq 0x18(%rcx),%rcx
  402801:	0f be 04 08          	movsbl (%rax,%rcx,1),%eax
  402805:	83 f8 3c             	cmp    $0x3c,%eax
  402808:	0f 84 1d 00 00 00    	je     40282b <parse_filename+0xbb>
  40280e:	48 8b 45 f0          	mov    -0x10(%rbp),%rax
  402812:	48 8b 40 20          	mov    0x20(%rax),%rax
  402816:	48 8b 4d f0          	mov    -0x10(%rbp),%rcx
  40281a:	48 63 49 18          	movslq 0x18(%rcx),%rcx
  40281e:	0f be 04 08          	movsbl (%rax,%rcx,1),%eax
  402822:	83 f8 3e             	cmp    $0x3e,%eax
  402825:	0f 85 0d 00 00 00    	jne    402838 <parse_filename+0xc8>
  40282b:	48 c7 45 f8 00 00 00 	movq   $0x0,-0x8(%rbp)
  402832:	00 
  402833:	e9 6f 01 00 00       	jmp    4029a7 <parse_filename+0x237>
  402838:	e9 00 00 00 00       	jmp    40283d <parse_filename+0xcd>
  40283d:	48 8b 45 f0          	mov    -0x10(%rbp),%rax
  402841:	8b 48 18             	mov    0x18(%rax),%ecx
  402844:	48 8b 55 f0          	mov    -0x10(%rbp),%rdx
  402848:	31 c0                	xor    %eax,%eax
  40284a:	3b 4a 28             	cmp    0x28(%rdx),%ecx
  40284d:	88 45 df             	mov    %al,-0x21(%rbp)
  402850:	0f 8d a5 00 00 00    	jge    4028fb <parse_filename+0x18b>
  402856:	48 8b 45 f0          	mov    -0x10(%rbp),%rax
  40285a:	48 8b 40 20          	mov    0x20(%rax),%rax
  40285e:	48 8b 4d f0          	mov    -0x10(%rbp),%rcx
  402862:	48 63 49 18          	movslq 0x18(%rcx),%rcx
  402866:	0f be 0c 08          	movsbl (%rax,%rcx,1),%ecx
  40286a:	31 c0                	xor    %eax,%eax
  40286c:	83 f9 20             	cmp    $0x20,%ecx
  40286f:	88 45 df             	mov    %al,-0x21(%rbp)
  402872:	0f 84 83 00 00 00    	je     4028fb <parse_filename+0x18b>
  402878:	48 8b 45 f0          	mov    -0x10(%rbp),%rax
  40287c:	48 8b 40 20          	mov    0x20(%rax),%rax
  402880:	48 8b 4d f0          	mov    -0x10(%rbp),%rcx
  402884:	48 63 49 18          	movslq 0x18(%rcx),%rcx
  402888:	0f be 0c 08          	movsbl (%rax,%rcx,1),%ecx
  40288c:	31 c0                	xor    %eax,%eax
  40288e:	83 f9 00             	cmp    $0x0,%ecx
  402891:	88 45 df             	mov    %al,-0x21(%rbp)
  402894:	0f 84 61 00 00 00    	je     4028fb <parse_filename+0x18b>
  40289a:	48 8b 45 f0          	mov    -0x10(%rbp),%rax
  40289e:	48 8b 40 20          	mov    0x20(%rax),%rax
  4028a2:	48 8b 4d f0          	mov    -0x10(%rbp),%rcx
  4028a6:	48 63 49 18          	movslq 0x18(%rcx),%rcx
  4028aa:	0f be 0c 08          	movsbl (%rax,%rcx,1),%ecx
  4028ae:	31 c0                	xor    %eax,%eax
  4028b0:	83 f9 7c             	cmp    $0x7c,%ecx
  4028b3:	88 45 df             	mov    %al,-0x21(%rbp)
  4028b6:	0f 84 3f 00 00 00    	je     4028fb <parse_filename+0x18b>
  4028bc:	48 8b 45 f0          	mov    -0x10(%rbp),%rax
  4028c0:	48 8b 40 20          	mov    0x20(%rax),%rax
  4028c4:	48 8b 4d f0          	mov    -0x10(%rbp),%rcx
  4028c8:	48 63 49 18          	movslq 0x18(%rcx),%rcx
  4028cc:	0f be 0c 08          	movsbl (%rax,%rcx,1),%ecx
  4028d0:	31 c0                	xor    %eax,%eax
  4028d2:	83 f9 3c             	cmp    $0x3c,%ecx
  4028d5:	88 45 df             	mov    %al,-0x21(%rbp)
  4028d8:	0f 84 1d 00 00 00    	je     4028fb <parse_filename+0x18b>
  4028de:	48 8b 45 f0          	mov    -0x10(%rbp),%rax
  4028e2:	48 8b 40 20          	mov    0x20(%rax),%rax
  4028e6:	48 8b 4d f0          	mov    -0x10(%rbp),%rcx
  4028ea:	48 63 49 18          	movslq 0x18(%rcx),%rcx
  4028ee:	0f be 04 08          	movsbl (%rax,%rcx,1),%eax
  4028f2:	83 f8 3e             	cmp    $0x3e,%eax
  4028f5:	0f 95 c0             	setne  %al
  4028f8:	88 45 df             	mov    %al,-0x21(%rbp)
  4028fb:	8a 45 df             	mov    -0x21(%rbp),%al
  4028fe:	a8 01                	test   $0x1,%al
  402900:	0f 85 05 00 00 00    	jne    40290b <parse_filename+0x19b>
  402906:	e9 12 00 00 00       	jmp    40291d <parse_filename+0x1ad>
  40290b:	48 8b 45 f0          	mov    -0x10(%rbp),%rax
  40290f:	8b 48 18             	mov    0x18(%rax),%ecx
  402912:	83 c1 01             	add    $0x1,%ecx
  402915:	89 48 18             	mov    %ecx,0x18(%rax)
  402918:	e9 20 ff ff ff       	jmp    40283d <parse_filename+0xcd>
  40291d:	48 8b 45 f0          	mov    -0x10(%rbp),%rax
  402921:	8b 40 18             	mov    0x18(%rax),%eax
  402924:	2b 45 ec             	sub    -0x14(%rbp),%eax
  402927:	89 45 e8             	mov    %eax,-0x18(%rbp)
  40292a:	8b 45 e8             	mov    -0x18(%rbp),%eax
  40292d:	83 c0 01             	add    $0x1,%eax
  402930:	48 63 f8             	movslq %eax,%rdi
  402933:	48 c1 e7 00          	shl    $0x0,%rdi
  402937:	e8 f4 e7 ff ff       	call   401130 <malloc@plt>
  40293c:	48 89 45 e0          	mov    %rax,-0x20(%rbp)
  402940:	48 83 7d e0 00       	cmpq   $0x0,-0x20(%rbp)
  402945:	0f 85 1c 00 00 00    	jne    402967 <parse_filename+0x1f7>
  40294b:	48 8b 7d f0          	mov    -0x10(%rbp),%rdi
  40294f:	48 be 85 c1 40 00 00 	movabs $0x40c185,%rsi
  402956:	00 00 00 
  402959:	31 c0                	xor    %eax,%eax
  40295b:	89 c2                	mov    %eax,%edx
  40295d:	b9 ff 00 00 00       	mov    $0xff,%ecx
  402962:	e8 99 51 00 00       	call   407b00 <snuff_it>
  402967:	48 8b 7d e0          	mov    -0x20(%rbp),%rdi
  40296b:	48 8b 45 f0          	mov    -0x10(%rbp),%rax
  40296f:	48 8b 70 20          	mov    0x20(%rax),%rsi
  402973:	48 63 45 ec          	movslq -0x14(%rbp),%rax
  402977:	48 01 c6             	add    %rax,%rsi
  40297a:	8b 55 e8             	mov    -0x18(%rbp),%edx
  40297d:	83 c2 01             	add    $0x1,%edx
  402980:	e8 bb 2b 00 00       	call   405540 <ft_strlcpy>
  402985:	48 8b 7d f0          	mov    -0x10(%rbp),%rdi
  402989:	48 8d 75 e0          	lea    -0x20(%rbp),%rsi
  40298d:	e8 6e 0f 00 00       	call   403900 <process_vars_and_quotes>
  402992:	48 8b 7d f0          	mov    -0x10(%rbp),%rdi
  402996:	48 8b 75 e0          	mov    -0x20(%rbp),%rsi
  40299a:	e8 f1 6e 00 00       	call   409890 <add_string_to_thrash_list>
  40299f:	48 8b 45 e0          	mov    -0x20(%rbp),%rax
  4029a3:	48 89 45 f8          	mov    %rax,-0x8(%rbp)
  4029a7:	48 8b 45 f8          	mov    -0x8(%rbp),%rax
  4029ab:	48 83 c4 30          	add    $0x30,%rsp
  4029af:	5d                   	pop    %rbp
  4029b0:	c3                   	ret    
  4029b1:	66 2e 0f 1f 84 00 00 	cs nopw 0x0(%rax,%rax,1)
  4029b8:	00 00 00 
  4029bb:	0f 1f 44 00 00       	nopl   0x0(%rax,%rax,1)

00000000004029c0 <parse_out_redirections>:
  4029c0:	55                   	push   %rbp
  4029c1:	48 89 e5             	mov    %rsp,%rbp
  4029c4:	48 83 ec 20          	sub    $0x20,%rsp
  4029c8:	48 89 7d e8          	mov    %rdi,-0x18(%rbp)
  4029cc:	48 8b 45 e8          	mov    -0x18(%rbp),%rax
  4029d0:	8b 48 18             	mov    0x18(%rax),%ecx
  4029d3:	83 c1 01             	add    $0x1,%ecx
  4029d6:	89 48 18             	mov    %ecx,0x18(%rax)
  4029d9:	48 8b 45 e8          	mov    -0x18(%rbp),%rax
  4029dd:	48 8b 40 20          	mov    0x20(%rax),%rax
  4029e1:	48 8b 4d e8          	mov    -0x18(%rbp),%rcx
  4029e5:	48 63 49 18          	movslq 0x18(%rcx),%rcx
  4029e9:	0f be 04 08          	movsbl (%rax,%rcx,1),%eax
  4029ed:	83 f8 3e             	cmp    $0x3e,%eax
  4029f0:	0f 85 62 00 00 00    	jne    402a58 <parse_out_redirections+0x98>
  4029f6:	48 8b 45 e8          	mov    -0x18(%rbp),%rax
  4029fa:	8b 48 18             	mov    0x18(%rax),%ecx
  4029fd:	83 c1 01             	add    $0x1,%ecx
  402a00:	89 48 18             	mov    %ecx,0x18(%rax)
  402a03:	48 8b 45 e8          	mov    -0x18(%rbp),%rax
  402a07:	48 8b 40 20          	mov    0x20(%rax),%rax
  402a0b:	48 8b 4d e8          	mov    -0x18(%rbp),%rcx
  402a0f:	48 63 49 18          	movslq 0x18(%rcx),%rcx
  402a13:	0f be 3c 08          	movsbl (%rax,%rcx,1),%edi
  402a17:	e8 34 79 00 00       	call   40a350 <ft_iswhitespace>
  402a1c:	83 f8 00             	cmp    $0x0,%eax
  402a1f:	0f 84 12 00 00 00    	je     402a37 <parse_out_redirections+0x77>
  402a25:	48 8b 45 e8          	mov    -0x18(%rbp),%rax
  402a29:	8b 48 18             	mov    0x18(%rax),%ecx
  402a2c:	83 c1 01             	add    $0x1,%ecx
  402a2f:	89 48 18             	mov    %ecx,0x18(%rax)
  402a32:	e9 cc ff ff ff       	jmp    402a03 <parse_out_redirections+0x43>
  402a37:	48 8b 7d e8          	mov    -0x18(%rbp),%rdi
  402a3b:	e8 30 fd ff ff       	call   402770 <parse_filename>
  402a40:	48 89 45 e0          	mov    %rax,-0x20(%rbp)
  402a44:	c7 45 f0 08 00 00 00 	movl   $0x8,-0x10(%rbp)
  402a4b:	48 8b 45 e0          	mov    -0x20(%rbp),%rax
  402a4f:	48 89 45 f8          	mov    %rax,-0x8(%rbp)
  402a53:	e9 55 00 00 00       	jmp    402aad <parse_out_redirections+0xed>
  402a58:	e9 00 00 00 00       	jmp    402a5d <parse_out_redirections+0x9d>
  402a5d:	48 8b 45 e8          	mov    -0x18(%rbp),%rax
  402a61:	48 8b 40 20          	mov    0x20(%rax),%rax
  402a65:	48 8b 4d e8          	mov    -0x18(%rbp),%rcx
  402a69:	48 63 49 18          	movslq 0x18(%rcx),%rcx
  402a6d:	0f be 3c 08          	movsbl (%rax,%rcx,1),%edi
  402a71:	e8 da 78 00 00       	call   40a350 <ft_iswhitespace>
  402a76:	83 f8 00             	cmp    $0x0,%eax
  402a79:	0f 84 12 00 00 00    	je     402a91 <parse_out_redirections+0xd1>
  402a7f:	48 8b 45 e8          	mov    -0x18(%rbp),%rax
  402a83:	8b 48 18             	mov    0x18(%rax),%ecx
  402a86:	83 c1 01             	add    $0x1,%ecx
  402a89:	89 48 18             	mov    %ecx,0x18(%rax)
  402a8c:	e9 cc ff ff ff       	jmp    402a5d <parse_out_redirections+0x9d>
  402a91:	48 8b 7d e8          	mov    -0x18(%rbp),%rdi
  402a95:	e8 d6 fc ff ff       	call   402770 <parse_filename>
  402a9a:	48 89 45 e0          	mov    %rax,-0x20(%rbp)
  402a9e:	c7 45 f0 07 00 00 00 	movl   $0x7,-0x10(%rbp)
  402aa5:	48 8b 45 e0          	mov    -0x20(%rbp),%rax
  402aa9:	48 89 45 f8          	mov    %rax,-0x8(%rbp)
  402aad:	8b 45 f0             	mov    -0x10(%rbp),%eax
  402ab0:	48 8b 55 f8          	mov    -0x8(%rbp),%rdx
  402ab4:	48 83 c4 20          	add    $0x20,%rsp
  402ab8:	5d                   	pop    %rbp
  402ab9:	c3                   	ret    
  402aba:	66 0f 1f 44 00 00    	nopw   0x0(%rax,%rax,1)

0000000000402ac0 <parse_delimiter>:
  402ac0:	55                   	push   %rbp
  402ac1:	48 89 e5             	mov    %rsp,%rbp
  402ac4:	48 83 ec 30          	sub    $0x30,%rsp
  402ac8:	48 89 7d f8          	mov    %rdi,-0x8(%rbp)
  402acc:	48 c7 45 e8 00 00 00 	movq   $0x0,-0x18(%rbp)
  402ad3:	00 
  402ad4:	48 c7 45 e0 00 00 00 	movq   $0x0,-0x20(%rbp)
  402adb:	00 
  402adc:	48 8b 45 f8          	mov    -0x8(%rbp),%rax
  402ae0:	8b 40 18             	mov    0x18(%rax),%eax
  402ae3:	89 45 f4             	mov    %eax,-0xc(%rbp)
  402ae6:	48 bf d6 c1 40 00 00 	movabs $0x40c1d6,%rdi
  402aed:	00 00 00 
  402af0:	e8 4b 81 00 00       	call   40ac40 <ft_strdup>
  402af5:	48 89 45 e8          	mov    %rax,-0x18(%rbp)
  402af9:	48 83 7d e8 00       	cmpq   $0x0,-0x18(%rbp)
  402afe:	0f 85 1c 00 00 00    	jne    402b20 <parse_delimiter+0x60>
  402b04:	48 8b 7d f8          	mov    -0x8(%rbp),%rdi
  402b08:	48 be ab c1 40 00 00 	movabs $0x40c1ab,%rsi
  402b0f:	00 00 00 
  402b12:	31 c0                	xor    %eax,%eax
  402b14:	89 c2                	mov    %eax,%edx
  402b16:	b9 ff 00 00 00       	mov    $0xff,%ecx
  402b1b:	e8 e0 4f 00 00       	call   407b00 <snuff_it>
  402b20:	e9 00 00 00 00       	jmp    402b25 <parse_delimiter+0x65>
  402b25:	48 8b 45 f8          	mov    -0x8(%rbp),%rax
  402b29:	48 8b 40 20          	mov    0x20(%rax),%rax
  402b2d:	48 8b 4d f8          	mov    -0x8(%rbp),%rcx
  402b31:	48 63 49 18          	movslq 0x18(%rcx),%rcx
  402b35:	0f be 3c 08          	movsbl (%rax,%rcx,1),%edi
  402b39:	e8 12 78 00 00       	call   40a350 <ft_iswhitespace>
  402b3e:	83 f8 00             	cmp    $0x0,%eax
  402b41:	0f 84 12 00 00 00    	je     402b59 <parse_delimiter+0x99>
  402b47:	48 8b 45 f8          	mov    -0x8(%rbp),%rax
  402b4b:	8b 48 18             	mov    0x18(%rax),%ecx
  402b4e:	83 c1 01             	add    $0x1,%ecx
  402b51:	89 48 18             	mov    %ecx,0x18(%rax)
  402b54:	e9 cc ff ff ff       	jmp    402b25 <parse_delimiter+0x65>
  402b59:	e9 00 00 00 00       	jmp    402b5e <parse_delimiter+0x9e>
  402b5e:	48 8b 45 f8          	mov    -0x8(%rbp),%rax
  402b62:	48 8b 40 20          	mov    0x20(%rax),%rax
  402b66:	48 8b 4d f8          	mov    -0x8(%rbp),%rcx
  402b6a:	48 63 49 18          	movslq 0x18(%rcx),%rcx
  402b6e:	0f be 0c 08          	movsbl (%rax,%rcx,1),%ecx
  402b72:	31 c0                	xor    %eax,%eax
  402b74:	83 f9 00             	cmp    $0x0,%ecx
  402b77:	88 45 d7             	mov    %al,-0x29(%rbp)
  402b7a:	0f 84 2f 00 00 00    	je     402baf <parse_delimiter+0xef>
  402b80:	48 8b 45 f8          	mov    -0x8(%rbp),%rax
  402b84:	48 8b 40 20          	mov    0x20(%rax),%rax
  402b88:	48 8b 4d f8          	mov    -0x8(%rbp),%rcx
  402b8c:	48 63 49 18          	movslq 0x18(%rcx),%rcx
  402b90:	0f be 34 08          	movsbl (%rax,%rcx,1),%esi
  402b94:	48 bf d1 c1 40 00 00 	movabs $0x40c1d1,%rdi
  402b9b:	00 00 00 
  402b9e:	e8 4d 7a 00 00       	call   40a5f0 <ft_strchr>
  402ba3:	48 83 f8 00          	cmp    $0x0,%rax
  402ba7:	0f 95 c0             	setne  %al
  402baa:	34 ff                	xor    $0xff,%al
  402bac:	88 45 d7             	mov    %al,-0x29(%rbp)
  402baf:	8a 45 d7             	mov    -0x29(%rbp),%al
  402bb2:	a8 01                	test   $0x1,%al
  402bb4:	0f 85 05 00 00 00    	jne    402bbf <parse_delimiter+0xff>
  402bba:	e9 5b 00 00 00       	jmp    402c1a <parse_delimiter+0x15a>
  402bbf:	48 8b 7d f8          	mov    -0x8(%rbp),%rdi
  402bc3:	e8 78 00 00 00       	call   402c40 <parse_delimiter_inner>
  402bc8:	48 89 45 e0          	mov    %rax,-0x20(%rbp)
  402bcc:	48 8b 7d e8          	mov    -0x18(%rbp),%rdi
  402bd0:	48 8b 75 e0          	mov    -0x20(%rbp),%rsi
  402bd4:	e8 d7 83 00 00       	call   40afb0 <ft_strjoin>
  402bd9:	48 89 45 d8          	mov    %rax,-0x28(%rbp)
  402bdd:	48 83 7d d8 00       	cmpq   $0x0,-0x28(%rbp)
  402be2:	0f 85 1c 00 00 00    	jne    402c04 <parse_delimiter+0x144>
  402be8:	48 8b 7d f8          	mov    -0x8(%rbp),%rdi
  402bec:	48 be d7 c1 40 00 00 	movabs $0x40c1d7,%rsi
  402bf3:	00 00 00 
  402bf6:	31 c0                	xor    %eax,%eax
  402bf8:	89 c2                	mov    %eax,%edx
  402bfa:	b9 ff 00 00 00       	mov    $0xff,%ecx
  402bff:	e8 fc 4e 00 00       	call   407b00 <snuff_it>
  402c04:	48 8b 7d e8          	mov    -0x18(%rbp),%rdi
  402c08:	e8 23 e4 ff ff       	call   401030 <free@plt>
  402c0d:	48 8b 45 d8          	mov    -0x28(%rbp),%rax
  402c11:	48 89 45 e8          	mov    %rax,-0x18(%rbp)
  402c15:	e9 44 ff ff ff       	jmp    402b5e <parse_delimiter+0x9e>
  402c1a:	48 8b 7d f8          	mov    -0x8(%rbp),%rdi
  402c1e:	48 8b 75 e8          	mov    -0x18(%rbp),%rsi
  402c22:	e8 69 6c 00 00       	call   409890 <add_string_to_thrash_list>
  402c27:	48 8b 45 e8          	mov    -0x18(%rbp),%rax
  402c2b:	48 83 c4 30          	add    $0x30,%rsp
  402c2f:	5d                   	pop    %rbp
  402c30:	c3                   	ret    
  402c31:	66 2e 0f 1f 84 00 00 	cs nopw 0x0(%rax,%rax,1)
  402c38:	00 00 00 
  402c3b:	0f 1f 44 00 00       	nopl   0x0(%rax,%rax,1)

0000000000402c40 <parse_delimiter_inner>:
  402c40:	55                   	push   %rbp
  402c41:	48 89 e5             	mov    %rsp,%rbp
  402c44:	48 83 ec 10          	sub    $0x10,%rsp
  402c48:	48 89 7d f8          	mov    %rdi,-0x8(%rbp)
  402c4c:	48 c7 45 f0 00 00 00 	movq   $0x0,-0x10(%rbp)
  402c53:	00 
  402c54:	48 8b 45 f8          	mov    -0x8(%rbp),%rax
  402c58:	48 8b 40 20          	mov    0x20(%rax),%rax
  402c5c:	48 8b 4d f8          	mov    -0x8(%rbp),%rcx
  402c60:	48 63 49 18          	movslq 0x18(%rcx),%rcx
  402c64:	0f be 04 08          	movsbl (%rax,%rcx,1),%eax
  402c68:	83 f8 27             	cmp    $0x27,%eax
  402c6b:	0f 84 1d 00 00 00    	je     402c8e <parse_delimiter_inner+0x4e>
  402c71:	48 8b 45 f8          	mov    -0x8(%rbp),%rax
  402c75:	48 8b 40 20          	mov    0x20(%rax),%rax
  402c79:	48 8b 4d f8          	mov    -0x8(%rbp),%rcx
  402c7d:	48 63 49 18          	movslq 0x18(%rcx),%rcx
  402c81:	0f be 04 08          	movsbl (%rax,%rcx,1),%eax
  402c85:	83 f8 22             	cmp    $0x22,%eax
  402c88:	0f 85 0b 00 00 00    	jne    402c99 <parse_delimiter_inner+0x59>
  402c8e:	48 8b 45 f8          	mov    -0x8(%rbp),%rax
  402c92:	c7 40 64 01 00 00 00 	movl   $0x1,0x64(%rax)
  402c99:	48 8b 45 f8          	mov    -0x8(%rbp),%rax
  402c9d:	48 8b 40 20          	mov    0x20(%rax),%rax
  402ca1:	48 8b 4d f8          	mov    -0x8(%rbp),%rcx
  402ca5:	48 63 49 18          	movslq 0x18(%rcx),%rcx
  402ca9:	0f be 04 08          	movsbl (%rax,%rcx,1),%eax
  402cad:	83 f8 27             	cmp    $0x27,%eax
  402cb0:	0f 85 12 00 00 00    	jne    402cc8 <parse_delimiter_inner+0x88>
  402cb6:	48 8b 7d f8          	mov    -0x8(%rbp),%rdi
  402cba:	e8 71 01 00 00       	call   402e30 <parse_single_quotes_delimiter>
  402cbf:	48 89 45 f0          	mov    %rax,-0x10(%rbp)
  402cc3:	e9 56 01 00 00       	jmp    402e1e <parse_delimiter_inner+0x1de>
  402cc8:	48 8b 45 f8          	mov    -0x8(%rbp),%rax
  402ccc:	48 8b 40 20          	mov    0x20(%rax),%rax
  402cd0:	48 8b 4d f8          	mov    -0x8(%rbp),%rcx
  402cd4:	48 63 49 18          	movslq 0x18(%rcx),%rcx
  402cd8:	0f be 04 08          	movsbl (%rax,%rcx,1),%eax
  402cdc:	83 f8 22             	cmp    $0x22,%eax
  402cdf:	0f 85 12 00 00 00    	jne    402cf7 <parse_delimiter_inner+0xb7>
  402ce5:	48 8b 7d f8          	mov    -0x8(%rbp),%rdi
  402ce9:	e8 52 02 00 00       	call   402f40 <parse_double_quotes_delimiter>
  402cee:	48 89 45 f0          	mov    %rax,-0x10(%rbp)
  402cf2:	e9 22 01 00 00       	jmp    402e19 <parse_delimiter_inner+0x1d9>
  402cf7:	48 8b 45 f8          	mov    -0x8(%rbp),%rax
  402cfb:	48 8b 40 20          	mov    0x20(%rax),%rax
  402cff:	48 8b 4d f8          	mov    -0x8(%rbp),%rcx
  402d03:	48 63 49 18          	movslq 0x18(%rcx),%rcx
  402d07:	0f be 3c 08          	movsbl (%rax,%rcx,1),%edi
  402d0b:	e8 c0 75 00 00       	call   40a2d0 <ft_isalnum_or_>
  402d10:	83 f8 00             	cmp    $0x0,%eax
  402d13:	0f 84 12 00 00 00    	je     402d2b <parse_delimiter_inner+0xeb>
  402d19:	48 8b 7d f8          	mov    -0x8(%rbp),%rdi
  402d1d:	e8 ee f3 ff ff       	call   402110 <parse_word>
  402d22:	48 89 45 f0          	mov    %rax,-0x10(%rbp)
  402d26:	e9 e9 00 00 00       	jmp    402e14 <parse_delimiter_inner+0x1d4>
  402d2b:	48 8b 45 f8          	mov    -0x8(%rbp),%rax
  402d2f:	48 8b 40 20          	mov    0x20(%rax),%rax
  402d33:	48 8b 4d f8          	mov    -0x8(%rbp),%rcx
  402d37:	48 63 49 18          	movslq 0x18(%rcx),%rcx
  402d3b:	0f be 04 08          	movsbl (%rax,%rcx,1),%eax
  402d3f:	83 f8 24             	cmp    $0x24,%eax
  402d42:	0f 85 ab 00 00 00    	jne    402df3 <parse_delimiter_inner+0x1b3>
  402d48:	48 8b 45 f8          	mov    -0x8(%rbp),%rax
  402d4c:	8b 48 18             	mov    0x18(%rax),%ecx
  402d4f:	83 c1 01             	add    $0x1,%ecx
  402d52:	89 48 18             	mov    %ecx,0x18(%rax)
  402d55:	48 8b 45 f8          	mov    -0x8(%rbp),%rax
  402d59:	48 8b 40 20          	mov    0x20(%rax),%rax
  402d5d:	48 8b 4d f8          	mov    -0x8(%rbp),%rcx
  402d61:	48 63 49 18          	movslq 0x18(%rcx),%rcx
  402d65:	0f be 04 08          	movsbl (%rax,%rcx,1),%eax
  402d69:	83 f8 27             	cmp    $0x27,%eax
  402d6c:	0f 84 1d 00 00 00    	je     402d8f <parse_delimiter_inner+0x14f>
  402d72:	48 8b 45 f8          	mov    -0x8(%rbp),%rax
  402d76:	48 8b 40 20          	mov    0x20(%rax),%rax
  402d7a:	48 8b 4d f8          	mov    -0x8(%rbp),%rcx
  402d7e:	48 63 49 18          	movslq 0x18(%rcx),%rcx
  402d82:	0f be 04 08          	movsbl (%rax,%rcx,1),%eax
  402d86:	83 f8 22             	cmp    $0x22,%eax
  402d89:	0f 85 18 00 00 00    	jne    402da7 <parse_delimiter_inner+0x167>
  402d8f:	48 bf d6 c1 40 00 00 	movabs $0x40c1d6,%rdi
  402d96:	00 00 00 
  402d99:	e8 a2 7e 00 00       	call   40ac40 <ft_strdup>
  402d9e:	48 89 45 f0          	mov    %rax,-0x10(%rbp)
  402da2:	e9 13 00 00 00       	jmp    402dba <parse_delimiter_inner+0x17a>
  402da7:	48 bf 02 c2 40 00 00 	movabs $0x40c202,%rdi
  402dae:	00 00 00 
  402db1:	e8 8a 7e 00 00       	call   40ac40 <ft_strdup>
  402db6:	48 89 45 f0          	mov    %rax,-0x10(%rbp)
  402dba:	48 83 7d f0 00       	cmpq   $0x0,-0x10(%rbp)
  402dbf:	0f 85 1c 00 00 00    	jne    402de1 <parse_delimiter_inner+0x1a1>
  402dc5:	48 8b 7d f8          	mov    -0x8(%rbp),%rdi
  402dc9:	48 be 04 c2 40 00 00 	movabs $0x40c204,%rsi
  402dd0:	00 00 00 
  402dd3:	31 c0                	xor    %eax,%eax
  402dd5:	89 c2                	mov    %eax,%edx
  402dd7:	b9 ff 00 00 00       	mov    $0xff,%ecx
  402ddc:	e8 1f 4d 00 00       	call   407b00 <snuff_it>
  402de1:	48 8b 7d f8          	mov    -0x8(%rbp),%rdi
  402de5:	48 8b 75 f0          	mov    -0x10(%rbp),%rsi
  402de9:	e8 a2 6a 00 00       	call   409890 <add_string_to_thrash_list>
  402dee:	e9 1c 00 00 00       	jmp    402e0f <parse_delimiter_inner+0x1cf>
  402df3:	48 8b 7d f8          	mov    -0x8(%rbp),%rdi
  402df7:	48 be 24 c2 40 00 00 	movabs $0x40c224,%rsi
  402dfe:	00 00 00 
  402e01:	31 c0                	xor    %eax,%eax
  402e03:	89 c2                	mov    %eax,%edx
  402e05:	b9 02 00 00 00       	mov    $0x2,%ecx
  402e0a:	e8 f1 4c 00 00       	call   407b00 <snuff_it>
  402e0f:	e9 00 00 00 00       	jmp    402e14 <parse_delimiter_inner+0x1d4>
  402e14:	e9 00 00 00 00       	jmp    402e19 <parse_delimiter_inner+0x1d9>
  402e19:	e9 00 00 00 00       	jmp    402e1e <parse_delimiter_inner+0x1de>
  402e1e:	48 8b 45 f0          	mov    -0x10(%rbp),%rax
  402e22:	48 83 c4 10          	add    $0x10,%rsp
  402e26:	5d                   	pop    %rbp
  402e27:	c3                   	ret    
  402e28:	0f 1f 84 00 00 00 00 	nopl   0x0(%rax,%rax,1)
  402e2f:	00 

0000000000402e30 <parse_single_quotes_delimiter>:
  402e30:	55                   	push   %rbp
  402e31:	48 89 e5             	mov    %rsp,%rbp
  402e34:	48 83 ec 20          	sub    $0x20,%rsp
  402e38:	48 89 7d f8          	mov    %rdi,-0x8(%rbp)
  402e3c:	48 8b 45 f8          	mov    -0x8(%rbp),%rax
  402e40:	8b 48 18             	mov    0x18(%rax),%ecx
  402e43:	83 c1 01             	add    $0x1,%ecx
  402e46:	89 48 18             	mov    %ecx,0x18(%rax)
  402e49:	48 8b 45 f8          	mov    -0x8(%rbp),%rax
  402e4d:	8b 40 18             	mov    0x18(%rax),%eax
  402e50:	89 45 f4             	mov    %eax,-0xc(%rbp)
  402e53:	48 8b 45 f8          	mov    -0x8(%rbp),%rax
  402e57:	48 8b 40 20          	mov    0x20(%rax),%rax
  402e5b:	48 8b 4d f8          	mov    -0x8(%rbp),%rcx
  402e5f:	48 63 49 18          	movslq 0x18(%rcx),%rcx
  402e63:	0f be 0c 08          	movsbl (%rax,%rcx,1),%ecx
  402e67:	31 c0                	xor    %eax,%eax
  402e69:	83 f9 00             	cmp    $0x0,%ecx
  402e6c:	88 45 e7             	mov    %al,-0x19(%rbp)
  402e6f:	0f 84 1d 00 00 00    	je     402e92 <parse_single_quotes_delimiter+0x62>
  402e75:	48 8b 45 f8          	mov    -0x8(%rbp),%rax
  402e79:	48 8b 40 20          	mov    0x20(%rax),%rax
  402e7d:	48 8b 4d f8          	mov    -0x8(%rbp),%rcx
  402e81:	48 63 49 18          	movslq 0x18(%rcx),%rcx
  402e85:	0f be 04 08          	movsbl (%rax,%rcx,1),%eax
  402e89:	83 f8 27             	cmp    $0x27,%eax
  402e8c:	0f 95 c0             	setne  %al
  402e8f:	88 45 e7             	mov    %al,-0x19(%rbp)
  402e92:	8a 45 e7             	mov    -0x19(%rbp),%al
  402e95:	a8 01                	test   $0x1,%al
  402e97:	0f 85 05 00 00 00    	jne    402ea2 <parse_single_quotes_delimiter+0x72>
  402e9d:	e9 12 00 00 00       	jmp    402eb4 <parse_single_quotes_delimiter+0x84>
  402ea2:	48 8b 45 f8          	mov    -0x8(%rbp),%rax
  402ea6:	8b 48 18             	mov    0x18(%rax),%ecx
  402ea9:	83 c1 01             	add    $0x1,%ecx
  402eac:	89 48 18             	mov    %ecx,0x18(%rax)
  402eaf:	e9 9f ff ff ff       	jmp    402e53 <parse_single_quotes_delimiter+0x23>
  402eb4:	48 8b 45 f8          	mov    -0x8(%rbp),%rax
  402eb8:	48 8b 40 20          	mov    0x20(%rax),%rax
  402ebc:	48 8b 4d f8          	mov    -0x8(%rbp),%rcx
  402ec0:	48 63 49 18          	movslq 0x18(%rcx),%rcx
  402ec4:	0f be 04 08          	movsbl (%rax,%rcx,1),%eax
  402ec8:	83 f8 27             	cmp    $0x27,%eax
  402ecb:	0f 85 0d 00 00 00    	jne    402ede <parse_single_quotes_delimiter+0xae>
  402ed1:	48 8b 45 f8          	mov    -0x8(%rbp),%rax
  402ed5:	8b 48 18             	mov    0x18(%rax),%ecx
  402ed8:	83 c1 01             	add    $0x1,%ecx
  402edb:	89 48 18             	mov    %ecx,0x18(%rax)
  402ede:	48 8b 45 f8          	mov    -0x8(%rbp),%rax
  402ee2:	48 8b 78 20          	mov    0x20(%rax),%rdi
  402ee6:	8b 75 f4             	mov    -0xc(%rbp),%esi
  402ee9:	48 8b 45 f8          	mov    -0x8(%rbp),%rax
  402eed:	8b 40 18             	mov    0x18(%rax),%eax
  402ef0:	83 e8 01             	sub    $0x1,%eax
  402ef3:	2b 45 f4             	sub    -0xc(%rbp),%eax
  402ef6:	48 63 d0             	movslq %eax,%rdx
  402ef9:	e8 82 7f 00 00       	call   40ae80 <ft_substr>
  402efe:	48 89 45 e8          	mov    %rax,-0x18(%rbp)
  402f02:	48 83 7d e8 00       	cmpq   $0x0,-0x18(%rbp)
  402f07:	0f 85 1c 00 00 00    	jne    402f29 <parse_single_quotes_delimiter+0xf9>
  402f0d:	48 8b 7d f8          	mov    -0x8(%rbp),%rdi
  402f11:	48 be 37 c2 40 00 00 	movabs $0x40c237,%rsi
  402f18:	00 00 00 
  402f1b:	31 c0                	xor    %eax,%eax
  402f1d:	89 c2                	mov    %eax,%edx
  402f1f:	b9 ff 00 00 00       	mov    $0xff,%ecx
  402f24:	e8 d7 4b 00 00       	call   407b00 <snuff_it>
  402f29:	48 8b 7d f8          	mov    -0x8(%rbp),%rdi
  402f2d:	48 8b 75 e8          	mov    -0x18(%rbp),%rsi
  402f31:	e8 5a 69 00 00       	call   409890 <add_string_to_thrash_list>
  402f36:	48 8b 45 e8          	mov    -0x18(%rbp),%rax
  402f3a:	48 83 c4 20          	add    $0x20,%rsp
  402f3e:	5d                   	pop    %rbp
  402f3f:	c3                   	ret    

0000000000402f40 <parse_double_quotes_delimiter>:
  402f40:	55                   	push   %rbp
  402f41:	48 89 e5             	mov    %rsp,%rbp
  402f44:	48 83 ec 20          	sub    $0x20,%rsp
  402f48:	48 89 7d f8          	mov    %rdi,-0x8(%rbp)
  402f4c:	48 8b 45 f8          	mov    -0x8(%rbp),%rax
  402f50:	8b 48 18             	mov    0x18(%rax),%ecx
  402f53:	83 c1 01             	add    $0x1,%ecx
  402f56:	89 48 18             	mov    %ecx,0x18(%rax)
  402f59:	48 8b 45 f8          	mov    -0x8(%rbp),%rax
  402f5d:	8b 40 18             	mov    0x18(%rax),%eax
  402f60:	89 45 f4             	mov    %eax,-0xc(%rbp)
  402f63:	48 8b 45 f8          	mov    -0x8(%rbp),%rax
  402f67:	48 8b 40 20          	mov    0x20(%rax),%rax
  402f6b:	48 8b 4d f8          	mov    -0x8(%rbp),%rcx
  402f6f:	48 63 49 18          	movslq 0x18(%rcx),%rcx
  402f73:	0f be 0c 08          	movsbl (%rax,%rcx,1),%ecx
  402f77:	31 c0                	xor    %eax,%eax
  402f79:	83 f9 00             	cmp    $0x0,%ecx
  402f7c:	88 45 e7             	mov    %al,-0x19(%rbp)
  402f7f:	0f 84 1d 00 00 00    	je     402fa2 <parse_double_quotes_delimiter+0x62>
  402f85:	48 8b 45 f8          	mov    -0x8(%rbp),%rax
  402f89:	48 8b 40 20          	mov    0x20(%rax),%rax
  402f8d:	48 8b 4d f8          	mov    -0x8(%rbp),%rcx
  402f91:	48 63 49 18          	movslq 0x18(%rcx),%rcx
  402f95:	0f be 04 08          	movsbl (%rax,%rcx,1),%eax
  402f99:	83 f8 22             	cmp    $0x22,%eax
  402f9c:	0f 95 c0             	setne  %al
  402f9f:	88 45 e7             	mov    %al,-0x19(%rbp)
  402fa2:	8a 45 e7             	mov    -0x19(%rbp),%al
  402fa5:	a8 01                	test   $0x1,%al
  402fa7:	0f 85 05 00 00 00    	jne    402fb2 <parse_double_quotes_delimiter+0x72>
  402fad:	e9 12 00 00 00       	jmp    402fc4 <parse_double_quotes_delimiter+0x84>
  402fb2:	48 8b 45 f8          	mov    -0x8(%rbp),%rax
  402fb6:	8b 48 18             	mov    0x18(%rax),%ecx
  402fb9:	83 c1 01             	add    $0x1,%ecx
  402fbc:	89 48 18             	mov    %ecx,0x18(%rax)
  402fbf:	e9 9f ff ff ff       	jmp    402f63 <parse_double_quotes_delimiter+0x23>
  402fc4:	48 8b 45 f8          	mov    -0x8(%rbp),%rax
  402fc8:	48 8b 40 20          	mov    0x20(%rax),%rax
  402fcc:	48 8b 4d f8          	mov    -0x8(%rbp),%rcx
  402fd0:	48 63 49 18          	movslq 0x18(%rcx),%rcx
  402fd4:	0f be 04 08          	movsbl (%rax,%rcx,1),%eax
  402fd8:	83 f8 22             	cmp    $0x22,%eax
  402fdb:	0f 85 0d 00 00 00    	jne    402fee <parse_double_quotes_delimiter+0xae>
  402fe1:	48 8b 45 f8          	mov    -0x8(%rbp),%rax
  402fe5:	8b 48 18             	mov    0x18(%rax),%ecx
  402fe8:	83 c1 01             	add    $0x1,%ecx
  402feb:	89 48 18             	mov    %ecx,0x18(%rax)
  402fee:	48 8b 45 f8          	mov    -0x8(%rbp),%rax
  402ff2:	48 8b 78 20          	mov    0x20(%rax),%rdi
  402ff6:	8b 75 f4             	mov    -0xc(%rbp),%esi
  402ff9:	48 8b 45 f8          	mov    -0x8(%rbp),%rax
  402ffd:	8b 40 18             	mov    0x18(%rax),%eax
  403000:	83 e8 01             	sub    $0x1,%eax
  403003:	2b 45 f4             	sub    -0xc(%rbp),%eax
  403006:	48 63 d0             	movslq %eax,%rdx
  403009:	e8 72 7e 00 00       	call   40ae80 <ft_substr>
  40300e:	48 89 45 e8          	mov    %rax,-0x18(%rbp)
  403012:	48 83 7d e8 00       	cmpq   $0x0,-0x18(%rbp)
  403017:	0f 85 1c 00 00 00    	jne    403039 <parse_double_quotes_delimiter+0xf9>
  40301d:	48 8b 7d f8          	mov    -0x8(%rbp),%rdi
  403021:	48 be 37 c2 40 00 00 	movabs $0x40c237,%rsi
  403028:	00 00 00 
  40302b:	31 c0                	xor    %eax,%eax
  40302d:	89 c2                	mov    %eax,%edx
  40302f:	b9 ff 00 00 00       	mov    $0xff,%ecx
  403034:	e8 c7 4a 00 00       	call   407b00 <snuff_it>
  403039:	48 8b 7d f8          	mov    -0x8(%rbp),%rdi
  40303d:	48 8b 75 e8          	mov    -0x18(%rbp),%rsi
  403041:	e8 4a 68 00 00       	call   409890 <add_string_to_thrash_list>
  403046:	48 8b 45 e8          	mov    -0x18(%rbp),%rax
  40304a:	48 83 c4 20          	add    $0x20,%rsp
  40304e:	5d                   	pop    %rbp
  40304f:	c3                   	ret    

0000000000403050 <parse_single_quotes>:
  403050:	55                   	push   %rbp
  403051:	48 89 e5             	mov    %rsp,%rbp
  403054:	48 83 ec 20          	sub    $0x20,%rsp
  403058:	48 89 7d f8          	mov    %rdi,-0x8(%rbp)
  40305c:	48 8b 45 f8          	mov    -0x8(%rbp),%rax
  403060:	8b 40 18             	mov    0x18(%rax),%eax
  403063:	89 45 f4             	mov    %eax,-0xc(%rbp)
  403066:	48 8b 45 f8          	mov    -0x8(%rbp),%rax
  40306a:	8b 48 18             	mov    0x18(%rax),%ecx
  40306d:	83 c1 01             	add    $0x1,%ecx
  403070:	89 48 18             	mov    %ecx,0x18(%rax)
  403073:	48 8b 45 f8          	mov    -0x8(%rbp),%rax
  403077:	48 8b 40 20          	mov    0x20(%rax),%rax
  40307b:	48 8b 4d f8          	mov    -0x8(%rbp),%rcx
  40307f:	48 63 49 18          	movslq 0x18(%rcx),%rcx
  403083:	0f be 04 08          	movsbl (%rax,%rcx,1),%eax
  403087:	83 f8 00             	cmp    $0x0,%eax
  40308a:	0f 84 41 00 00 00    	je     4030d1 <parse_single_quotes+0x81>
  403090:	48 8b 45 f8          	mov    -0x8(%rbp),%rax
  403094:	48 8b 40 20          	mov    0x20(%rax),%rax
  403098:	48 8b 4d f8          	mov    -0x8(%rbp),%rcx
  40309c:	48 63 49 18          	movslq 0x18(%rcx),%rcx
  4030a0:	0f be 04 08          	movsbl (%rax,%rcx,1),%eax
  4030a4:	83 f8 27             	cmp    $0x27,%eax
  4030a7:	0f 85 12 00 00 00    	jne    4030bf <parse_single_quotes+0x6f>
  4030ad:	48 8b 45 f8          	mov    -0x8(%rbp),%rax
  4030b1:	8b 48 18             	mov    0x18(%rax),%ecx
  4030b4:	83 c1 01             	add    $0x1,%ecx
  4030b7:	89 48 18             	mov    %ecx,0x18(%rax)
  4030ba:	e9 12 00 00 00       	jmp    4030d1 <parse_single_quotes+0x81>
  4030bf:	48 8b 45 f8          	mov    -0x8(%rbp),%rax
  4030c3:	8b 48 18             	mov    0x18(%rax),%ecx
  4030c6:	83 c1 01             	add    $0x1,%ecx
  4030c9:	89 48 18             	mov    %ecx,0x18(%rax)
  4030cc:	e9 a2 ff ff ff       	jmp    403073 <parse_single_quotes+0x23>
  4030d1:	48 8b 45 f8          	mov    -0x8(%rbp),%rax
  4030d5:	8b 40 18             	mov    0x18(%rax),%eax
  4030d8:	2b 45 f4             	sub    -0xc(%rbp),%eax
  4030db:	89 45 f0             	mov    %eax,-0x10(%rbp)
  4030de:	8b 45 f0             	mov    -0x10(%rbp),%eax
  4030e1:	83 c0 01             	add    $0x1,%eax
  4030e4:	48 63 f8             	movslq %eax,%rdi
  4030e7:	48 c1 e7 00          	shl    $0x0,%rdi
  4030eb:	e8 40 e0 ff ff       	call   401130 <malloc@plt>
  4030f0:	48 89 45 e8          	mov    %rax,-0x18(%rbp)
  4030f4:	48 83 7d e8 00       	cmpq   $0x0,-0x18(%rbp)
  4030f9:	0f 85 1c 00 00 00    	jne    40311b <parse_single_quotes+0xcb>
  4030ff:	48 8b 7d f8          	mov    -0x8(%rbp),%rdi
  403103:	48 be 5e c2 40 00 00 	movabs $0x40c25e,%rsi
  40310a:	00 00 00 
  40310d:	31 c0                	xor    %eax,%eax
  40310f:	89 c2                	mov    %eax,%edx
  403111:	b9 ff 00 00 00       	mov    $0xff,%ecx
  403116:	e8 e5 49 00 00       	call   407b00 <snuff_it>
  40311b:	48 8b 7d f8          	mov    -0x8(%rbp),%rdi
  40311f:	48 8b 75 e8          	mov    -0x18(%rbp),%rsi
  403123:	e8 68 67 00 00       	call   409890 <add_string_to_thrash_list>
  403128:	48 8b 7d e8          	mov    -0x18(%rbp),%rdi
  40312c:	48 8b 45 f8          	mov    -0x8(%rbp),%rax
  403130:	48 8b 70 20          	mov    0x20(%rax),%rsi
  403134:	48 63 45 f4          	movslq -0xc(%rbp),%rax
  403138:	48 01 c6             	add    %rax,%rsi
  40313b:	8b 55 f0             	mov    -0x10(%rbp),%edx
  40313e:	83 c2 01             	add    $0x1,%edx
  403141:	e8 fa 23 00 00       	call   405540 <ft_strlcpy>
  403146:	48 8b 45 e8          	mov    -0x18(%rbp),%rax
  40314a:	48 83 c4 20          	add    $0x20,%rsp
  40314e:	5d                   	pop    %rbp
  40314f:	c3                   	ret    

0000000000403150 <parse_double_quotes>:
  403150:	55                   	push   %rbp
  403151:	48 89 e5             	mov    %rsp,%rbp
  403154:	48 83 ec 20          	sub    $0x20,%rsp
  403158:	48 89 7d f8          	mov    %rdi,-0x8(%rbp)
  40315c:	48 8b 45 f8          	mov    -0x8(%rbp),%rax
  403160:	8b 40 18             	mov    0x18(%rax),%eax
  403163:	89 45 f4             	mov    %eax,-0xc(%rbp)
  403166:	48 8b 45 f8          	mov    -0x8(%rbp),%rax
  40316a:	8b 48 18             	mov    0x18(%rax),%ecx
  40316d:	83 c1 01             	add    $0x1,%ecx
  403170:	89 48 18             	mov    %ecx,0x18(%rax)
  403173:	48 8b 45 f8          	mov    -0x8(%rbp),%rax
  403177:	48 8b 40 20          	mov    0x20(%rax),%rax
  40317b:	48 8b 4d f8          	mov    -0x8(%rbp),%rcx
  40317f:	48 63 49 18          	movslq 0x18(%rcx),%rcx
  403183:	0f be 04 08          	movsbl (%rax,%rcx,1),%eax
  403187:	83 f8 00             	cmp    $0x0,%eax
  40318a:	0f 84 41 00 00 00    	je     4031d1 <parse_double_quotes+0x81>
  403190:	48 8b 45 f8          	mov    -0x8(%rbp),%rax
  403194:	48 8b 40 20          	mov    0x20(%rax),%rax
  403198:	48 8b 4d f8          	mov    -0x8(%rbp),%rcx
  40319c:	48 63 49 18          	movslq 0x18(%rcx),%rcx
  4031a0:	0f be 04 08          	movsbl (%rax,%rcx,1),%eax
  4031a4:	83 f8 22             	cmp    $0x22,%eax
  4031a7:	0f 85 12 00 00 00    	jne    4031bf <parse_double_quotes+0x6f>
  4031ad:	48 8b 45 f8          	mov    -0x8(%rbp),%rax
  4031b1:	8b 48 18             	mov    0x18(%rax),%ecx
  4031b4:	83 c1 01             	add    $0x1,%ecx
  4031b7:	89 48 18             	mov    %ecx,0x18(%rax)
  4031ba:	e9 12 00 00 00       	jmp    4031d1 <parse_double_quotes+0x81>
  4031bf:	48 8b 45 f8          	mov    -0x8(%rbp),%rax
  4031c3:	8b 48 18             	mov    0x18(%rax),%ecx
  4031c6:	83 c1 01             	add    $0x1,%ecx
  4031c9:	89 48 18             	mov    %ecx,0x18(%rax)
  4031cc:	e9 a2 ff ff ff       	jmp    403173 <parse_double_quotes+0x23>
  4031d1:	48 8b 45 f8          	mov    -0x8(%rbp),%rax
  4031d5:	8b 40 18             	mov    0x18(%rax),%eax
  4031d8:	2b 45 f4             	sub    -0xc(%rbp),%eax
  4031db:	89 45 f0             	mov    %eax,-0x10(%rbp)
  4031de:	8b 45 f0             	mov    -0x10(%rbp),%eax
  4031e1:	83 c0 01             	add    $0x1,%eax
  4031e4:	48 63 f8             	movslq %eax,%rdi
  4031e7:	48 c1 e7 00          	shl    $0x0,%rdi
  4031eb:	e8 40 df ff ff       	call   401130 <malloc@plt>
  4031f0:	48 89 45 e8          	mov    %rax,-0x18(%rbp)
  4031f4:	48 83 7d e8 00       	cmpq   $0x0,-0x18(%rbp)
  4031f9:	0f 85 1c 00 00 00    	jne    40321b <parse_double_quotes+0xcb>
  4031ff:	48 8b 7d f8          	mov    -0x8(%rbp),%rdi
  403203:	48 be 89 c2 40 00 00 	movabs $0x40c289,%rsi
  40320a:	00 00 00 
  40320d:	31 c0                	xor    %eax,%eax
  40320f:	89 c2                	mov    %eax,%edx
  403211:	b9 ff 00 00 00       	mov    $0xff,%ecx
  403216:	e8 e5 48 00 00       	call   407b00 <snuff_it>
  40321b:	48 8b 7d f8          	mov    -0x8(%rbp),%rdi
  40321f:	48 8b 75 e8          	mov    -0x18(%rbp),%rsi
  403223:	e8 68 66 00 00       	call   409890 <add_string_to_thrash_list>
  403228:	48 8b 7d e8          	mov    -0x18(%rbp),%rdi
  40322c:	48 8b 45 f8          	mov    -0x8(%rbp),%rax
  403230:	48 8b 70 20          	mov    0x20(%rax),%rsi
  403234:	48 63 45 f4          	movslq -0xc(%rbp),%rax
  403238:	48 01 c6             	add    %rax,%rsi
  40323b:	8b 55 f0             	mov    -0x10(%rbp),%edx
  40323e:	83 c2 01             	add    $0x1,%edx
  403241:	e8 fa 22 00 00       	call   405540 <ft_strlcpy>
  403246:	48 8b 45 e8          	mov    -0x18(%rbp),%rax
  40324a:	48 83 c4 20          	add    $0x20,%rsp
  40324e:	5d                   	pop    %rbp
  40324f:	c3                   	ret    

0000000000403250 <clear_token_list>:
  403250:	55                   	push   %rbp
  403251:	48 89 e5             	mov    %rsp,%rbp
  403254:	48 83 ec 20          	sub    $0x20,%rsp
  403258:	48 89 7d f8          	mov    %rdi,-0x8(%rbp)
  40325c:	48 8b 45 f8          	mov    -0x8(%rbp),%rax
  403260:	48 8b 40 08          	mov    0x8(%rax),%rax
  403264:	48 89 45 f0          	mov    %rax,-0x10(%rbp)
  403268:	48 83 7d f0 00       	cmpq   $0x0,-0x10(%rbp)
  40326d:	0f 84 3b 00 00 00    	je     4032ae <clear_token_list+0x5e>
  403273:	48 8b 45 f0          	mov    -0x10(%rbp),%rax
  403277:	48 8b 40 28          	mov    0x28(%rax),%rax
  40327b:	48 89 45 e8          	mov    %rax,-0x18(%rbp)
  40327f:	48 8b 45 f0          	mov    -0x10(%rbp),%rax
  403283:	48 8b 78 08          	mov    0x8(%rax),%rdi
  403287:	e8 a4 dd ff ff       	call   401030 <free@plt>
  40328c:	48 8b 45 f0          	mov    -0x10(%rbp),%rax
  403290:	48 c7 40 08 00 00 00 	movq   $0x0,0x8(%rax)
  403297:	00 
  403298:	48 8b 7d f0          	mov    -0x10(%rbp),%rdi
  40329c:	e8 8f dd ff ff       	call   401030 <free@plt>
  4032a1:	48 8b 45 e8          	mov    -0x18(%rbp),%rax
  4032a5:	48 89 45 f0          	mov    %rax,-0x10(%rbp)
  4032a9:	e9 ba ff ff ff       	jmp    403268 <clear_token_list+0x18>
  4032ae:	48 8b 45 f8          	mov    -0x8(%rbp),%rax
  4032b2:	48 c7 40 08 00 00 00 	movq   $0x0,0x8(%rax)
  4032b9:	00 
  4032ba:	48 8b 45 f8          	mov    -0x8(%rbp),%rax
  4032be:	48 c7 40 10 00 00 00 	movq   $0x0,0x10(%rax)
  4032c5:	00 
  4032c6:	48 83 c4 20          	add    $0x20,%rsp
  4032ca:	5d                   	pop    %rbp
  4032cb:	c3                   	ret    
  4032cc:	0f 1f 40 00          	nopl   0x0(%rax)

00000000004032d0 <make_token_list>:
  4032d0:	55                   	push   %rbp
  4032d1:	48 89 e5             	mov    %rsp,%rbp
  4032d4:	48 83 ec 30          	sub    $0x30,%rsp
  4032d8:	48 89 7d f8          	mov    %rdi,-0x8(%rbp)
  4032dc:	c7 45 e8 00 00 00 00 	movl   $0x0,-0x18(%rbp)
  4032e3:	48 8b 45 f8          	mov    -0x8(%rbp),%rax
  4032e7:	c7 40 64 00 00 00 00 	movl   $0x0,0x64(%rax)
  4032ee:	48 8b 7d f8          	mov    -0x8(%rbp),%rdi
  4032f2:	e8 39 ef ff ff       	call   402230 <get_next_token>
  4032f7:	89 45 d0             	mov    %eax,-0x30(%rbp)
  4032fa:	48 89 55 d8          	mov    %rdx,-0x28(%rbp)
  4032fe:	48 8b 45 d0          	mov    -0x30(%rbp),%rax
  403302:	48 89 45 e8          	mov    %rax,-0x18(%rbp)
  403306:	48 8b 45 d8          	mov    -0x28(%rbp),%rax
  40330a:	48 89 45 f0          	mov    %rax,-0x10(%rbp)
  40330e:	48 8b 7d f8          	mov    -0x8(%rbp),%rdi
  403312:	48 8d 75 e8          	lea    -0x18(%rbp),%rsi
  403316:	e8 35 00 00 00       	call   403350 <create_token_node>
  40331b:	48 89 45 e0          	mov    %rax,-0x20(%rbp)
  40331f:	48 8b 7d f8          	mov    -0x8(%rbp),%rdi
  403323:	48 8b 75 e0          	mov    -0x20(%rbp),%rsi
  403327:	e8 34 01 00 00       	call   403460 <add_token_node>
  40332c:	83 7d e8 0c          	cmpl   $0xc,-0x18(%rbp)
  403330:	0f 85 0d 00 00 00    	jne    403343 <make_token_list+0x73>
  403336:	48 c7 45 e0 00 00 00 	movq   $0x0,-0x20(%rbp)
  40333d:	00 
  40333e:	e9 05 00 00 00       	jmp    403348 <make_token_list+0x78>
  403343:	e9 9b ff ff ff       	jmp    4032e3 <make_token_list+0x13>
  403348:	48 83 c4 30          	add    $0x30,%rsp
  40334c:	5d                   	pop    %rbp
  40334d:	c3                   	ret    
  40334e:	66 90                	xchg   %ax,%ax

0000000000403350 <create_token_node>:
  403350:	55                   	push   %rbp
  403351:	48 89 e5             	mov    %rsp,%rbp
  403354:	48 83 ec 20          	sub    $0x20,%rsp
  403358:	48 89 7d f8          	mov    %rdi,-0x8(%rbp)
  40335c:	48 89 75 f0          	mov    %rsi,-0x10(%rbp)
  403360:	bf 30 00 00 00       	mov    $0x30,%edi
  403365:	e8 c6 dd ff ff       	call   401130 <malloc@plt>
  40336a:	48 89 45 e8          	mov    %rax,-0x18(%rbp)
  40336e:	48 83 7d e8 00       	cmpq   $0x0,-0x18(%rbp)
  403373:	0f 85 1c 00 00 00    	jne    403395 <create_token_node+0x45>
  403379:	48 8b 7d f8          	mov    -0x8(%rbp),%rdi
  40337d:	48 be b4 c2 40 00 00 	movabs $0x40c2b4,%rsi
  403384:	00 00 00 
  403387:	31 c0                	xor    %eax,%eax
  403389:	89 c2                	mov    %eax,%edx
  40338b:	b9 ff 00 00 00       	mov    $0xff,%ecx
  403390:	e8 6b 47 00 00       	call   407b00 <snuff_it>
  403395:	48 8b 45 e8          	mov    -0x18(%rbp),%rax
  403399:	c7 00 00 00 00 00    	movl   $0x0,(%rax)
  40339f:	48 8b 45 f0          	mov    -0x10(%rbp),%rax
  4033a3:	8b 08                	mov    (%rax),%ecx
  4033a5:	48 8b 45 e8          	mov    -0x18(%rbp),%rax
  4033a9:	89 08                	mov    %ecx,(%rax)
  4033ab:	48 8b 45 e8          	mov    -0x18(%rbp),%rax
  4033af:	48 c7 40 08 00 00 00 	movq   $0x0,0x8(%rax)
  4033b6:	00 
  4033b7:	48 8b 45 f0          	mov    -0x10(%rbp),%rax
  4033bb:	48 83 78 08 00       	cmpq   $0x0,0x8(%rax)
  4033c0:	0f 84 48 00 00 00    	je     40340e <create_token_node+0xbe>
  4033c6:	48 8b 45 f0          	mov    -0x10(%rbp),%rax
  4033ca:	48 8b 78 08          	mov    0x8(%rax),%rdi
  4033ce:	e8 6d 78 00 00       	call   40ac40 <ft_strdup>
  4033d3:	48 89 c1             	mov    %rax,%rcx
  4033d6:	48 8b 45 e8          	mov    -0x18(%rbp),%rax
  4033da:	48 89 48 08          	mov    %rcx,0x8(%rax)
  4033de:	48 8b 45 e8          	mov    -0x18(%rbp),%rax
  4033e2:	48 83 78 08 00       	cmpq   $0x0,0x8(%rax)
  4033e7:	0f 85 1c 00 00 00    	jne    403409 <create_token_node+0xb9>
  4033ed:	48 8b 7d f8          	mov    -0x8(%rbp),%rdi
  4033f1:	48 be d9 c2 40 00 00 	movabs $0x40c2d9,%rsi
  4033f8:	00 00 00 
  4033fb:	31 c0                	xor    %eax,%eax
  4033fd:	89 c2                	mov    %eax,%edx
  4033ff:	b9 ff 00 00 00       	mov    $0xff,%ecx
  403404:	e8 f7 46 00 00       	call   407b00 <snuff_it>
  403409:	e9 00 00 00 00       	jmp    40340e <create_token_node+0xbe>
  40340e:	48 8b 45 e8          	mov    -0x18(%rbp),%rax
  403412:	48 c7 40 10 00 00 00 	movq   $0x0,0x10(%rax)
  403419:	00 
  40341a:	48 8b 45 e8          	mov    -0x18(%rbp),%rax
  40341e:	c7 40 18 00 00 00 00 	movl   $0x0,0x18(%rax)
  403425:	48 8b 45 f8          	mov    -0x8(%rbp),%rax
  403429:	8b 48 64             	mov    0x64(%rax),%ecx
  40342c:	48 8b 45 e8          	mov    -0x18(%rbp),%rax
  403430:	89 48 1c             	mov    %ecx,0x1c(%rax)
  403433:	48 8b 45 e8          	mov    -0x18(%rbp),%rax
  403437:	48 c7 40 20 00 00 00 	movq   $0x0,0x20(%rax)
  40343e:	00 
  40343f:	48 8b 45 e8          	mov    -0x18(%rbp),%rax
  403443:	48 c7 40 28 00 00 00 	movq   $0x0,0x28(%rax)
  40344a:	00 
  40344b:	48 8b 45 e8          	mov    -0x18(%rbp),%rax
  40344f:	48 83 c4 20          	add    $0x20,%rsp
  403453:	5d                   	pop    %rbp
  403454:	c3                   	ret    
  403455:	66 2e 0f 1f 84 00 00 	cs nopw 0x0(%rax,%rax,1)
  40345c:	00 00 00 
  40345f:	90                   	nop

0000000000403460 <add_token_node>:
  403460:	55                   	push   %rbp
  403461:	48 89 e5             	mov    %rsp,%rbp
  403464:	48 83 ec 10          	sub    $0x10,%rsp
  403468:	48 89 7d f8          	mov    %rdi,-0x8(%rbp)
  40346c:	48 89 75 f0          	mov    %rsi,-0x10(%rbp)
  403470:	48 83 7d f0 00       	cmpq   $0x0,-0x10(%rbp)
  403475:	0f 85 1c 00 00 00    	jne    403497 <add_token_node+0x37>
  40347b:	48 8b 7d f8          	mov    -0x8(%rbp),%rdi
  40347f:	48 be f2 c2 40 00 00 	movabs $0x40c2f2,%rsi
  403486:	00 00 00 
  403489:	31 c0                	xor    %eax,%eax
  40348b:	89 c2                	mov    %eax,%edx
  40348d:	b9 02 00 00 00       	mov    $0x2,%ecx
  403492:	e8 69 46 00 00       	call   407b00 <snuff_it>
  403497:	48 8b 45 f8          	mov    -0x8(%rbp),%rax
  40349b:	48 83 78 08 00       	cmpq   $0x0,0x8(%rax)
  4034a0:	0f 85 1d 00 00 00    	jne    4034c3 <add_token_node+0x63>
  4034a6:	48 8b 4d f0          	mov    -0x10(%rbp),%rcx
  4034aa:	48 8b 45 f8          	mov    -0x8(%rbp),%rax
  4034ae:	48 89 48 08          	mov    %rcx,0x8(%rax)
  4034b2:	48 8b 4d f0          	mov    -0x10(%rbp),%rcx
  4034b6:	48 8b 45 f8          	mov    -0x8(%rbp),%rax
  4034ba:	48 89 48 10          	mov    %rcx,0x10(%rax)
  4034be:	e9 2c 00 00 00       	jmp    4034ef <add_token_node+0x8f>
  4034c3:	48 8b 45 f8          	mov    -0x8(%rbp),%rax
  4034c7:	48 8b 48 10          	mov    0x10(%rax),%rcx
  4034cb:	48 8b 45 f0          	mov    -0x10(%rbp),%rax
  4034cf:	48 89 48 20          	mov    %rcx,0x20(%rax)
  4034d3:	48 8b 4d f0          	mov    -0x10(%rbp),%rcx
  4034d7:	48 8b 45 f8          	mov    -0x8(%rbp),%rax
  4034db:	48 8b 40 10          	mov    0x10(%rax),%rax
  4034df:	48 89 48 28          	mov    %rcx,0x28(%rax)
  4034e3:	48 8b 4d f0          	mov    -0x10(%rbp),%rcx
  4034e7:	48 8b 45 f8          	mov    -0x8(%rbp),%rax
  4034eb:	48 89 48 10          	mov    %rcx,0x10(%rax)
  4034ef:	48 83 c4 10          	add    $0x10,%rsp
  4034f3:	5d                   	pop    %rbp
  4034f4:	c3                   	ret    
  4034f5:	66 2e 0f 1f 84 00 00 	cs nopw 0x0(%rax,%rax,1)
  4034fc:	00 00 00 
  4034ff:	90                   	nop

0000000000403500 <expand_and_split_and_process_quotes>:
  403500:	55                   	push   %rbp
  403501:	48 89 e5             	mov    %rsp,%rbp
  403504:	48 83 ec 20          	sub    $0x20,%rsp
  403508:	48 89 7d f8          	mov    %rdi,-0x8(%rbp)
  40350c:	48 8b 45 f8          	mov    -0x8(%rbp),%rax
  403510:	48 8b 40 08          	mov    0x8(%rax),%rax
  403514:	48 89 45 f0          	mov    %rax,-0x10(%rbp)
  403518:	48 83 7d f0 00       	cmpq   $0x0,-0x10(%rbp)
  40351d:	0f 84 e0 00 00 00    	je     403603 <expand_and_split_and_process_quotes+0x103>
  403523:	48 8b 45 f0          	mov    -0x10(%rbp),%rax
  403527:	8b 38                	mov    (%rax),%edi
  403529:	e8 e2 f0 ff ff       	call   402610 <is_substantive>
  40352e:	83 f8 00             	cmp    $0x0,%eax
  403531:	0f 84 bb 00 00 00    	je     4035f2 <expand_and_split_and_process_quotes+0xf2>
  403537:	48 8b 45 f0          	mov    -0x10(%rbp),%rax
  40353b:	48 83 78 08 00       	cmpq   $0x0,0x8(%rax)
  403540:	0f 84 ac 00 00 00    	je     4035f2 <expand_and_split_and_process_quotes+0xf2>
  403546:	48 8b 7d f8          	mov    -0x8(%rbp),%rdi
  40354a:	48 8b 75 f0          	mov    -0x10(%rbp),%rsi
  40354e:	48 83 c6 08          	add    $0x8,%rsi
  403552:	e8 49 05 00 00       	call   403aa0 <process_vars_and_put_them_in_quotes>
  403557:	48 8b 7d f8          	mov    -0x8(%rbp),%rdi
  40355b:	48 8b 45 f0          	mov    -0x10(%rbp),%rax
  40355f:	48 8b 70 08          	mov    0x8(%rax),%rsi
  403563:	48 8b 55 f0          	mov    -0x10(%rbp),%rdx
  403567:	48 83 c2 18          	add    $0x18,%rdx
  40356b:	e8 00 6b 00 00       	call   40a070 <ft_split_returns>
  403570:	48 89 c1             	mov    %rax,%rcx
  403573:	48 8b 45 f0          	mov    -0x10(%rbp),%rax
  403577:	48 89 48 10          	mov    %rcx,0x10(%rax)
  40357b:	48 8b 45 f0          	mov    -0x10(%rbp),%rax
  40357f:	48 83 78 10 00       	cmpq   $0x0,0x10(%rax)
  403584:	0f 85 1c 00 00 00    	jne    4035a6 <expand_and_split_and_process_quotes+0xa6>
  40358a:	48 8b 7d f8          	mov    -0x8(%rbp),%rdi
  40358e:	48 be 0a c3 40 00 00 	movabs $0x40c30a,%rsi
  403595:	00 00 00 
  403598:	31 c0                	xor    %eax,%eax
  40359a:	89 c2                	mov    %eax,%edx
  40359c:	b9 ff 00 00 00       	mov    $0xff,%ecx
  4035a1:	e8 5a 45 00 00       	call   407b00 <snuff_it>
  4035a6:	c7 45 ec ff ff ff ff 	movl   $0xffffffff,-0x14(%rbp)
  4035ad:	48 8b 45 f0          	mov    -0x10(%rbp),%rax
  4035b1:	48 8b 40 10          	mov    0x10(%rax),%rax
  4035b5:	8b 4d ec             	mov    -0x14(%rbp),%ecx
  4035b8:	83 c1 01             	add    $0x1,%ecx
  4035bb:	89 4d ec             	mov    %ecx,-0x14(%rbp)
  4035be:	48 63 c9             	movslq %ecx,%rcx
  4035c1:	48 83 3c c8 00       	cmpq   $0x0,(%rax,%rcx,8)
  4035c6:	0f 84 21 00 00 00    	je     4035ed <expand_and_split_and_process_quotes+0xed>
  4035cc:	48 8b 7d f8          	mov    -0x8(%rbp),%rdi
  4035d0:	48 8b 45 f0          	mov    -0x10(%rbp),%rax
  4035d4:	48 8b 70 10          	mov    0x10(%rax),%rsi
  4035d8:	48 63 45 ec          	movslq -0x14(%rbp),%rax
  4035dc:	48 c1 e0 03          	shl    $0x3,%rax
  4035e0:	48 01 c6             	add    %rax,%rsi
  4035e3:	e8 38 04 00 00       	call   403a20 <process_quotes>
  4035e8:	e9 c0 ff ff ff       	jmp    4035ad <expand_and_split_and_process_quotes+0xad>
  4035ed:	e9 00 00 00 00       	jmp    4035f2 <expand_and_split_and_process_quotes+0xf2>
  4035f2:	48 8b 45 f0          	mov    -0x10(%rbp),%rax
  4035f6:	48 8b 40 28          	mov    0x28(%rax),%rax
  4035fa:	48 89 45 f0          	mov    %rax,-0x10(%rbp)
  4035fe:	e9 15 ff ff ff       	jmp    403518 <expand_and_split_and_process_quotes+0x18>
  403603:	48 83 c4 20          	add    $0x20,%rsp
  403607:	5d                   	pop    %rbp
  403608:	c3                   	ret    
  403609:	0f 1f 80 00 00 00 00 	nopl   0x0(%rax)

0000000000403610 <remove_space_tokens>:
  403610:	55                   	push   %rbp
  403611:	48 89 e5             	mov    %rsp,%rbp
  403614:	48 83 ec 20          	sub    $0x20,%rsp
  403618:	48 89 7d f8          	mov    %rdi,-0x8(%rbp)
  40361c:	48 8b 45 f8          	mov    -0x8(%rbp),%rax
  403620:	48 8b 40 08          	mov    0x8(%rax),%rax
  403624:	48 89 45 f0          	mov    %rax,-0x10(%rbp)
  403628:	48 c7 45 e8 00 00 00 	movq   $0x0,-0x18(%rbp)
  40362f:	00 
  403630:	48 c7 45 e0 00 00 00 	movq   $0x0,-0x20(%rbp)
  403637:	00 
  403638:	48 83 7d f0 00       	cmpq   $0x0,-0x10(%rbp)
  40363d:	0f 84 6b 00 00 00    	je     4036ae <remove_space_tokens+0x9e>
  403643:	48 8b 45 f0          	mov    -0x10(%rbp),%rax
  403647:	83 38 00             	cmpl   $0x0,(%rax)
  40364a:	0f 85 45 00 00 00    	jne    403695 <remove_space_tokens+0x85>
  403650:	48 83 7d e8 00       	cmpq   $0x0,-0x18(%rbp)
  403655:	0f 84 10 00 00 00    	je     40366b <remove_space_tokens+0x5b>
  40365b:	48 8b 45 f0          	mov    -0x10(%rbp),%rax
  40365f:	48 8b 48 28          	mov    0x28(%rax),%rcx
  403663:	48 8b 45 e8          	mov    -0x18(%rbp),%rax
  403667:	48 89 48 28          	mov    %rcx,0x28(%rax)
  40366b:	48 8b 45 f0          	mov    -0x10(%rbp),%rax
  40366f:	48 89 45 e0          	mov    %rax,-0x20(%rbp)
  403673:	48 8b 45 f0          	mov    -0x10(%rbp),%rax
  403677:	48 8b 40 28          	mov    0x28(%rax),%rax
  40367b:	48 89 45 f0          	mov    %rax,-0x10(%rbp)
  40367f:	48 8b 7d e0          	mov    -0x20(%rbp),%rdi
  403683:	e8 a8 d9 ff ff       	call   401030 <free@plt>
  403688:	48 c7 45 e0 00 00 00 	movq   $0x0,-0x20(%rbp)
  40368f:	00 
  403690:	e9 14 00 00 00       	jmp    4036a9 <remove_space_tokens+0x99>
  403695:	48 8b 45 f0          	mov    -0x10(%rbp),%rax
  403699:	48 89 45 e8          	mov    %rax,-0x18(%rbp)
  40369d:	48 8b 45 f0          	mov    -0x10(%rbp),%rax
  4036a1:	48 8b 40 28          	mov    0x28(%rax),%rax
  4036a5:	48 89 45 f0          	mov    %rax,-0x10(%rbp)
  4036a9:	e9 8a ff ff ff       	jmp    403638 <remove_space_tokens+0x28>
  4036ae:	48 83 c4 20          	add    $0x20,%rsp
  4036b2:	5d                   	pop    %rbp
  4036b3:	c3                   	ret    
  4036b4:	66 2e 0f 1f 84 00 00 	cs nopw 0x0(%rax,%rax,1)
  4036bb:	00 00 00 
  4036be:	66 90                	xchg   %ax,%ax

00000000004036c0 <merge_token_strings>:
  4036c0:	55                   	push   %rbp
  4036c1:	48 89 e5             	mov    %rsp,%rbp
  4036c4:	48 83 ec 20          	sub    $0x20,%rsp
  4036c8:	48 89 7d f8          	mov    %rdi,-0x8(%rbp)
  4036cc:	48 89 75 f0          	mov    %rsi,-0x10(%rbp)
  4036d0:	48 89 55 e8          	mov    %rdx,-0x18(%rbp)
  4036d4:	48 8b 45 e8          	mov    -0x18(%rbp),%rax
  4036d8:	48 83 38 00          	cmpq   $0x0,(%rax)
  4036dc:	0f 85 05 00 00 00    	jne    4036e7 <merge_token_strings+0x27>
  4036e2:	e9 f2 00 00 00       	jmp    4037d9 <merge_token_strings+0x119>
  4036e7:	48 8b 45 e8          	mov    -0x18(%rbp),%rax
  4036eb:	48 8b 00             	mov    (%rax),%rax
  4036ee:	48 8b 78 08          	mov    0x8(%rax),%rdi
  4036f2:	48 8b 45 f0          	mov    -0x10(%rbp),%rax
  4036f6:	48 8b 00             	mov    (%rax),%rax
  4036f9:	48 8b 70 08          	mov    0x8(%rax),%rsi
  4036fd:	e8 ae 78 00 00       	call   40afb0 <ft_strjoin>
  403702:	48 89 45 e0          	mov    %rax,-0x20(%rbp)
  403706:	48 83 7d e0 00       	cmpq   $0x0,-0x20(%rbp)
  40370b:	0f 85 1c 00 00 00    	jne    40372d <merge_token_strings+0x6d>
  403711:	48 8b 7d f8          	mov    -0x8(%rbp),%rdi
  403715:	48 be 26 c3 40 00 00 	movabs $0x40c326,%rsi
  40371c:	00 00 00 
  40371f:	31 c0                	xor    %eax,%eax
  403721:	89 c2                	mov    %eax,%edx
  403723:	b9 ff 00 00 00       	mov    $0xff,%ecx
  403728:	e8 d3 43 00 00       	call   407b00 <snuff_it>
  40372d:	48 8b 45 e8          	mov    -0x18(%rbp),%rax
  403731:	48 8b 00             	mov    (%rax),%rax
  403734:	48 8b 78 08          	mov    0x8(%rax),%rdi
  403738:	e8 f3 d8 ff ff       	call   401030 <free@plt>
  40373d:	48 8b 4d e0          	mov    -0x20(%rbp),%rcx
  403741:	48 8b 45 e8          	mov    -0x18(%rbp),%rax
  403745:	48 8b 00             	mov    (%rax),%rax
  403748:	48 89 48 08          	mov    %rcx,0x8(%rax)
  40374c:	48 8b 45 f0          	mov    -0x10(%rbp),%rax
  403750:	48 8b 00             	mov    (%rax),%rax
  403753:	8b 08                	mov    (%rax),%ecx
  403755:	48 8b 45 e8          	mov    -0x18(%rbp),%rax
  403759:	48 8b 00             	mov    (%rax),%rax
  40375c:	89 08                	mov    %ecx,(%rax)
  40375e:	48 8b 45 f0          	mov    -0x10(%rbp),%rax
  403762:	48 8b 00             	mov    (%rax),%rax
  403765:	48 8b 48 28          	mov    0x28(%rax),%rcx
  403769:	48 8b 45 e8          	mov    -0x18(%rbp),%rax
  40376d:	48 8b 00             	mov    (%rax),%rax
  403770:	48 89 48 28          	mov    %rcx,0x28(%rax)
  403774:	48 8b 45 f0          	mov    -0x10(%rbp),%rax
  403778:	48 8b 00             	mov    (%rax),%rax
  40377b:	48 83 78 28 00       	cmpq   $0x0,0x28(%rax)
  403780:	0f 84 16 00 00 00    	je     40379c <merge_token_strings+0xdc>
  403786:	48 8b 45 e8          	mov    -0x18(%rbp),%rax
  40378a:	48 8b 08             	mov    (%rax),%rcx
  40378d:	48 8b 45 f0          	mov    -0x10(%rbp),%rax
  403791:	48 8b 00             	mov    (%rax),%rax
  403794:	48 8b 40 28          	mov    0x28(%rax),%rax
  403798:	48 89 48 20          	mov    %rcx,0x20(%rax)
  40379c:	48 8b 45 f0          	mov    -0x10(%rbp),%rax
  4037a0:	48 8b 00             	mov    (%rax),%rax
  4037a3:	48 8b 78 08          	mov    0x8(%rax),%rdi
  4037a7:	e8 84 d8 ff ff       	call   401030 <free@plt>
  4037ac:	48 8b 45 f0          	mov    -0x10(%rbp),%rax
  4037b0:	48 8b 00             	mov    (%rax),%rax
  4037b3:	48 c7 40 08 00 00 00 	movq   $0x0,0x8(%rax)
  4037ba:	00 
  4037bb:	48 8b 45 f0          	mov    -0x10(%rbp),%rax
  4037bf:	48 8b 38             	mov    (%rax),%rdi
  4037c2:	e8 69 d8 ff ff       	call   401030 <free@plt>
  4037c7:	48 8b 45 e8          	mov    -0x18(%rbp),%rax
  4037cb:	48 8b 00             	mov    (%rax),%rax
  4037ce:	48 8b 48 28          	mov    0x28(%rax),%rcx
  4037d2:	48 8b 45 f0          	mov    -0x10(%rbp),%rax
  4037d6:	48 89 08             	mov    %rcx,(%rax)
  4037d9:	48 83 c4 20          	add    $0x20,%rsp
  4037dd:	5d                   	pop    %rbp
  4037de:	c3                   	ret    
  4037df:	90                   	nop

00000000004037e0 <check_assign_type>:
  4037e0:	55                   	push   %rbp
  4037e1:	48 89 e5             	mov    %rsp,%rbp
  4037e4:	48 83 ec 10          	sub    $0x10,%rsp
  4037e8:	48 89 7d f8          	mov    %rdi,-0x8(%rbp)
  4037ec:	48 8b 45 f8          	mov    -0x8(%rbp),%rax
  4037f0:	48 8b 40 08          	mov    0x8(%rax),%rax
  4037f4:	48 89 45 f0          	mov    %rax,-0x10(%rbp)
  4037f8:	48 83 7d f0 00       	cmpq   $0x0,-0x10(%rbp)
  4037fd:	0f 84 45 00 00 00    	je     403848 <check_assign_type+0x68>
  403803:	48 8b 45 f0          	mov    -0x10(%rbp),%rax
  403807:	8b 38                	mov    (%rax),%edi
  403809:	e8 02 ee ff ff       	call   402610 <is_substantive>
  40380e:	83 f8 00             	cmp    $0x0,%eax
  403811:	0f 84 20 00 00 00    	je     403837 <check_assign_type+0x57>
  403817:	48 8b 45 f0          	mov    -0x10(%rbp),%rax
  40381b:	48 8b 78 08          	mov    0x8(%rax),%rdi
  40381f:	e8 5c df ff ff       	call   401780 <has_unquoted_equals>
  403824:	83 f8 00             	cmp    $0x0,%eax
  403827:	0f 84 0a 00 00 00    	je     403837 <check_assign_type+0x57>
  40382d:	48 8b 45 f0          	mov    -0x10(%rbp),%rax
  403831:	c7 00 0b 00 00 00    	movl   $0xb,(%rax)
  403837:	48 8b 45 f0          	mov    -0x10(%rbp),%rax
  40383b:	48 8b 40 28          	mov    0x28(%rax),%rax
  40383f:	48 89 45 f0          	mov    %rax,-0x10(%rbp)
  403843:	e9 b0 ff ff ff       	jmp    4037f8 <check_assign_type+0x18>
  403848:	48 83 c4 10          	add    $0x10,%rsp
  40384c:	5d                   	pop    %rbp
  40384d:	c3                   	ret    
  40384e:	66 90                	xchg   %ax,%ax

0000000000403850 <merge_unseparated>:
  403850:	55                   	push   %rbp
  403851:	48 89 e5             	mov    %rsp,%rbp
  403854:	48 83 ec 20          	sub    $0x20,%rsp
  403858:	48 89 7d f8          	mov    %rdi,-0x8(%rbp)
  40385c:	48 8b 45 f8          	mov    -0x8(%rbp),%rax
  403860:	48 8b 40 08          	mov    0x8(%rax),%rax
  403864:	48 89 45 f0          	mov    %rax,-0x10(%rbp)
  403868:	48 c7 45 e8 00 00 00 	movq   $0x0,-0x18(%rbp)
  40386f:	00 
  403870:	48 83 7d f0 00       	cmpq   $0x0,-0x10(%rbp)
  403875:	0f 84 62 00 00 00    	je     4038dd <merge_unseparated+0x8d>
  40387b:	48 83 7d e8 00       	cmpq   $0x0,-0x18(%rbp)
  403880:	0f 84 3e 00 00 00    	je     4038c4 <merge_unseparated+0x74>
  403886:	48 8b 45 e8          	mov    -0x18(%rbp),%rax
  40388a:	8b 38                	mov    (%rax),%edi
  40388c:	e8 bf ec ff ff       	call   402550 <is_separating>
  403891:	83 f8 00             	cmp    $0x0,%eax
  403894:	0f 85 2a 00 00 00    	jne    4038c4 <merge_unseparated+0x74>
  40389a:	48 8b 45 f0          	mov    -0x10(%rbp),%rax
  40389e:	8b 38                	mov    (%rax),%edi
  4038a0:	e8 ab ec ff ff       	call   402550 <is_separating>
  4038a5:	83 f8 00             	cmp    $0x0,%eax
  4038a8:	0f 85 16 00 00 00    	jne    4038c4 <merge_unseparated+0x74>
  4038ae:	48 8b 7d f8          	mov    -0x8(%rbp),%rdi
  4038b2:	48 8d 75 f0          	lea    -0x10(%rbp),%rsi
  4038b6:	48 8d 55 e8          	lea    -0x18(%rbp),%rdx
  4038ba:	e8 01 fe ff ff       	call   4036c0 <merge_token_strings>
  4038bf:	e9 14 00 00 00       	jmp    4038d8 <merge_unseparated+0x88>
  4038c4:	48 8b 45 f0          	mov    -0x10(%rbp),%rax
  4038c8:	48 89 45 e8          	mov    %rax,-0x18(%rbp)
  4038cc:	48 8b 45 f0          	mov    -0x10(%rbp),%rax
  4038d0:	48 8b 40 28          	mov    0x28(%rax),%rax
  4038d4:	48 89 45 f0          	mov    %rax,-0x10(%rbp)
  4038d8:	e9 93 ff ff ff       	jmp    403870 <merge_unseparated+0x20>
  4038dd:	48 8b 7d f8          	mov    -0x8(%rbp),%rdi
  4038e1:	e8 fa fe ff ff       	call   4037e0 <check_assign_type>
  4038e6:	48 8b 7d f8          	mov    -0x8(%rbp),%rdi
  4038ea:	e8 21 fd ff ff       	call   403610 <remove_space_tokens>
  4038ef:	48 8b 7d f8          	mov    -0x8(%rbp),%rdi
  4038f3:	e8 08 fc ff ff       	call   403500 <expand_and_split_and_process_quotes>
  4038f8:	48 83 c4 20          	add    $0x20,%rsp
  4038fc:	5d                   	pop    %rbp
  4038fd:	c3                   	ret    
  4038fe:	66 90                	xchg   %ax,%ax

0000000000403900 <process_vars_and_quotes>:
  403900:	55                   	push   %rbp
  403901:	48 89 e5             	mov    %rsp,%rbp
  403904:	48 83 ec 20          	sub    $0x20,%rsp
  403908:	48 89 7d f8          	mov    %rdi,-0x8(%rbp)
  40390c:	48 89 75 f0          	mov    %rsi,-0x10(%rbp)
  403910:	48 8b 45 f0          	mov    -0x10(%rbp),%rax
  403914:	48 8b 38             	mov    (%rax),%rdi
  403917:	be 24 00 00 00       	mov    $0x24,%esi
  40391c:	e8 cf 6c 00 00       	call   40a5f0 <ft_strchr>
  403921:	48 83 f8 00          	cmp    $0x0,%rax
  403925:	0f 84 2b 00 00 00    	je     403956 <process_vars_and_quotes+0x56>
  40392b:	48 8b 7d f8          	mov    -0x8(%rbp),%rdi
  40392f:	48 8b 45 f0          	mov    -0x10(%rbp),%rax
  403933:	48 8b 30             	mov    (%rax),%rsi
  403936:	e8 c5 14 00 00       	call   404e00 <expand_arg>
  40393b:	48 89 45 e8          	mov    %rax,-0x18(%rbp)
  40393f:	48 8b 45 f0          	mov    -0x10(%rbp),%rax
  403943:	48 8b 38             	mov    (%rax),%rdi
  403946:	e8 e5 d6 ff ff       	call   401030 <free@plt>
  40394b:	48 8b 4d e8          	mov    -0x18(%rbp),%rcx
  40394f:	48 8b 45 f0          	mov    -0x10(%rbp),%rax
  403953:	48 89 08             	mov    %rcx,(%rax)
  403956:	48 8b 45 f0          	mov    -0x10(%rbp),%rax
  40395a:	48 8b 38             	mov    (%rax),%rdi
  40395d:	be 27 00 00 00       	mov    $0x27,%esi
  403962:	e8 89 6c 00 00       	call   40a5f0 <ft_strchr>
  403967:	48 83 f8 00          	cmp    $0x0,%rax
  40396b:	0f 85 1b 00 00 00    	jne    40398c <process_vars_and_quotes+0x8c>
  403971:	48 8b 45 f0          	mov    -0x10(%rbp),%rax
  403975:	48 8b 38             	mov    (%rax),%rdi
  403978:	be 22 00 00 00       	mov    $0x22,%esi
  40397d:	e8 6e 6c 00 00       	call   40a5f0 <ft_strchr>
  403982:	48 83 f8 00          	cmp    $0x0,%rax
  403986:	0f 84 2b 00 00 00    	je     4039b7 <process_vars_and_quotes+0xb7>
  40398c:	48 8b 7d f8          	mov    -0x8(%rbp),%rdi
  403990:	48 8b 45 f0          	mov    -0x10(%rbp),%rax
  403994:	48 8b 30             	mov    (%rax),%rsi
  403997:	e8 44 1a 00 00       	call   4053e0 <rm_quotes>
  40399c:	48 89 45 e0          	mov    %rax,-0x20(%rbp)
  4039a0:	48 8b 45 f0          	mov    -0x10(%rbp),%rax
  4039a4:	48 8b 38             	mov    (%rax),%rdi
  4039a7:	e8 84 d6 ff ff       	call   401030 <free@plt>
  4039ac:	48 8b 4d e0          	mov    -0x20(%rbp),%rcx
  4039b0:	48 8b 45 f0          	mov    -0x10(%rbp),%rax
  4039b4:	48 89 08             	mov    %rcx,(%rax)
  4039b7:	48 83 c4 20          	add    $0x20,%rsp
  4039bb:	5d                   	pop    %rbp
  4039bc:	c3                   	ret    
  4039bd:	0f 1f 00             	nopl   (%rax)

00000000004039c0 <process_vars>:
  4039c0:	55                   	push   %rbp
  4039c1:	48 89 e5             	mov    %rsp,%rbp
  4039c4:	48 83 ec 20          	sub    $0x20,%rsp
  4039c8:	48 89 7d f8          	mov    %rdi,-0x8(%rbp)
  4039cc:	48 89 75 f0          	mov    %rsi,-0x10(%rbp)
  4039d0:	48 8b 45 f0          	mov    -0x10(%rbp),%rax
  4039d4:	48 8b 38             	mov    (%rax),%rdi
  4039d7:	be 24 00 00 00       	mov    $0x24,%esi
  4039dc:	e8 0f 6c 00 00       	call   40a5f0 <ft_strchr>
  4039e1:	48 83 f8 00          	cmp    $0x0,%rax
  4039e5:	0f 84 2b 00 00 00    	je     403a16 <process_vars+0x56>
  4039eb:	48 8b 7d f8          	mov    -0x8(%rbp),%rdi
  4039ef:	48 8b 45 f0          	mov    -0x10(%rbp),%rax
  4039f3:	48 8b 30             	mov    (%rax),%rsi
  4039f6:	e8 05 14 00 00       	call   404e00 <expand_arg>
  4039fb:	48 89 45 e8          	mov    %rax,-0x18(%rbp)
  4039ff:	48 8b 45 f0          	mov    -0x10(%rbp),%rax
  403a03:	48 8b 38             	mov    (%rax),%rdi
  403a06:	e8 25 d6 ff ff       	call   401030 <free@plt>
  403a0b:	48 8b 4d e8          	mov    -0x18(%rbp),%rcx
  403a0f:	48 8b 45 f0          	mov    -0x10(%rbp),%rax
  403a13:	48 89 08             	mov    %rcx,(%rax)
  403a16:	48 83 c4 20          	add    $0x20,%rsp
  403a1a:	5d                   	pop    %rbp
  403a1b:	c3                   	ret    
  403a1c:	0f 1f 40 00          	nopl   0x0(%rax)

0000000000403a20 <process_quotes>:
  403a20:	55                   	push   %rbp
  403a21:	48 89 e5             	mov    %rsp,%rbp
  403a24:	48 83 ec 20          	sub    $0x20,%rsp
  403a28:	48 89 7d f8          	mov    %rdi,-0x8(%rbp)
  403a2c:	48 89 75 f0          	mov    %rsi,-0x10(%rbp)
  403a30:	48 8b 45 f0          	mov    -0x10(%rbp),%rax
  403a34:	48 8b 38             	mov    (%rax),%rdi
  403a37:	be 27 00 00 00       	mov    $0x27,%esi
  403a3c:	e8 af 6b 00 00       	call   40a5f0 <ft_strchr>
  403a41:	48 83 f8 00          	cmp    $0x0,%rax
  403a45:	0f 85 1b 00 00 00    	jne    403a66 <process_quotes+0x46>
  403a4b:	48 8b 45 f0          	mov    -0x10(%rbp),%rax
  403a4f:	48 8b 38             	mov    (%rax),%rdi
  403a52:	be 22 00 00 00       	mov    $0x22,%esi
  403a57:	e8 94 6b 00 00       	call   40a5f0 <ft_strchr>
  403a5c:	48 83 f8 00          	cmp    $0x0,%rax
  403a60:	0f 84 2b 00 00 00    	je     403a91 <process_quotes+0x71>
  403a66:	48 8b 7d f8          	mov    -0x8(%rbp),%rdi
  403a6a:	48 8b 45 f0          	mov    -0x10(%rbp),%rax
  403a6e:	48 8b 30             	mov    (%rax),%rsi
  403a71:	e8 6a 19 00 00       	call   4053e0 <rm_quotes>
  403a76:	48 89 45 e8          	mov    %rax,-0x18(%rbp)
  403a7a:	48 8b 45 f0          	mov    -0x10(%rbp),%rax
  403a7e:	48 8b 38             	mov    (%rax),%rdi
  403a81:	e8 aa d5 ff ff       	call   401030 <free@plt>
  403a86:	48 8b 4d e8          	mov    -0x18(%rbp),%rcx
  403a8a:	48 8b 45 f0          	mov    -0x10(%rbp),%rax
  403a8e:	48 89 08             	mov    %rcx,(%rax)
  403a91:	48 83 c4 20          	add    $0x20,%rsp
  403a95:	5d                   	pop    %rbp
  403a96:	c3                   	ret    
  403a97:	66 0f 1f 84 00 00 00 	nopw   0x0(%rax,%rax,1)
  403a9e:	00 00 

0000000000403aa0 <process_vars_and_put_them_in_quotes>:
  403aa0:	55                   	push   %rbp
  403aa1:	48 89 e5             	mov    %rsp,%rbp
  403aa4:	48 83 ec 20          	sub    $0x20,%rsp
  403aa8:	48 89 7d f8          	mov    %rdi,-0x8(%rbp)
  403aac:	48 89 75 f0          	mov    %rsi,-0x10(%rbp)
  403ab0:	48 8b 45 f0          	mov    -0x10(%rbp),%rax
  403ab4:	48 8b 38             	mov    (%rax),%rdi
  403ab7:	be 24 00 00 00       	mov    $0x24,%esi
  403abc:	e8 2f 6b 00 00       	call   40a5f0 <ft_strchr>
  403ac1:	48 83 f8 00          	cmp    $0x0,%rax
  403ac5:	0f 84 03 01 00 00    	je     403bce <process_vars_and_put_them_in_quotes+0x12e>
  403acb:	48 8b 7d f8          	mov    -0x8(%rbp),%rdi
  403acf:	48 8b 45 f0          	mov    -0x10(%rbp),%rax
  403ad3:	48 8b 30             	mov    (%rax),%rsi
  403ad6:	e8 25 13 00 00       	call   404e00 <expand_arg>
  403adb:	48 89 45 e8          	mov    %rax,-0x18(%rbp)
  403adf:	48 8b 45 f0          	mov    -0x10(%rbp),%rax
  403ae3:	48 8b 38             	mov    (%rax),%rdi
  403ae6:	e8 45 d5 ff ff       	call   401030 <free@plt>
  403aeb:	48 83 7d e8 00       	cmpq   $0x0,-0x18(%rbp)
  403af0:	0f 84 d3 00 00 00    	je     403bc9 <process_vars_and_put_them_in_quotes+0x129>
  403af6:	48 8b 7d e8          	mov    -0x18(%rbp),%rdi
  403afa:	be 20 00 00 00       	mov    $0x20,%esi
  403aff:	e8 ec 6a 00 00       	call   40a5f0 <ft_strchr>
  403b04:	48 83 f8 00          	cmp    $0x0,%rax
  403b08:	0f 85 9a 00 00 00    	jne    403ba8 <process_vars_and_put_them_in_quotes+0x108>
  403b0e:	48 8b 75 e8          	mov    -0x18(%rbp),%rsi
  403b12:	48 bf 50 c3 40 00 00 	movabs $0x40c350,%rdi
  403b19:	00 00 00 
  403b1c:	e8 8f 74 00 00       	call   40afb0 <ft_strjoin>
  403b21:	48 89 c1             	mov    %rax,%rcx
  403b24:	48 8b 45 f0          	mov    -0x10(%rbp),%rax
  403b28:	48 89 08             	mov    %rcx,(%rax)
  403b2b:	48 8b 45 f0          	mov    -0x10(%rbp),%rax
  403b2f:	48 83 38 00          	cmpq   $0x0,(%rax)
  403b33:	0f 85 1c 00 00 00    	jne    403b55 <process_vars_and_put_them_in_quotes+0xb5>
  403b39:	48 8b 7d f8          	mov    -0x8(%rbp),%rdi
  403b3d:	48 be 52 c3 40 00 00 	movabs $0x40c352,%rsi
  403b44:	00 00 00 
  403b47:	31 c0                	xor    %eax,%eax
  403b49:	89 c2                	mov    %eax,%edx
  403b4b:	b9 ff 00 00 00       	mov    $0xff,%ecx
  403b50:	e8 ab 3f 00 00       	call   407b00 <snuff_it>
  403b55:	48 8b 7d e8          	mov    -0x18(%rbp),%rdi
  403b59:	e8 d2 d4 ff ff       	call   401030 <free@plt>
  403b5e:	48 8b 45 f0          	mov    -0x10(%rbp),%rax
  403b62:	48 8b 38             	mov    (%rax),%rdi
  403b65:	be 22 00 00 00       	mov    $0x22,%esi
  403b6a:	e8 e1 75 00 00       	call   40b150 <ft_strjoin_free>
  403b6f:	48 89 c1             	mov    %rax,%rcx
  403b72:	48 8b 45 f0          	mov    -0x10(%rbp),%rax
  403b76:	48 89 08             	mov    %rcx,(%rax)
  403b79:	48 8b 45 f0          	mov    -0x10(%rbp),%rax
  403b7d:	48 83 38 00          	cmpq   $0x0,(%rax)
  403b81:	0f 85 1c 00 00 00    	jne    403ba3 <process_vars_and_put_them_in_quotes+0x103>
  403b87:	48 8b 7d f8          	mov    -0x8(%rbp),%rdi
  403b8b:	48 be 52 c3 40 00 00 	movabs $0x40c352,%rsi
  403b92:	00 00 00 
  403b95:	31 c0                	xor    %eax,%eax
  403b97:	89 c2                	mov    %eax,%edx
  403b99:	b9 ff 00 00 00       	mov    $0xff,%ecx
  403b9e:	e8 5d 3f 00 00       	call   407b00 <snuff_it>
  403ba3:	e9 1c 00 00 00       	jmp    403bc4 <process_vars_and_put_them_in_quotes+0x124>
  403ba8:	48 8b 7d e8          	mov    -0x18(%rbp),%rdi
  403bac:	e8 8f 70 00 00       	call   40ac40 <ft_strdup>
  403bb1:	48 89 c1             	mov    %rax,%rcx
  403bb4:	48 8b 45 f0          	mov    -0x10(%rbp),%rax
  403bb8:	48 89 08             	mov    %rcx,(%rax)
  403bbb:	48 8b 7d e8          	mov    -0x18(%rbp),%rdi
  403bbf:	e8 6c d4 ff ff       	call   401030 <free@plt>
  403bc4:	e9 00 00 00 00       	jmp    403bc9 <process_vars_and_put_them_in_quotes+0x129>
  403bc9:	e9 00 00 00 00       	jmp    403bce <process_vars_and_put_them_in_quotes+0x12e>
  403bce:	48 83 c4 20          	add    $0x20,%rsp
  403bd2:	5d                   	pop    %rbp
  403bd3:	c3                   	ret    
  403bd4:	66 2e 0f 1f 84 00 00 	cs nopw 0x0(%rax,%rax,1)
  403bdb:	00 00 00 
  403bde:	66 90                	xchg   %ax,%ax

0000000000403be0 <check_quote_syntax>:
  403be0:	55                   	push   %rbp
  403be1:	48 89 e5             	mov    %rsp,%rbp
  403be4:	48 83 ec 20          	sub    $0x20,%rsp
  403be8:	48 89 7d f0          	mov    %rdi,-0x10(%rbp)
  403bec:	c7 45 e4 00 00 00 00 	movl   $0x0,-0x1c(%rbp)
  403bf3:	c7 45 e0 00 00 00 00 	movl   $0x0,-0x20(%rbp)
  403bfa:	48 8b 45 f0          	mov    -0x10(%rbp),%rax
  403bfe:	48 8b 40 20          	mov    0x20(%rax),%rax
  403c02:	48 89 45 e8          	mov    %rax,-0x18(%rbp)
  403c06:	48 83 7d e8 00       	cmpq   $0x0,-0x18(%rbp)
  403c0b:	0f 85 0c 00 00 00    	jne    403c1d <check_quote_syntax+0x3d>
  403c11:	c7 45 fc 01 00 00 00 	movl   $0x1,-0x4(%rbp)
  403c18:	e9 c7 00 00 00       	jmp    403ce4 <check_quote_syntax+0x104>
  403c1d:	e9 00 00 00 00       	jmp    403c22 <check_quote_syntax+0x42>
  403c22:	48 8b 45 e8          	mov    -0x18(%rbp),%rax
  403c26:	80 38 00             	cmpb   $0x0,(%rax)
  403c29:	0f 84 67 00 00 00    	je     403c96 <check_quote_syntax+0xb6>
  403c2f:	48 8b 45 e8          	mov    -0x18(%rbp),%rax
  403c33:	0f be 00             	movsbl (%rax),%eax
  403c36:	83 f8 27             	cmp    $0x27,%eax
  403c39:	0f 85 1b 00 00 00    	jne    403c5a <check_quote_syntax+0x7a>
  403c3f:	83 7d e0 00          	cmpl   $0x0,-0x20(%rbp)
  403c43:	0f 85 11 00 00 00    	jne    403c5a <check_quote_syntax+0x7a>
  403c49:	83 7d e4 00          	cmpl   $0x0,-0x1c(%rbp)
  403c4d:	0f 95 c0             	setne  %al
  403c50:	34 ff                	xor    $0xff,%al
  403c52:	24 01                	and    $0x1,%al
  403c54:	0f b6 c0             	movzbl %al,%eax
  403c57:	89 45 e4             	mov    %eax,-0x1c(%rbp)
  403c5a:	48 8b 45 e8          	mov    -0x18(%rbp),%rax
  403c5e:	0f be 00             	movsbl (%rax),%eax
  403c61:	83 f8 22             	cmp    $0x22,%eax
  403c64:	0f 85 1b 00 00 00    	jne    403c85 <check_quote_syntax+0xa5>
  403c6a:	83 7d e4 00          	cmpl   $0x0,-0x1c(%rbp)
  403c6e:	0f 85 11 00 00 00    	jne    403c85 <check_quote_syntax+0xa5>
  403c74:	83 7d e0 00          	cmpl   $0x0,-0x20(%rbp)
  403c78:	0f 95 c0             	setne  %al
  403c7b:	34 ff                	xor    $0xff,%al
  403c7d:	24 01                	and    $0x1,%al
  403c7f:	0f b6 c0             	movzbl %al,%eax
  403c82:	89 45 e0             	mov    %eax,-0x20(%rbp)
  403c85:	48 8b 45 e8          	mov    -0x18(%rbp),%rax
  403c89:	48 83 c0 01          	add    $0x1,%rax
  403c8d:	48 89 45 e8          	mov    %rax,-0x18(%rbp)
  403c91:	e9 8c ff ff ff       	jmp    403c22 <check_quote_syntax+0x42>
  403c96:	83 7d e4 00          	cmpl   $0x0,-0x1c(%rbp)
  403c9a:	0f 85 0a 00 00 00    	jne    403caa <check_quote_syntax+0xca>
  403ca0:	83 7d e0 00          	cmpl   $0x0,-0x20(%rbp)
  403ca4:	0f 84 33 00 00 00    	je     403cdd <check_quote_syntax+0xfd>
  403caa:	48 8b 45 f0          	mov    -0x10(%rbp),%rax
  403cae:	c7 40 6c 02 00 00 00 	movl   $0x2,0x6c(%rax)
  403cb5:	48 8b 7d f0          	mov    -0x10(%rbp),%rdi
  403cb9:	48 be 70 c3 40 00 00 	movabs $0x40c370,%rsi
  403cc0:	00 00 00 
  403cc3:	31 c0                	xor    %eax,%eax
  403cc5:	89 c2                	mov    %eax,%edx
  403cc7:	b9 02 00 00 00       	mov    $0x2,%ecx
  403ccc:	e8 df d8 ff ff       	call   4015b0 <boo>
  403cd1:	c7 45 fc 02 00 00 00 	movl   $0x2,-0x4(%rbp)
  403cd8:	e9 07 00 00 00       	jmp    403ce4 <check_quote_syntax+0x104>
  403cdd:	c7 45 fc 00 00 00 00 	movl   $0x0,-0x4(%rbp)
  403ce4:	8b 45 fc             	mov    -0x4(%rbp),%eax
  403ce7:	48 83 c4 20          	add    $0x20,%rsp
  403ceb:	5d                   	pop    %rbp
  403cec:	c3                   	ret    
  403ced:	0f 1f 00             	nopl   (%rax)

0000000000403cf0 <check_token_syntax>:
  403cf0:	55                   	push   %rbp
  403cf1:	48 89 e5             	mov    %rsp,%rbp
  403cf4:	48 83 ec 20          	sub    $0x20,%rsp
  403cf8:	48 89 7d f0          	mov    %rdi,-0x10(%rbp)
  403cfc:	48 8b 45 f0          	mov    -0x10(%rbp),%rax
  403d00:	48 8b 40 08          	mov    0x8(%rax),%rax
  403d04:	48 89 45 e8          	mov    %rax,-0x18(%rbp)
  403d08:	48 8b 45 e8          	mov    -0x18(%rbp),%rax
  403d0c:	83 38 0c             	cmpl   $0xc,(%rax)
  403d0f:	0f 85 0c 00 00 00    	jne    403d21 <check_token_syntax+0x31>
  403d15:	c7 45 fc 00 00 00 00 	movl   $0x0,-0x4(%rbp)
  403d1c:	e9 ed 00 00 00       	jmp    403e0e <check_token_syntax+0x11e>
  403d21:	e9 00 00 00 00       	jmp    403d26 <check_token_syntax+0x36>
  403d26:	48 83 7d e8 00       	cmpq   $0x0,-0x18(%rbp)
  403d2b:	0f 84 d6 00 00 00    	je     403e07 <check_token_syntax+0x117>
  403d31:	48 8b 45 e8          	mov    -0x18(%rbp),%rax
  403d35:	8b 38                	mov    (%rax),%edi
  403d37:	e8 84 e8 ff ff       	call   4025c0 <is_redirecting>
  403d3c:	83 f8 00             	cmp    $0x0,%eax
  403d3f:	0f 84 37 00 00 00    	je     403d7c <check_token_syntax+0x8c>
  403d45:	48 8b 45 e8          	mov    -0x18(%rbp),%rax
  403d49:	48 83 78 08 00       	cmpq   $0x0,0x8(%rax)
  403d4e:	0f 85 28 00 00 00    	jne    403d7c <check_token_syntax+0x8c>
  403d54:	48 8b 7d f0          	mov    -0x10(%rbp),%rdi
  403d58:	48 be 70 c3 40 00 00 	movabs $0x40c370,%rsi
  403d5f:	00 00 00 
  403d62:	31 c0                	xor    %eax,%eax
  403d64:	89 c2                	mov    %eax,%edx
  403d66:	b9 02 00 00 00       	mov    $0x2,%ecx
  403d6b:	e8 40 d8 ff ff       	call   4015b0 <boo>
  403d70:	c7 45 fc 02 00 00 00 	movl   $0x2,-0x4(%rbp)
  403d77:	e9 92 00 00 00       	jmp    403e0e <check_token_syntax+0x11e>
  403d7c:	48 8b 45 e8          	mov    -0x18(%rbp),%rax
  403d80:	83 38 05             	cmpl   $0x5,(%rax)
  403d83:	0f 85 68 00 00 00    	jne    403df1 <check_token_syntax+0x101>
  403d89:	48 8b 45 e8          	mov    -0x18(%rbp),%rax
  403d8d:	48 83 78 20 00       	cmpq   $0x0,0x20(%rax)
  403d92:	0f 84 31 00 00 00    	je     403dc9 <check_token_syntax+0xd9>
  403d98:	48 8b 45 e8          	mov    -0x18(%rbp),%rax
  403d9c:	48 83 78 28 00       	cmpq   $0x0,0x28(%rax)
  403da1:	0f 84 22 00 00 00    	je     403dc9 <check_token_syntax+0xd9>
  403da7:	48 8b 45 e8          	mov    -0x18(%rbp),%rax
  403dab:	48 8b 40 28          	mov    0x28(%rax),%rax
  403daf:	83 38 0c             	cmpl   $0xc,(%rax)
  403db2:	0f 84 11 00 00 00    	je     403dc9 <check_token_syntax+0xd9>
  403db8:	48 8b 45 e8          	mov    -0x18(%rbp),%rax
  403dbc:	48 8b 40 28          	mov    0x28(%rax),%rax
  403dc0:	83 38 05             	cmpl   $0x5,(%rax)
  403dc3:	0f 85 28 00 00 00    	jne    403df1 <check_token_syntax+0x101>
  403dc9:	48 8b 7d f0          	mov    -0x10(%rbp),%rdi
  403dcd:	48 be 70 c3 40 00 00 	movabs $0x40c370,%rsi
  403dd4:	00 00 00 
  403dd7:	31 c0                	xor    %eax,%eax
  403dd9:	89 c2                	mov    %eax,%edx
  403ddb:	b9 02 00 00 00       	mov    $0x2,%ecx
  403de0:	e8 cb d7 ff ff       	call   4015b0 <boo>
  403de5:	c7 45 fc 02 00 00 00 	movl   $0x2,-0x4(%rbp)
  403dec:	e9 1d 00 00 00       	jmp    403e0e <check_token_syntax+0x11e>
  403df1:	48 8b 45 e8          	mov    -0x18(%rbp),%rax
  403df5:	48 8b 40 28          	mov    0x28(%rax),%rax
  403df9:	48 89 45 e8          	mov    %rax,-0x18(%rbp)
  403dfd:	e9 00 00 00 00       	jmp    403e02 <check_token_syntax+0x112>
  403e02:	e9 1f ff ff ff       	jmp    403d26 <check_token_syntax+0x36>
  403e07:	c7 45 fc 00 00 00 00 	movl   $0x0,-0x4(%rbp)
  403e0e:	8b 45 fc             	mov    -0x4(%rbp),%eax
  403e11:	48 83 c4 20          	add    $0x20,%rsp
  403e15:	5d                   	pop    %rbp
  403e16:	c3                   	ret    
  403e17:	66 0f 1f 84 00 00 00 	nopw   0x0(%rax,%rax,1)
  403e1e:	00 00 

0000000000403e20 <make_empty_exec>:
  403e20:	55                   	push   %rbp
  403e21:	48 89 e5             	mov    %rsp,%rbp
  403e24:	48 83 ec 10          	sub    $0x10,%rsp
  403e28:	48 89 7d f8          	mov    %rdi,-0x8(%rbp)
  403e2c:	48 c7 45 f0 00 00 00 	movq   $0x0,-0x10(%rbp)
  403e33:	00 
  403e34:	bf 48 00 00 00       	mov    $0x48,%edi
  403e39:	e8 f2 d2 ff ff       	call   401130 <malloc@plt>
  403e3e:	48 89 45 f0          	mov    %rax,-0x10(%rbp)
  403e42:	48 83 7d f0 00       	cmpq   $0x0,-0x10(%rbp)
  403e47:	0f 85 1c 00 00 00    	jne    403e69 <make_empty_exec+0x49>
  403e4d:	48 8b 7d f8          	mov    -0x8(%rbp),%rdi
  403e51:	48 be 94 c3 40 00 00 	movabs $0x40c394,%rsi
  403e58:	00 00 00 
  403e5b:	31 c0                	xor    %eax,%eax
  403e5d:	89 c2                	mov    %eax,%edx
  403e5f:	b9 ff 00 00 00       	mov    $0xff,%ecx
  403e64:	e8 97 3c 00 00       	call   407b00 <snuff_it>
  403e69:	48 8b 45 f0          	mov    -0x10(%rbp),%rax
  403e6d:	48 c7 00 00 00 00 00 	movq   $0x0,(%rax)
  403e74:	48 8b 45 f0          	mov    -0x10(%rbp),%rax
  403e78:	48 c7 40 08 00 00 00 	movq   $0x0,0x8(%rax)
  403e7f:	00 
  403e80:	48 8b 45 f0          	mov    -0x10(%rbp),%rax
  403e84:	c7 40 18 00 00 00 00 	movl   $0x0,0x18(%rax)
  403e8b:	48 8b 45 f0          	mov    -0x10(%rbp),%rax
  403e8f:	48 c7 40 20 00 00 00 	movq   $0x0,0x20(%rax)
  403e96:	00 
  403e97:	48 8b 45 f0          	mov    -0x10(%rbp),%rax
  403e9b:	48 c7 40 28 00 00 00 	movq   $0x0,0x28(%rax)
  403ea2:	00 
  403ea3:	48 8b 45 f0          	mov    -0x10(%rbp),%rax
  403ea7:	48 c7 40 10 00 00 00 	movq   $0x0,0x10(%rax)
  403eae:	00 
  403eaf:	48 8b 45 f0          	mov    -0x10(%rbp),%rax
  403eb3:	48 c7 40 40 00 00 00 	movq   $0x0,0x40(%rax)
  403eba:	00 
  403ebb:	48 8b 45 f0          	mov    -0x10(%rbp),%rax
  403ebf:	48 c7 40 38 00 00 00 	movq   $0x0,0x38(%rax)
  403ec6:	00 
  403ec7:	48 8b 45 f0          	mov    -0x10(%rbp),%rax
  403ecb:	c7 40 30 00 00 00 00 	movl   $0x0,0x30(%rax)
  403ed2:	48 8b 45 f0          	mov    -0x10(%rbp),%rax
  403ed6:	48 83 c4 10          	add    $0x10,%rsp
  403eda:	5d                   	pop    %rbp
  403edb:	c3                   	ret    
  403edc:	0f 1f 40 00          	nopl   0x0(%rax)

0000000000403ee0 <exec_lstadd_back>:
  403ee0:	55                   	push   %rbp
  403ee1:	48 89 e5             	mov    %rsp,%rbp
  403ee4:	48 89 7d f8          	mov    %rdi,-0x8(%rbp)
  403ee8:	48 89 75 f0          	mov    %rsi,-0x10(%rbp)
  403eec:	48 8b 45 f8          	mov    -0x8(%rbp),%rax
  403ef0:	48 8b 00             	mov    (%rax),%rax
  403ef3:	48 89 45 e8          	mov    %rax,-0x18(%rbp)
  403ef7:	48 8b 45 f8          	mov    -0x8(%rbp),%rax
  403efb:	48 83 38 00          	cmpq   $0x0,(%rax)
  403eff:	0f 85 10 00 00 00    	jne    403f15 <exec_lstadd_back+0x35>
  403f05:	48 8b 4d f0          	mov    -0x10(%rbp),%rcx
  403f09:	48 8b 45 f8          	mov    -0x8(%rbp),%rax
  403f0d:	48 89 08             	mov    %rcx,(%rax)
  403f10:	e9 31 00 00 00       	jmp    403f46 <exec_lstadd_back+0x66>
  403f15:	e9 00 00 00 00       	jmp    403f1a <exec_lstadd_back+0x3a>
  403f1a:	48 8b 45 e8          	mov    -0x18(%rbp),%rax
  403f1e:	48 83 78 40 00       	cmpq   $0x0,0x40(%rax)
  403f23:	0f 84 11 00 00 00    	je     403f3a <exec_lstadd_back+0x5a>
  403f29:	48 8b 45 e8          	mov    -0x18(%rbp),%rax
  403f2d:	48 8b 40 40          	mov    0x40(%rax),%rax
  403f31:	48 89 45 e8          	mov    %rax,-0x18(%rbp)
  403f35:	e9 e0 ff ff ff       	jmp    403f1a <exec_lstadd_back+0x3a>
  403f3a:	48 8b 4d f0          	mov    -0x10(%rbp),%rcx
  403f3e:	48 8b 45 e8          	mov    -0x18(%rbp),%rax
  403f42:	48 89 48 40          	mov    %rcx,0x40(%rax)
  403f46:	5d                   	pop    %rbp
  403f47:	c3                   	ret    
  403f48:	0f 1f 84 00 00 00 00 	nopl   0x0(%rax,%rax,1)
  403f4f:	00 

0000000000403f50 <count_executives>:
  403f50:	55                   	push   %rbp
  403f51:	48 89 e5             	mov    %rsp,%rbp
  403f54:	48 89 7d f8          	mov    %rdi,-0x8(%rbp)
  403f58:	c7 45 f4 00 00 00 00 	movl   $0x0,-0xc(%rbp)
  403f5f:	48 8b 45 f8          	mov    -0x8(%rbp),%rax
  403f63:	48 8b 00             	mov    (%rax),%rax
  403f66:	48 89 45 e8          	mov    %rax,-0x18(%rbp)
  403f6a:	48 83 7d e8 00       	cmpq   $0x0,-0x18(%rbp)
  403f6f:	0f 84 1a 00 00 00    	je     403f8f <count_executives+0x3f>
  403f75:	8b 45 f4             	mov    -0xc(%rbp),%eax
  403f78:	83 c0 01             	add    $0x1,%eax
  403f7b:	89 45 f4             	mov    %eax,-0xc(%rbp)
  403f7e:	48 8b 45 e8          	mov    -0x18(%rbp),%rax
  403f82:	48 8b 40 40          	mov    0x40(%rax),%rax
  403f86:	48 89 45 e8          	mov    %rax,-0x18(%rbp)
  403f8a:	e9 db ff ff ff       	jmp    403f6a <count_executives+0x1a>
  403f8f:	8b 4d f4             	mov    -0xc(%rbp),%ecx
  403f92:	48 8b 45 f8          	mov    -0x8(%rbp),%rax
  403f96:	89 48 44             	mov    %ecx,0x44(%rax)
  403f99:	8b 45 f4             	mov    -0xc(%rbp),%eax
  403f9c:	5d                   	pop    %rbp
  403f9d:	c3                   	ret    
  403f9e:	66 90                	xchg   %ax,%ax

0000000000403fa0 <redir_lstadd_back>:
  403fa0:	55                   	push   %rbp
  403fa1:	48 89 e5             	mov    %rsp,%rbp
  403fa4:	48 89 7d f8          	mov    %rdi,-0x8(%rbp)
  403fa8:	48 89 75 f0          	mov    %rsi,-0x10(%rbp)
  403fac:	48 8b 45 f8          	mov    -0x8(%rbp),%rax
  403fb0:	48 8b 00             	mov    (%rax),%rax
  403fb3:	48 89 45 e8          	mov    %rax,-0x18(%rbp)
  403fb7:	48 8b 45 f8          	mov    -0x8(%rbp),%rax
  403fbb:	48 83 38 00          	cmpq   $0x0,(%rax)
  403fbf:	0f 85 10 00 00 00    	jne    403fd5 <redir_lstadd_back+0x35>
  403fc5:	48 8b 4d f0          	mov    -0x10(%rbp),%rcx
  403fc9:	48 8b 45 f8          	mov    -0x8(%rbp),%rax
  403fcd:	48 89 08             	mov    %rcx,(%rax)
  403fd0:	e9 31 00 00 00       	jmp    404006 <redir_lstadd_back+0x66>
  403fd5:	e9 00 00 00 00       	jmp    403fda <redir_lstadd_back+0x3a>
  403fda:	48 8b 45 e8          	mov    -0x18(%rbp),%rax
  403fde:	48 83 78 28 00       	cmpq   $0x0,0x28(%rax)
  403fe3:	0f 84 11 00 00 00    	je     403ffa <redir_lstadd_back+0x5a>
  403fe9:	48 8b 45 e8          	mov    -0x18(%rbp),%rax
  403fed:	48 8b 40 28          	mov    0x28(%rax),%rax
  403ff1:	48 89 45 e8          	mov    %rax,-0x18(%rbp)
  403ff5:	e9 e0 ff ff ff       	jmp    403fda <redir_lstadd_back+0x3a>
  403ffa:	48 8b 4d f0          	mov    -0x10(%rbp),%rcx
  403ffe:	48 8b 45 e8          	mov    -0x18(%rbp),%rax
  404002:	48 89 48 28          	mov    %rcx,0x28(%rax)
  404006:	5d                   	pop    %rbp
  404007:	c3                   	ret    
  404008:	0f 1f 84 00 00 00 00 	nopl   0x0(%rax,%rax,1)
  40400f:	00 

0000000000404010 <set_rdr_file_or_delimiter>:
  404010:	55                   	push   %rbp
  404011:	48 89 e5             	mov    %rsp,%rbp
  404014:	48 83 ec 20          	sub    $0x20,%rsp
  404018:	48 89 7d f8          	mov    %rdi,-0x8(%rbp)
  40401c:	48 89 75 f0          	mov    %rsi,-0x10(%rbp)
  404020:	48 89 55 e8          	mov    %rdx,-0x18(%rbp)
  404024:	48 8b 45 e8          	mov    -0x18(%rbp),%rax
  404028:	83 38 06             	cmpl   $0x6,(%rax)
  40402b:	0f 84 1a 00 00 00    	je     40404b <set_rdr_file_or_delimiter+0x3b>
  404031:	48 8b 45 e8          	mov    -0x18(%rbp),%rax
  404035:	83 38 07             	cmpl   $0x7,(%rax)
  404038:	0f 84 0d 00 00 00    	je     40404b <set_rdr_file_or_delimiter+0x3b>
  40403e:	48 8b 45 e8          	mov    -0x18(%rbp),%rax
  404042:	83 38 08             	cmpl   $0x8,(%rax)
  404045:	0f 85 59 00 00 00    	jne    4040a4 <set_rdr_file_or_delimiter+0x94>
  40404b:	48 8b 45 f0          	mov    -0x10(%rbp),%rax
  40404f:	48 8b 78 08          	mov    0x8(%rax),%rdi
  404053:	e8 e8 6b 00 00       	call   40ac40 <ft_strdup>
  404058:	48 89 c1             	mov    %rax,%rcx
  40405b:	48 8b 45 e8          	mov    -0x18(%rbp),%rax
  40405f:	48 89 48 08          	mov    %rcx,0x8(%rax)
  404063:	48 8b 45 e8          	mov    -0x18(%rbp),%rax
  404067:	48 83 78 08 00       	cmpq   $0x0,0x8(%rax)
  40406c:	0f 85 2d 00 00 00    	jne    40409f <set_rdr_file_or_delimiter+0x8f>
  404072:	48 8b 7d e8          	mov    -0x18(%rbp),%rdi
  404076:	e8 b5 cf ff ff       	call   401030 <free@plt>
  40407b:	48 c7 45 e8 00 00 00 	movq   $0x0,-0x18(%rbp)
  404082:	00 
  404083:	48 8b 7d f8          	mov    -0x8(%rbp),%rdi
  404087:	48 be b6 c3 40 00 00 	movabs $0x40c3b6,%rsi
  40408e:	00 00 00 
  404091:	31 c0                	xor    %eax,%eax
  404093:	89 c2                	mov    %eax,%edx
  404095:	b9 ff 00 00 00       	mov    $0xff,%ecx
  40409a:	e8 61 3a 00 00       	call   407b00 <snuff_it>
  40409f:	e9 00 00 00 00       	jmp    4040a4 <set_rdr_file_or_delimiter+0x94>
  4040a4:	48 8b 45 e8          	mov    -0x18(%rbp),%rax
  4040a8:	83 38 09             	cmpl   $0x9,(%rax)
  4040ab:	0f 85 59 00 00 00    	jne    40410a <set_rdr_file_or_delimiter+0xfa>
  4040b1:	48 8b 45 f0          	mov    -0x10(%rbp),%rax
  4040b5:	48 8b 78 08          	mov    0x8(%rax),%rdi
  4040b9:	e8 82 6b 00 00       	call   40ac40 <ft_strdup>
  4040be:	48 89 c1             	mov    %rax,%rcx
  4040c1:	48 8b 45 e8          	mov    -0x18(%rbp),%rax
  4040c5:	48 89 48 10          	mov    %rcx,0x10(%rax)
  4040c9:	48 8b 45 e8          	mov    -0x18(%rbp),%rax
  4040cd:	48 83 78 10 00       	cmpq   $0x0,0x10(%rax)
  4040d2:	0f 85 2d 00 00 00    	jne    404105 <set_rdr_file_or_delimiter+0xf5>
  4040d8:	48 8b 7d e8          	mov    -0x18(%rbp),%rdi
  4040dc:	e8 4f cf ff ff       	call   401030 <free@plt>
  4040e1:	48 c7 45 e8 00 00 00 	movq   $0x0,-0x18(%rbp)
  4040e8:	00 
  4040e9:	48 8b 7d f8          	mov    -0x8(%rbp),%rdi
  4040ed:	48 be e0 c3 40 00 00 	movabs $0x40c3e0,%rsi
  4040f4:	00 00 00 
  4040f7:	31 c0                	xor    %eax,%eax
  4040f9:	89 c2                	mov    %eax,%edx
  4040fb:	b9 ff 00 00 00       	mov    $0xff,%ecx
  404100:	e8 fb 39 00 00       	call   407b00 <snuff_it>
  404105:	e9 00 00 00 00       	jmp    40410a <set_rdr_file_or_delimiter+0xfa>
  40410a:	48 83 c4 20          	add    $0x20,%rsp
  40410e:	5d                   	pop    %rbp
  40410f:	c3                   	ret    

0000000000404110 <extend_redirection_lists>:
  404110:	55                   	push   %rbp
  404111:	48 89 e5             	mov    %rsp,%rbp
  404114:	48 83 ec 20          	sub    $0x20,%rsp
  404118:	48 89 7d f8          	mov    %rdi,-0x8(%rbp)
  40411c:	48 89 75 f0          	mov    %rsi,-0x10(%rbp)
  404120:	48 89 55 e8          	mov    %rdx,-0x18(%rbp)
  404124:	bf 30 00 00 00       	mov    $0x30,%edi
  404129:	e8 02 d0 ff ff       	call   401130 <malloc@plt>
  40412e:	48 89 45 e0          	mov    %rax,-0x20(%rbp)
  404132:	48 83 7d e0 00       	cmpq   $0x0,-0x20(%rbp)
  404137:	0f 85 1c 00 00 00    	jne    404159 <extend_redirection_lists+0x49>
  40413d:	48 8b 7d f8          	mov    -0x8(%rbp),%rdi
  404141:	48 be 0f c4 40 00 00 	movabs $0x40c40f,%rsi
  404148:	00 00 00 
  40414b:	31 c0                	xor    %eax,%eax
  40414d:	89 c2                	mov    %eax,%edx
  40414f:	b9 ff 00 00 00       	mov    $0xff,%ecx
  404154:	e8 a7 39 00 00       	call   407b00 <snuff_it>
  404159:	48 8b 45 f0          	mov    -0x10(%rbp),%rax
  40415d:	8b 08                	mov    (%rax),%ecx
  40415f:	48 8b 45 e0          	mov    -0x20(%rbp),%rax
  404163:	89 08                	mov    %ecx,(%rax)
  404165:	48 8b 45 e0          	mov    -0x20(%rbp),%rax
  404169:	48 c7 40 08 00 00 00 	movq   $0x0,0x8(%rax)
  404170:	00 
  404171:	48 8b 45 e0          	mov    -0x20(%rbp),%rax
  404175:	48 c7 40 10 00 00 00 	movq   $0x0,0x10(%rax)
  40417c:	00 
  40417d:	48 8b 7d f8          	mov    -0x8(%rbp),%rdi
  404181:	48 8b 75 f0          	mov    -0x10(%rbp),%rsi
  404185:	48 8b 55 e0          	mov    -0x20(%rbp),%rdx
  404189:	e8 82 fe ff ff       	call   404010 <set_rdr_file_or_delimiter>
  40418e:	48 8b 45 e0          	mov    -0x20(%rbp),%rax
  404192:	c7 40 18 ff ff ff ff 	movl   $0xffffffff,0x18(%rax)
  404199:	48 8b 45 f0          	mov    -0x10(%rbp),%rax
  40419d:	8b 48 1c             	mov    0x1c(%rax),%ecx
  4041a0:	48 8b 45 e0          	mov    -0x20(%rbp),%rax
  4041a4:	89 48 1c             	mov    %ecx,0x1c(%rax)
  4041a7:	48 8b 45 e0          	mov    -0x20(%rbp),%rax
  4041ab:	48 c7 40 28 00 00 00 	movq   $0x0,0x28(%rax)
  4041b2:	00 
  4041b3:	48 8b 45 e0          	mov    -0x20(%rbp),%rax
  4041b7:	83 38 06             	cmpl   $0x6,(%rax)
  4041ba:	0f 84 0d 00 00 00    	je     4041cd <extend_redirection_lists+0xbd>
  4041c0:	48 8b 45 e0          	mov    -0x20(%rbp),%rax
  4041c4:	83 38 09             	cmpl   $0x9,(%rax)
  4041c7:	0f 85 14 00 00 00    	jne    4041e1 <extend_redirection_lists+0xd1>
  4041cd:	48 8b 45 e8          	mov    -0x18(%rbp),%rax
  4041d1:	48 8b 38             	mov    (%rax),%rdi
  4041d4:	48 83 c7 20          	add    $0x20,%rdi
  4041d8:	48 8b 75 e0          	mov    -0x20(%rbp),%rsi
  4041dc:	e8 bf fd ff ff       	call   403fa0 <redir_lstadd_back>
  4041e1:	48 8b 45 e0          	mov    -0x20(%rbp),%rax
  4041e5:	83 38 07             	cmpl   $0x7,(%rax)
  4041e8:	0f 84 0d 00 00 00    	je     4041fb <extend_redirection_lists+0xeb>
  4041ee:	48 8b 45 e0          	mov    -0x20(%rbp),%rax
  4041f2:	83 38 08             	cmpl   $0x8,(%rax)
  4041f5:	0f 85 14 00 00 00    	jne    40420f <extend_redirection_lists+0xff>
  4041fb:	48 8b 45 e8          	mov    -0x18(%rbp),%rax
  4041ff:	48 8b 38             	mov    (%rax),%rdi
  404202:	48 83 c7 28          	add    $0x28,%rdi
  404206:	48 8b 75 e0          	mov    -0x20(%rbp),%rsi
  40420a:	e8 91 fd ff ff       	call   403fa0 <redir_lstadd_back>
  40420f:	48 83 c4 20          	add    $0x20,%rsp
  404213:	5d                   	pop    %rbp
  404214:	c3                   	ret    
  404215:	66 2e 0f 1f 84 00 00 	cs nopw 0x0(%rax,%rax,1)
  40421c:	00 00 00 
  40421f:	90                   	nop

0000000000404220 <handle_command_token>:
  404220:	55                   	push   %rbp
  404221:	48 89 e5             	mov    %rsp,%rbp
  404224:	48 83 ec 30          	sub    $0x30,%rsp
  404228:	48 89 7d f8          	mov    %rdi,-0x8(%rbp)
  40422c:	48 89 75 f0          	mov    %rsi,-0x10(%rbp)
  404230:	48 89 55 e8          	mov    %rdx,-0x18(%rbp)
  404234:	48 8b 45 f0          	mov    -0x10(%rbp),%rax
  404238:	48 8b 00             	mov    (%rax),%rax
  40423b:	48 89 45 e0          	mov    %rax,-0x20(%rbp)
  40423f:	c7 45 dc 00 00 00 00 	movl   $0x0,-0x24(%rbp)
  404246:	48 8b 4d f0          	mov    -0x10(%rbp),%rcx
  40424a:	31 c0                	xor    %eax,%eax
  40424c:	48 83 39 00          	cmpq   $0x0,(%rcx)
  404250:	88 45 db             	mov    %al,-0x25(%rbp)
  404253:	0f 84 12 00 00 00    	je     40426b <handle_command_token+0x4b>
  404259:	48 8b 45 f0          	mov    -0x10(%rbp),%rax
  40425d:	48 8b 00             	mov    (%rax),%rax
  404260:	48 83 78 08 00       	cmpq   $0x0,0x8(%rax)
  404265:	0f 95 c0             	setne  %al
  404268:	88 45 db             	mov    %al,-0x25(%rbp)
  40426b:	8a 45 db             	mov    -0x25(%rbp),%al
  40426e:	a8 01                	test   $0x1,%al
  404270:	0f 85 05 00 00 00    	jne    40427b <handle_command_token+0x5b>
  404276:	e9 95 00 00 00       	jmp    404310 <handle_command_token+0xf0>
  40427b:	48 8b 45 f0          	mov    -0x10(%rbp),%rax
  40427f:	48 83 38 00          	cmpq   $0x0,(%rax)
  404283:	0f 84 37 00 00 00    	je     4042c0 <handle_command_token+0xa0>
  404289:	48 8b 45 f0          	mov    -0x10(%rbp),%rax
  40428d:	48 8b 00             	mov    (%rax),%rax
  404290:	8b 38                	mov    (%rax),%edi
  404292:	e8 79 e3 ff ff       	call   402610 <is_substantive>
  404297:	83 f8 00             	cmp    $0x0,%eax
  40429a:	0f 85 10 00 00 00    	jne    4042b0 <handle_command_token+0x90>
  4042a0:	48 8b 45 f0          	mov    -0x10(%rbp),%rax
  4042a4:	48 8b 00             	mov    (%rax),%rax
  4042a7:	83 38 0a             	cmpl   $0xa,(%rax)
  4042aa:	0f 85 10 00 00 00    	jne    4042c0 <handle_command_token+0xa0>
  4042b0:	8b 45 dc             	mov    -0x24(%rbp),%eax
  4042b3:	48 8b 4d f0          	mov    -0x10(%rbp),%rcx
  4042b7:	48 8b 09             	mov    (%rcx),%rcx
  4042ba:	03 41 18             	add    0x18(%rcx),%eax
  4042bd:	89 45 dc             	mov    %eax,-0x24(%rbp)
  4042c0:	48 8b 45 f0          	mov    -0x10(%rbp),%rax
  4042c4:	48 83 38 00          	cmpq   $0x0,(%rax)
  4042c8:	0f 84 2b 00 00 00    	je     4042f9 <handle_command_token+0xd9>
  4042ce:	48 8b 45 f0          	mov    -0x10(%rbp),%rax
  4042d2:	48 8b 00             	mov    (%rax),%rax
  4042d5:	8b 38                	mov    (%rax),%edi
  4042d7:	e8 e4 e2 ff ff       	call   4025c0 <is_redirecting>
  4042dc:	83 f8 00             	cmp    $0x0,%eax
  4042df:	0f 84 14 00 00 00    	je     4042f9 <handle_command_token+0xd9>
  4042e5:	48 8b 7d f8          	mov    -0x8(%rbp),%rdi
  4042e9:	48 8b 45 f0          	mov    -0x10(%rbp),%rax
  4042ed:	48 8b 30             	mov    (%rax),%rsi
  4042f0:	48 8b 55 e8          	mov    -0x18(%rbp),%rdx
  4042f4:	e8 17 fe ff ff       	call   404110 <extend_redirection_lists>
  4042f9:	48 8b 45 f0          	mov    -0x10(%rbp),%rax
  4042fd:	48 8b 00             	mov    (%rax),%rax
  404300:	48 8b 48 28          	mov    0x28(%rax),%rcx
  404304:	48 8b 45 f0          	mov    -0x10(%rbp),%rax
  404308:	48 89 08             	mov    %rcx,(%rax)
  40430b:	e9 36 ff ff ff       	jmp    404246 <handle_command_token+0x26>
  404310:	83 7d dc 00          	cmpl   $0x0,-0x24(%rbp)
  404314:	0f 84 14 00 00 00    	je     40432e <handle_command_token+0x10e>
  40431a:	48 8b 7d f8          	mov    -0x8(%rbp),%rdi
  40431e:	48 8b 75 e0          	mov    -0x20(%rbp),%rsi
  404322:	8b 55 dc             	mov    -0x24(%rbp),%edx
  404325:	48 8b 4d e8          	mov    -0x18(%rbp),%rcx
  404329:	e8 62 05 00 00       	call   404890 <put_cmd_in_exec>
  40432e:	48 83 c4 30          	add    $0x30,%rsp
  404332:	5d                   	pop    %rbp
  404333:	c3                   	ret    
  404334:	66 2e 0f 1f 84 00 00 	cs nopw 0x0(%rax,%rax,1)
  40433b:	00 00 00 
  40433e:	66 90                	xchg   %ax,%ax

0000000000404340 <process_cmd_and_redir_tokens>:
  404340:	55                   	push   %rbp
  404341:	48 89 e5             	mov    %rsp,%rbp
  404344:	48 83 ec 20          	sub    $0x20,%rsp
  404348:	48 89 7d f8          	mov    %rdi,-0x8(%rbp)
  40434c:	48 89 75 f0          	mov    %rsi,-0x10(%rbp)
  404350:	48 89 55 e8          	mov    %rdx,-0x18(%rbp)
  404354:	48 8b 45 f0          	mov    -0x10(%rbp),%rax
  404358:	48 83 38 00          	cmpq   $0x0,(%rax)
  40435c:	0f 84 2d 01 00 00    	je     40448f <process_cmd_and_redir_tokens+0x14f>
  404362:	48 8b 45 f0          	mov    -0x10(%rbp),%rax
  404366:	48 8b 00             	mov    (%rax),%rax
  404369:	83 38 0a             	cmpl   $0xa,(%rax)
  40436c:	0f 85 24 00 00 00    	jne    404396 <process_cmd_and_redir_tokens+0x56>
  404372:	48 8b 45 e8          	mov    -0x18(%rbp),%rax
  404376:	48 8b 00             	mov    (%rax),%rax
  404379:	c7 40 30 01 00 00 00 	movl   $0x1,0x30(%rax)
  404380:	48 8b 7d f8          	mov    -0x8(%rbp),%rdi
  404384:	48 8b 75 f0          	mov    -0x10(%rbp),%rsi
  404388:	48 8b 55 e8          	mov    -0x18(%rbp),%rdx
  40438c:	e8 8f fe ff ff       	call   404220 <handle_command_token>
  404391:	e9 f4 00 00 00       	jmp    40448a <process_cmd_and_redir_tokens+0x14a>
  404396:	48 8b 45 f0          	mov    -0x10(%rbp),%rax
  40439a:	48 8b 00             	mov    (%rax),%rax
  40439d:	83 38 0b             	cmpl   $0xb,(%rax)
  4043a0:	0f 85 3f 00 00 00    	jne    4043e5 <process_cmd_and_redir_tokens+0xa5>
  4043a6:	48 8b 45 f8          	mov    -0x8(%rbp),%rax
  4043aa:	83 b8 94 00 00 00 00 	cmpl   $0x0,0x94(%rax)
  4043b1:	0f 85 2e 00 00 00    	jne    4043e5 <process_cmd_and_redir_tokens+0xa5>
  4043b7:	48 8b 7d f8          	mov    -0x8(%rbp),%rdi
  4043bb:	48 8b 45 f0          	mov    -0x10(%rbp),%rax
  4043bf:	48 8b 30             	mov    (%rax),%rsi
  4043c2:	ba 01 00 00 00       	mov    $0x1,%edx
  4043c7:	31 c9                	xor    %ecx,%ecx
  4043c9:	e8 02 09 00 00       	call   404cd0 <put_env_in_list>
  4043ce:	48 8b 45 f0          	mov    -0x10(%rbp),%rax
  4043d2:	48 8b 00             	mov    (%rax),%rax
  4043d5:	48 8b 48 28          	mov    0x28(%rax),%rcx
  4043d9:	48 8b 45 f0          	mov    -0x10(%rbp),%rax
  4043dd:	48 89 08             	mov    %rcx,(%rax)
  4043e0:	e9 a0 00 00 00       	jmp    404485 <process_cmd_and_redir_tokens+0x145>
  4043e5:	48 8b 45 f0          	mov    -0x10(%rbp),%rax
  4043e9:	48 8b 00             	mov    (%rax),%rax
  4043ec:	8b 38                	mov    (%rax),%edi
  4043ee:	e8 1d e2 ff ff       	call   402610 <is_substantive>
  4043f3:	83 f8 00             	cmp    $0x0,%eax
  4043f6:	0f 84 26 00 00 00    	je     404422 <process_cmd_and_redir_tokens+0xe2>
  4043fc:	48 8b 45 f0          	mov    -0x10(%rbp),%rax
  404400:	48 8b 00             	mov    (%rax),%rax
  404403:	83 38 0b             	cmpl   $0xb,(%rax)
  404406:	0f 84 16 00 00 00    	je     404422 <process_cmd_and_redir_tokens+0xe2>
  40440c:	48 8b 7d f8          	mov    -0x8(%rbp),%rdi
  404410:	48 8b 75 f0          	mov    -0x10(%rbp),%rsi
  404414:	48 8b 55 e8          	mov    -0x18(%rbp),%rdx
  404418:	e8 03 fe ff ff       	call   404220 <handle_command_token>
  40441d:	e9 5e 00 00 00       	jmp    404480 <process_cmd_and_redir_tokens+0x140>
  404422:	48 8b 45 f0          	mov    -0x10(%rbp),%rax
  404426:	48 8b 00             	mov    (%rax),%rax
  404429:	8b 38                	mov    (%rax),%edi
  40442b:	e8 90 e1 ff ff       	call   4025c0 <is_redirecting>
  404430:	83 f8 00             	cmp    $0x0,%eax
  404433:	0f 84 2b 00 00 00    	je     404464 <process_cmd_and_redir_tokens+0x124>
  404439:	48 8b 7d f8          	mov    -0x8(%rbp),%rdi
  40443d:	48 8b 45 f0          	mov    -0x10(%rbp),%rax
  404441:	48 8b 30             	mov    (%rax),%rsi
  404444:	48 8b 55 e8          	mov    -0x18(%rbp),%rdx
  404448:	e8 c3 fc ff ff       	call   404110 <extend_redirection_lists>
  40444d:	48 8b 45 f0          	mov    -0x10(%rbp),%rax
  404451:	48 8b 00             	mov    (%rax),%rax
  404454:	48 8b 48 28          	mov    0x28(%rax),%rcx
  404458:	48 8b 45 f0          	mov    -0x10(%rbp),%rax
  40445c:	48 89 08             	mov    %rcx,(%rax)
  40445f:	e9 17 00 00 00       	jmp    40447b <process_cmd_and_redir_tokens+0x13b>
  404464:	48 8b 45 f0          	mov    -0x10(%rbp),%rax
  404468:	48 8b 00             	mov    (%rax),%rax
  40446b:	48 8b 48 28          	mov    0x28(%rax),%rcx
  40446f:	48 8b 45 f0          	mov    -0x10(%rbp),%rax
  404473:	48 89 08             	mov    %rcx,(%rax)
  404476:	e9 14 00 00 00       	jmp    40448f <process_cmd_and_redir_tokens+0x14f>
  40447b:	e9 00 00 00 00       	jmp    404480 <process_cmd_and_redir_tokens+0x140>
  404480:	e9 00 00 00 00       	jmp    404485 <process_cmd_and_redir_tokens+0x145>
  404485:	e9 00 00 00 00       	jmp    40448a <process_cmd_and_redir_tokens+0x14a>
  40448a:	e9 c5 fe ff ff       	jmp    404354 <process_cmd_and_redir_tokens+0x14>
  40448f:	48 83 c4 20          	add    $0x20,%rsp
  404493:	5d                   	pop    %rbp
  404494:	c3                   	ret    
  404495:	66 2e 0f 1f 84 00 00 	cs nopw 0x0(%rax,%rax,1)
  40449c:	00 00 00 
  40449f:	90                   	nop

00000000004044a0 <make_executives>:
  4044a0:	55                   	push   %rbp
  4044a1:	48 89 e5             	mov    %rsp,%rbp
  4044a4:	48 83 ec 30          	sub    $0x30,%rsp
  4044a8:	48 89 7d f8          	mov    %rdi,-0x8(%rbp)
  4044ac:	48 8b 45 f8          	mov    -0x8(%rbp),%rax
  4044b0:	48 8b 40 08          	mov    0x8(%rax),%rax
  4044b4:	48 89 45 f0          	mov    %rax,-0x10(%rbp)
  4044b8:	48 8b 45 f0          	mov    -0x10(%rbp),%rax
  4044bc:	83 38 0c             	cmpl   $0xc,(%rax)
  4044bf:	0f 85 05 00 00 00    	jne    4044ca <make_executives+0x2a>
  4044c5:	e9 b3 00 00 00       	jmp    40457d <make_executives+0xdd>
  4044ca:	48 c7 45 d8 00 00 00 	movq   $0x0,-0x28(%rbp)
  4044d1:	00 
  4044d2:	48 83 7d f0 00       	cmpq   $0x0,-0x10(%rbp)
  4044d7:	0f 84 95 00 00 00    	je     404572 <make_executives+0xd2>
  4044dd:	48 8b 45 f0          	mov    -0x10(%rbp),%rax
  4044e1:	48 89 45 e8          	mov    %rax,-0x18(%rbp)
  4044e5:	48 8b 7d f8          	mov    -0x8(%rbp),%rdi
  4044e9:	e8 32 f9 ff ff       	call   403e20 <make_empty_exec>
  4044ee:	48 89 45 e0          	mov    %rax,-0x20(%rbp)
  4044f2:	48 8b 7d f8          	mov    -0x8(%rbp),%rdi
  4044f6:	48 8d 75 e8          	lea    -0x18(%rbp),%rsi
  4044fa:	48 8d 55 e0          	lea    -0x20(%rbp),%rdx
  4044fe:	e8 3d fe ff ff       	call   404340 <process_cmd_and_redir_tokens>
  404503:	48 8b 45 e0          	mov    -0x20(%rbp),%rax
  404507:	48 83 78 10 00       	cmpq   $0x0,0x10(%rax)
  40450c:	0f 84 12 00 00 00    	je     404524 <make_executives+0x84>
  404512:	48 8b 45 e0          	mov    -0x20(%rbp),%rax
  404516:	48 8b 40 10          	mov    0x10(%rax),%rax
  40451a:	48 83 38 00          	cmpq   $0x0,(%rax)
  40451e:	0f 85 34 00 00 00    	jne    404558 <make_executives+0xb8>
  404524:	48 8b 45 e0          	mov    -0x20(%rbp),%rax
  404528:	48 83 78 20 00       	cmpq   $0x0,0x20(%rax)
  40452d:	0f 85 25 00 00 00    	jne    404558 <make_executives+0xb8>
  404533:	48 8b 45 e0          	mov    -0x20(%rbp),%rax
  404537:	48 83 78 28 00       	cmpq   $0x0,0x28(%rax)
  40453c:	0f 85 16 00 00 00    	jne    404558 <make_executives+0xb8>
  404542:	48 8b 7d e0          	mov    -0x20(%rbp),%rdi
  404546:	e8 e5 ca ff ff       	call   401030 <free@plt>
  40454b:	48 c7 45 e0 00 00 00 	movq   $0x0,-0x20(%rbp)
  404552:	00 
  404553:	e9 0d 00 00 00       	jmp    404565 <make_executives+0xc5>
  404558:	48 8b 75 e0          	mov    -0x20(%rbp),%rsi
  40455c:	48 8d 7d d8          	lea    -0x28(%rbp),%rdi
  404560:	e8 7b f9 ff ff       	call   403ee0 <exec_lstadd_back>
  404565:	48 8b 45 e8          	mov    -0x18(%rbp),%rax
  404569:	48 89 45 f0          	mov    %rax,-0x10(%rbp)
  40456d:	e9 60 ff ff ff       	jmp    4044d2 <make_executives+0x32>
  404572:	48 8b 4d d8          	mov    -0x28(%rbp),%rcx
  404576:	48 8b 45 f8          	mov    -0x8(%rbp),%rax
  40457a:	48 89 08             	mov    %rcx,(%rax)
  40457d:	48 83 c4 30          	add    $0x30,%rsp
  404581:	5d                   	pop    %rbp
  404582:	c3                   	ret    
  404583:	66 2e 0f 1f 84 00 00 	cs nopw 0x0(%rax,%rax,1)
  40458a:	00 00 00 
  40458d:	0f 1f 00             	nopl   (%rax)

0000000000404590 <make_cmd_array>:
  404590:	55                   	push   %rbp
  404591:	48 89 e5             	mov    %rsp,%rbp
  404594:	48 83 ec 40          	sub    $0x40,%rsp
  404598:	48 89 7d f8          	mov    %rdi,-0x8(%rbp)
  40459c:	48 89 75 f0          	mov    %rsi,-0x10(%rbp)
  4045a0:	89 55 ec             	mov    %edx,-0x14(%rbp)
  4045a3:	48 89 4d e0          	mov    %rcx,-0x20(%rbp)
  4045a7:	48 8b 45 f0          	mov    -0x10(%rbp),%rax
  4045ab:	48 89 45 d8          	mov    %rax,-0x28(%rbp)
  4045af:	48 c7 45 c8 00 00 00 	movq   $0x0,-0x38(%rbp)
  4045b6:	00 
  4045b7:	8b 45 ec             	mov    -0x14(%rbp),%eax
  4045ba:	83 c0 01             	add    $0x1,%eax
  4045bd:	48 63 f8             	movslq %eax,%rdi
  4045c0:	48 c1 e7 03          	shl    $0x3,%rdi
  4045c4:	e8 67 cb ff ff       	call   401130 <malloc@plt>
  4045c9:	48 89 c1             	mov    %rax,%rcx
  4045cc:	48 8b 45 e0          	mov    -0x20(%rbp),%rax
  4045d0:	48 89 48 10          	mov    %rcx,0x10(%rax)
  4045d4:	48 8b 45 e0          	mov    -0x20(%rbp),%rax
  4045d8:	48 83 78 10 00       	cmpq   $0x0,0x10(%rax)
  4045dd:	0f 85 1c 00 00 00    	jne    4045ff <make_cmd_array+0x6f>
  4045e3:	48 8b 7d f8          	mov    -0x8(%rbp),%rdi
  4045e7:	48 be 33 c4 40 00 00 	movabs $0x40c433,%rsi
  4045ee:	00 00 00 
  4045f1:	31 c0                	xor    %eax,%eax
  4045f3:	89 c2                	mov    %eax,%edx
  4045f5:	b9 ff 00 00 00       	mov    $0xff,%ecx
  4045fa:	e8 01 35 00 00       	call   407b00 <snuff_it>
  4045ff:	c7 45 d4 00 00 00 00 	movl   $0x0,-0x2c(%rbp)
  404606:	8b 4d d4             	mov    -0x2c(%rbp),%ecx
  404609:	31 c0                	xor    %eax,%eax
  40460b:	3b 4d ec             	cmp    -0x14(%rbp),%ecx
  40460e:	88 45 c7             	mov    %al,-0x39(%rbp)
  404611:	0f 8d 0b 00 00 00    	jge    404622 <make_cmd_array+0x92>
  404617:	48 83 7d d8 00       	cmpq   $0x0,-0x28(%rbp)
  40461c:	0f 95 c0             	setne  %al
  40461f:	88 45 c7             	mov    %al,-0x39(%rbp)
  404622:	8a 45 c7             	mov    -0x39(%rbp),%al
  404625:	a8 01                	test   $0x1,%al
  404627:	0f 85 05 00 00 00    	jne    404632 <make_cmd_array+0xa2>
  40462d:	e9 e5 00 00 00       	jmp    404717 <make_cmd_array+0x187>
  404632:	c7 45 d0 00 00 00 00 	movl   $0x0,-0x30(%rbp)
  404639:	48 8b 4d d8          	mov    -0x28(%rbp),%rcx
  40463d:	31 c0                	xor    %eax,%eax
  40463f:	48 83 79 10 00       	cmpq   $0x0,0x10(%rcx)
  404644:	88 45 c6             	mov    %al,-0x3a(%rbp)
  404647:	0f 84 30 00 00 00    	je     40467d <make_cmd_array+0xed>
  40464d:	48 8b 45 d8          	mov    -0x28(%rbp),%rax
  404651:	48 8b 48 10          	mov    0x10(%rax),%rcx
  404655:	48 63 55 d0          	movslq -0x30(%rbp),%rdx
  404659:	31 c0                	xor    %eax,%eax
  40465b:	48 83 3c d1 00       	cmpq   $0x0,(%rcx,%rdx,8)
  404660:	88 45 c6             	mov    %al,-0x3a(%rbp)
  404663:	0f 84 14 00 00 00    	je     40467d <make_cmd_array+0xed>
  404669:	48 8b 45 d8          	mov    -0x28(%rbp),%rax
  40466d:	8b 38                	mov    (%rax),%edi
  40466f:	e8 9c df ff ff       	call   402610 <is_substantive>
  404674:	83 f8 00             	cmp    $0x0,%eax
  404677:	0f 95 c0             	setne  %al
  40467a:	88 45 c6             	mov    %al,-0x3a(%rbp)
  40467d:	8a 45 c6             	mov    -0x3a(%rbp),%al
  404680:	a8 01                	test   $0x1,%al
  404682:	0f 85 05 00 00 00    	jne    40468d <make_cmd_array+0xfd>
  404688:	e9 79 00 00 00       	jmp    404706 <make_cmd_array+0x176>
  40468d:	48 8b 45 d8          	mov    -0x28(%rbp),%rax
  404691:	48 8b 40 10          	mov    0x10(%rax),%rax
  404695:	8b 4d d0             	mov    -0x30(%rbp),%ecx
  404698:	89 ca                	mov    %ecx,%edx
  40469a:	83 c2 01             	add    $0x1,%edx
  40469d:	89 55 d0             	mov    %edx,-0x30(%rbp)
  4046a0:	48 63 c9             	movslq %ecx,%rcx
  4046a3:	48 8b 3c c8          	mov    (%rax,%rcx,8),%rdi
  4046a7:	e8 94 65 00 00       	call   40ac40 <ft_strdup>
  4046ac:	48 89 c2             	mov    %rax,%rdx
  4046af:	48 8b 45 e0          	mov    -0x20(%rbp),%rax
  4046b3:	48 8b 40 10          	mov    0x10(%rax),%rax
  4046b7:	8b 4d d4             	mov    -0x2c(%rbp),%ecx
  4046ba:	89 ce                	mov    %ecx,%esi
  4046bc:	83 c6 01             	add    $0x1,%esi
  4046bf:	89 75 d4             	mov    %esi,-0x2c(%rbp)
  4046c2:	48 63 c9             	movslq %ecx,%rcx
  4046c5:	48 89 14 c8          	mov    %rdx,(%rax,%rcx,8)
  4046c9:	48 8b 45 e0          	mov    -0x20(%rbp),%rax
  4046cd:	48 8b 40 10          	mov    0x10(%rax),%rax
  4046d1:	8b 4d d4             	mov    -0x2c(%rbp),%ecx
  4046d4:	83 e9 01             	sub    $0x1,%ecx
  4046d7:	48 63 c9             	movslq %ecx,%rcx
  4046da:	48 83 3c c8 00       	cmpq   $0x0,(%rax,%rcx,8)
  4046df:	0f 85 1c 00 00 00    	jne    404701 <make_cmd_array+0x171>
  4046e5:	48 8b 7d f8          	mov    -0x8(%rbp),%rdi
  4046e9:	48 be 5a c4 40 00 00 	movabs $0x40c45a,%rsi
  4046f0:	00 00 00 
  4046f3:	31 c0                	xor    %eax,%eax
  4046f5:	89 c2                	mov    %eax,%edx
  4046f7:	b9 ff 00 00 00       	mov    $0xff,%ecx
  4046fc:	e8 ff 33 00 00       	call   407b00 <snuff_it>
  404701:	e9 33 ff ff ff       	jmp    404639 <make_cmd_array+0xa9>
  404706:	48 8b 45 d8          	mov    -0x28(%rbp),%rax
  40470a:	48 8b 40 28          	mov    0x28(%rax),%rax
  40470e:	48 89 45 d8          	mov    %rax,-0x28(%rbp)
  404712:	e9 ef fe ff ff       	jmp    404606 <make_cmd_array+0x76>
  404717:	48 8b 45 e0          	mov    -0x20(%rbp),%rax
  40471b:	48 8b 40 10          	mov    0x10(%rax),%rax
  40471f:	48 63 4d d4          	movslq -0x2c(%rbp),%rcx
  404723:	48 c7 04 c8 00 00 00 	movq   $0x0,(%rax,%rcx,8)
  40472a:	00 
  40472b:	48 83 c4 40          	add    $0x40,%rsp
  40472f:	5d                   	pop    %rbp
  404730:	c3                   	ret    
  404731:	66 2e 0f 1f 84 00 00 	cs nopw 0x0(%rax,%rax,1)
  404738:	00 00 00 
  40473b:	0f 1f 44 00 00       	nopl   0x0(%rax,%rax,1)

0000000000404740 <look_for_path>:
  404740:	55                   	push   %rbp
  404741:	48 89 e5             	mov    %rsp,%rbp
  404744:	48 83 ec 20          	sub    $0x20,%rsp
  404748:	48 89 7d f8          	mov    %rdi,-0x8(%rbp)
  40474c:	48 89 75 f0          	mov    %rsi,-0x10(%rbp)
  404750:	48 89 55 e8          	mov    %rdx,-0x18(%rbp)
  404754:	48 8b 45 f8          	mov    -0x8(%rbp),%rax
  404758:	48 8b b8 a0 00 00 00 	mov    0xa0(%rax),%rdi
  40475f:	48 8b 75 e8          	mov    -0x18(%rbp),%rsi
  404763:	e8 88 54 00 00       	call   409bf0 <hash_lookup>
  404768:	48 89 c1             	mov    %rax,%rcx
  40476b:	48 8b 45 f0          	mov    -0x10(%rbp),%rax
  40476f:	48 8b 00             	mov    (%rax),%rax
  404772:	48 89 48 08          	mov    %rcx,0x8(%rax)
  404776:	48 8b 45 f0          	mov    -0x10(%rbp),%rax
  40477a:	48 8b 00             	mov    (%rax),%rax
  40477d:	48 83 78 08 00       	cmpq   $0x0,0x8(%rax)
  404782:	0f 84 05 00 00 00    	je     40478d <look_for_path+0x4d>
  404788:	e9 f0 00 00 00       	jmp    40487d <look_for_path+0x13d>
  40478d:	48 8b 7d f8          	mov    -0x8(%rbp),%rdi
  404791:	48 8b 75 f0          	mov    -0x10(%rbp),%rsi
  404795:	48 8b 55 e8          	mov    -0x18(%rbp),%rdx
  404799:	e8 a2 d6 ff ff       	call   401e40 <check_if_full_path>
  40479e:	48 8b 45 f0          	mov    -0x10(%rbp),%rax
  4047a2:	48 8b 00             	mov    (%rax),%rax
  4047a5:	83 78 18 00          	cmpl   $0x0,0x18(%rax)
  4047a9:	0f 85 1c 00 00 00    	jne    4047cb <look_for_path+0x8b>
  4047af:	48 8b 45 f8          	mov    -0x8(%rbp),%rax
  4047b3:	48 83 78 30 00       	cmpq   $0x0,0x30(%rax)
  4047b8:	0f 84 0d 00 00 00    	je     4047cb <look_for_path+0x8b>
  4047be:	48 8b 7d f8          	mov    -0x8(%rbp),%rdi
  4047c2:	48 8b 75 e8          	mov    -0x18(%rbp),%rsi
  4047c6:	e8 85 d5 ff ff       	call   401d50 <get_path_from_env>
  4047cb:	48 8b 45 f8          	mov    -0x8(%rbp),%rax
  4047cf:	48 83 78 38 00       	cmpq   $0x0,0x38(%rax)
  4047d4:	0f 84 a3 00 00 00    	je     40487d <look_for_path+0x13d>
  4047da:	48 8b 45 f8          	mov    -0x8(%rbp),%rax
  4047de:	48 8b 78 38          	mov    0x38(%rax),%rdi
  4047e2:	e8 59 64 00 00       	call   40ac40 <ft_strdup>
  4047e7:	48 89 c1             	mov    %rax,%rcx
  4047ea:	48 8b 45 f0          	mov    -0x10(%rbp),%rax
  4047ee:	48 8b 00             	mov    (%rax),%rax
  4047f1:	48 89 48 08          	mov    %rcx,0x8(%rax)
  4047f5:	48 8b 45 f0          	mov    -0x10(%rbp),%rax
  4047f9:	48 8b 00             	mov    (%rax),%rax
  4047fc:	48 83 78 08 00       	cmpq   $0x0,0x8(%rax)
  404801:	0f 85 1c 00 00 00    	jne    404823 <look_for_path+0xe3>
  404807:	48 8b 7d f8          	mov    -0x8(%rbp),%rdi
  40480b:	48 be 73 c4 40 00 00 	movabs $0x40c473,%rsi
  404812:	00 00 00 
  404815:	31 c0                	xor    %eax,%eax
  404817:	89 c2                	mov    %eax,%edx
  404819:	b9 ff 00 00 00       	mov    $0xff,%ecx
  40481e:	e8 dd 32 00 00       	call   407b00 <snuff_it>
  404823:	48 8b 45 f8          	mov    -0x8(%rbp),%rax
  404827:	48 8b b8 a0 00 00 00 	mov    0xa0(%rax),%rdi
  40482e:	48 8b 75 e8          	mov    -0x18(%rbp),%rsi
  404832:	48 8b 45 f8          	mov    -0x8(%rbp),%rax
  404836:	48 8b 50 38          	mov    0x38(%rax),%rdx
  40483a:	e8 81 52 00 00       	call   409ac0 <store_data>
  40483f:	83 f8 00             	cmp    $0x0,%eax
  404842:	0f 85 1c 00 00 00    	jne    404864 <look_for_path+0x124>
  404848:	48 8b 7d f8          	mov    -0x8(%rbp),%rdi
  40484c:	48 be 8e c4 40 00 00 	movabs $0x40c48e,%rsi
  404853:	00 00 00 
  404856:	31 c0                	xor    %eax,%eax
  404858:	89 c2                	mov    %eax,%edx
  40485a:	b9 ff 00 00 00       	mov    $0xff,%ecx
  40485f:	e8 9c 32 00 00       	call   407b00 <snuff_it>
  404864:	48 8b 45 f8          	mov    -0x8(%rbp),%rax
  404868:	48 8b 78 38          	mov    0x38(%rax),%rdi
  40486c:	e8 bf c7 ff ff       	call   401030 <free@plt>
  404871:	48 8b 45 f8          	mov    -0x8(%rbp),%rax
  404875:	48 c7 40 38 00 00 00 	movq   $0x0,0x38(%rax)
  40487c:	00 
  40487d:	48 83 c4 20          	add    $0x20,%rsp
  404881:	5d                   	pop    %rbp
  404882:	c3                   	ret    
  404883:	66 2e 0f 1f 84 00 00 	cs nopw 0x0(%rax,%rax,1)
  40488a:	00 00 00 
  40488d:	0f 1f 00             	nopl   (%rax)

0000000000404890 <put_cmd_in_exec>:
  404890:	55                   	push   %rbp
  404891:	48 89 e5             	mov    %rsp,%rbp
  404894:	48 83 ec 30          	sub    $0x30,%rsp
  404898:	48 89 7d f8          	mov    %rdi,-0x8(%rbp)
  40489c:	48 89 75 f0          	mov    %rsi,-0x10(%rbp)
  4048a0:	89 55 ec             	mov    %edx,-0x14(%rbp)
  4048a3:	48 89 4d e0          	mov    %rcx,-0x20(%rbp)
  4048a7:	48 c7 45 d8 00 00 00 	movq   $0x0,-0x28(%rbp)
  4048ae:	00 
  4048af:	48 8b 45 f8          	mov    -0x8(%rbp),%rax
  4048b3:	48 83 78 38 00       	cmpq   $0x0,0x38(%rax)
  4048b8:	0f 84 19 00 00 00    	je     4048d7 <put_cmd_in_exec+0x47>
  4048be:	48 8b 45 f8          	mov    -0x8(%rbp),%rax
  4048c2:	48 8b 78 38          	mov    0x38(%rax),%rdi
  4048c6:	e8 65 c7 ff ff       	call   401030 <free@plt>
  4048cb:	48 8b 45 f8          	mov    -0x8(%rbp),%rax
  4048cf:	48 c7 40 38 00 00 00 	movq   $0x0,0x38(%rax)
  4048d6:	00 
  4048d7:	48 83 7d f0 00       	cmpq   $0x0,-0x10(%rbp)
  4048dc:	0f 84 eb 00 00 00    	je     4049cd <put_cmd_in_exec+0x13d>
  4048e2:	48 8b 45 f0          	mov    -0x10(%rbp),%rax
  4048e6:	48 83 78 08 00       	cmpq   $0x0,0x8(%rax)
  4048eb:	0f 84 dc 00 00 00    	je     4049cd <put_cmd_in_exec+0x13d>
  4048f1:	48 8b 45 f0          	mov    -0x10(%rbp),%rax
  4048f5:	8b 38                	mov    (%rax),%edi
  4048f7:	e8 14 dd ff ff       	call   402610 <is_substantive>
  4048fc:	83 f8 00             	cmp    $0x0,%eax
  4048ff:	0f 85 0d 00 00 00    	jne    404912 <put_cmd_in_exec+0x82>
  404905:	48 8b 45 f0          	mov    -0x10(%rbp),%rax
  404909:	83 38 0a             	cmpl   $0xa,(%rax)
  40490c:	0f 85 bb 00 00 00    	jne    4049cd <put_cmd_in_exec+0x13d>
  404912:	48 8b 7d f8          	mov    -0x8(%rbp),%rdi
  404916:	48 8b 75 f0          	mov    -0x10(%rbp),%rsi
  40491a:	8b 55 ec             	mov    -0x14(%rbp),%edx
  40491d:	48 8b 45 e0          	mov    -0x20(%rbp),%rax
  404921:	48 8b 08             	mov    (%rax),%rcx
  404924:	e8 67 fc ff ff       	call   404590 <make_cmd_array>
  404929:	48 8b 45 e0          	mov    -0x20(%rbp),%rax
  40492d:	48 8b 00             	mov    (%rax),%rax
  404930:	48 8b 40 10          	mov    0x10(%rax),%rax
  404934:	48 8b 38             	mov    (%rax),%rdi
  404937:	e8 04 63 00 00       	call   40ac40 <ft_strdup>
  40493c:	48 89 45 d8          	mov    %rax,-0x28(%rbp)
  404940:	48 83 7d d8 00       	cmpq   $0x0,-0x28(%rbp)
  404945:	0f 85 38 00 00 00    	jne    404983 <put_cmd_in_exec+0xf3>
  40494b:	48 8b 45 e0          	mov    -0x20(%rbp),%rax
  40494f:	48 8b 00             	mov    (%rax),%rax
  404952:	48 8b 78 10          	mov    0x10(%rax),%rdi
  404956:	e8 a5 64 00 00       	call   40ae00 <ft_free_array>
  40495b:	48 8b 45 e0          	mov    -0x20(%rbp),%rax
  40495f:	48 8b 38             	mov    (%rax),%rdi
  404962:	e8 c9 c6 ff ff       	call   401030 <free@plt>
  404967:	48 8b 7d f8          	mov    -0x8(%rbp),%rdi
  40496b:	48 be fe c0 40 00 00 	movabs $0x40c0fe,%rsi
  404972:	00 00 00 
  404975:	31 c0                	xor    %eax,%eax
  404977:	89 c2                	mov    %eax,%edx
  404979:	b9 ff 00 00 00       	mov    $0xff,%ecx
  40497e:	e8 7d 31 00 00       	call   407b00 <snuff_it>
  404983:	48 8b 4d d8          	mov    -0x28(%rbp),%rcx
  404987:	48 8b 45 e0          	mov    -0x20(%rbp),%rax
  40498b:	48 8b 00             	mov    (%rax),%rax
  40498e:	48 89 08             	mov    %rcx,(%rax)
  404991:	48 8b 7d d8          	mov    -0x28(%rbp),%rdi
  404995:	e8 56 32 00 00       	call   407bf0 <is_builtin>
  40499a:	83 f8 00             	cmp    $0x0,%eax
  40499d:	0f 84 14 00 00 00    	je     4049b7 <put_cmd_in_exec+0x127>
  4049a3:	48 8b 45 e0          	mov    -0x20(%rbp),%rax
  4049a7:	48 8b 00             	mov    (%rax),%rax
  4049aa:	48 c7 40 08 00 00 00 	movq   $0x0,0x8(%rax)
  4049b1:	00 
  4049b2:	e9 11 00 00 00       	jmp    4049c8 <put_cmd_in_exec+0x138>
  4049b7:	48 8b 7d f8          	mov    -0x8(%rbp),%rdi
  4049bb:	48 8b 75 e0          	mov    -0x20(%rbp),%rsi
  4049bf:	48 8b 55 d8          	mov    -0x28(%rbp),%rdx
  4049c3:	e8 78 fd ff ff       	call   404740 <look_for_path>
  4049c8:	e9 00 00 00 00       	jmp    4049cd <put_cmd_in_exec+0x13d>
  4049cd:	48 83 c4 30          	add    $0x30,%rsp
  4049d1:	5d                   	pop    %rbp
  4049d2:	c3                   	ret    
  4049d3:	66 2e 0f 1f 84 00 00 	cs nopw 0x0(%rax,%rax,1)
  4049da:	00 00 00 
  4049dd:	0f 1f 00             	nopl   (%rax)

00000000004049e0 <update_env_var_in_list>:
  4049e0:	55                   	push   %rbp
  4049e1:	48 89 e5             	mov    %rsp,%rbp
  4049e4:	48 83 ec 30          	sub    $0x30,%rsp
  4049e8:	48 89 7d f0          	mov    %rdi,-0x10(%rbp)
  4049ec:	48 89 75 e8          	mov    %rsi,-0x18(%rbp)
  4049f0:	48 89 55 e0          	mov    %rdx,-0x20(%rbp)
  4049f4:	89 4d dc             	mov    %ecx,-0x24(%rbp)
  4049f7:	48 83 7d e8 00       	cmpq   $0x0,-0x18(%rbp)
  4049fc:	0f 84 10 00 00 00    	je     404a12 <update_env_var_in_list+0x32>
  404a02:	48 8b 45 e8          	mov    -0x18(%rbp),%rax
  404a06:	0f be 00             	movsbl (%rax),%eax
  404a09:	83 f8 00             	cmp    $0x0,%eax
  404a0c:	0f 85 28 00 00 00    	jne    404a3a <update_env_var_in_list+0x5a>
  404a12:	48 8b 7d f0          	mov    -0x10(%rbp),%rdi
  404a16:	48 be aa c4 40 00 00 	movabs $0x40c4aa,%rsi
  404a1d:	00 00 00 
  404a20:	31 c0                	xor    %eax,%eax
  404a22:	89 c2                	mov    %eax,%edx
  404a24:	b9 02 00 00 00       	mov    $0x2,%ecx
  404a29:	e8 82 cb ff ff       	call   4015b0 <boo>
  404a2e:	c7 45 fc 00 00 00 00 	movl   $0x0,-0x4(%rbp)
  404a35:	e9 d8 00 00 00       	jmp    404b12 <update_env_var_in_list+0x132>
  404a3a:	48 8b 45 f0          	mov    -0x10(%rbp),%rax
  404a3e:	48 8b 80 80 00 00 00 	mov    0x80(%rax),%rax
  404a45:	48 89 45 d0          	mov    %rax,-0x30(%rbp)
  404a49:	48 83 7d d0 00       	cmpq   $0x0,-0x30(%rbp)
  404a4e:	0f 84 b7 00 00 00    	je     404b0b <update_env_var_in_list+0x12b>
  404a54:	48 8b 45 d0          	mov    -0x30(%rbp),%rax
  404a58:	48 8b 38             	mov    (%rax),%rdi
  404a5b:	48 8b 75 e8          	mov    -0x18(%rbp),%rsi
  404a5f:	e8 dc 5c 00 00       	call   40a740 <ft_strcmp>
  404a64:	83 f8 00             	cmp    $0x0,%eax
  404a67:	0f 85 8d 00 00 00    	jne    404afa <update_env_var_in_list+0x11a>
  404a6d:	48 83 7d e0 00       	cmpq   $0x0,-0x20(%rbp)
  404a72:	0f 84 6c 00 00 00    	je     404ae4 <update_env_var_in_list+0x104>
  404a78:	48 8b 45 d0          	mov    -0x30(%rbp),%rax
  404a7c:	48 83 78 08 00       	cmpq   $0x0,0x8(%rax)
  404a81:	0f 84 0d 00 00 00    	je     404a94 <update_env_var_in_list+0xb4>
  404a87:	48 8b 45 d0          	mov    -0x30(%rbp),%rax
  404a8b:	48 8b 78 08          	mov    0x8(%rax),%rdi
  404a8f:	e8 9c c5 ff ff       	call   401030 <free@plt>
  404a94:	48 8b 7d e0          	mov    -0x20(%rbp),%rdi
  404a98:	e8 a3 61 00 00       	call   40ac40 <ft_strdup>
  404a9d:	48 89 c1             	mov    %rax,%rcx
  404aa0:	48 8b 45 d0          	mov    -0x30(%rbp),%rax
  404aa4:	48 89 48 08          	mov    %rcx,0x8(%rax)
  404aa8:	48 8b 45 d0          	mov    -0x30(%rbp),%rax
  404aac:	48 83 78 08 00       	cmpq   $0x0,0x8(%rax)
  404ab1:	0f 85 1c 00 00 00    	jne    404ad3 <update_env_var_in_list+0xf3>
  404ab7:	48 8b 7d f0          	mov    -0x10(%rbp),%rdi
  404abb:	48 be c0 c4 40 00 00 	movabs $0x40c4c0,%rsi
  404ac2:	00 00 00 
  404ac5:	31 c0                	xor    %eax,%eax
  404ac7:	89 c2                	mov    %eax,%edx
  404ac9:	b9 ff 00 00 00       	mov    $0xff,%ecx
  404ace:	e8 2d 30 00 00       	call   407b00 <snuff_it>
  404ad3:	48 8b 7d f0          	mov    -0x10(%rbp),%rdi
  404ad7:	48 8b 75 d0          	mov    -0x30(%rbp),%rsi
  404adb:	48 83 c6 08          	add    $0x8,%rsi
  404adf:	e8 3c ef ff ff       	call   403a20 <process_quotes>
  404ae4:	8b 4d dc             	mov    -0x24(%rbp),%ecx
  404ae7:	48 8b 45 d0          	mov    -0x30(%rbp),%rax
  404aeb:	89 48 10             	mov    %ecx,0x10(%rax)
  404aee:	c7 45 fc 01 00 00 00 	movl   $0x1,-0x4(%rbp)
  404af5:	e9 18 00 00 00       	jmp    404b12 <update_env_var_in_list+0x132>
  404afa:	48 8b 45 d0          	mov    -0x30(%rbp),%rax
  404afe:	48 8b 40 18          	mov    0x18(%rax),%rax
  404b02:	48 89 45 d0          	mov    %rax,-0x30(%rbp)
  404b06:	e9 3e ff ff ff       	jmp    404a49 <update_env_var_in_list+0x69>
  404b0b:	c7 45 fc 00 00 00 00 	movl   $0x0,-0x4(%rbp)
  404b12:	8b 45 fc             	mov    -0x4(%rbp),%eax
  404b15:	48 83 c4 30          	add    $0x30,%rsp
  404b19:	5d                   	pop    %rbp
  404b1a:	c3                   	ret    
  404b1b:	0f 1f 44 00 00       	nopl   0x0(%rax,%rax,1)

0000000000404b20 <add_env_var_to_list>:
  404b20:	55                   	push   %rbp
  404b21:	48 89 e5             	mov    %rsp,%rbp
  404b24:	48 89 7d f8          	mov    %rdi,-0x8(%rbp)
  404b28:	48 89 75 f0          	mov    %rsi,-0x10(%rbp)
  404b2c:	48 8b 45 f8          	mov    -0x8(%rbp),%rax
  404b30:	48 83 b8 80 00 00 00 	cmpq   $0x0,0x80(%rax)
  404b37:	00 
  404b38:	0f 85 14 00 00 00    	jne    404b52 <add_env_var_to_list+0x32>
  404b3e:	48 8b 4d f0          	mov    -0x10(%rbp),%rcx
  404b42:	48 8b 45 f8          	mov    -0x8(%rbp),%rax
  404b46:	48 89 88 80 00 00 00 	mov    %rcx,0x80(%rax)
  404b4d:	e9 3b 00 00 00       	jmp    404b8d <add_env_var_to_list+0x6d>
  404b52:	48 8b 45 f8          	mov    -0x8(%rbp),%rax
  404b56:	48 8b 80 80 00 00 00 	mov    0x80(%rax),%rax
  404b5d:	48 89 45 e8          	mov    %rax,-0x18(%rbp)
  404b61:	48 8b 45 e8          	mov    -0x18(%rbp),%rax
  404b65:	48 83 78 18 00       	cmpq   $0x0,0x18(%rax)
  404b6a:	0f 84 11 00 00 00    	je     404b81 <add_env_var_to_list+0x61>
  404b70:	48 8b 45 e8          	mov    -0x18(%rbp),%rax
  404b74:	48 8b 40 18          	mov    0x18(%rax),%rax
  404b78:	48 89 45 e8          	mov    %rax,-0x18(%rbp)
  404b7c:	e9 e0 ff ff ff       	jmp    404b61 <add_env_var_to_list+0x41>
  404b81:	48 8b 4d f0          	mov    -0x10(%rbp),%rcx
  404b85:	48 8b 45 e8          	mov    -0x18(%rbp),%rax
  404b89:	48 89 48 18          	mov    %rcx,0x18(%rax)
  404b8d:	5d                   	pop    %rbp
  404b8e:	c3                   	ret    
  404b8f:	90                   	nop

0000000000404b90 <add_or_update_env_var_list>:
  404b90:	55                   	push   %rbp
  404b91:	48 89 e5             	mov    %rsp,%rbp
  404b94:	48 83 ec 30          	sub    $0x30,%rsp
  404b98:	48 89 7d f8          	mov    %rdi,-0x8(%rbp)
  404b9c:	48 89 75 f0          	mov    %rsi,-0x10(%rbp)
  404ba0:	48 89 55 e8          	mov    %rdx,-0x18(%rbp)
  404ba4:	89 4d e4             	mov    %ecx,-0x1c(%rbp)
  404ba7:	48 8b 7d f8          	mov    -0x8(%rbp),%rdi
  404bab:	48 8b 75 f0          	mov    -0x10(%rbp),%rsi
  404baf:	48 8b 55 e8          	mov    -0x18(%rbp),%rdx
  404bb3:	8b 4d e4             	mov    -0x1c(%rbp),%ecx
  404bb6:	e8 25 fe ff ff       	call   4049e0 <update_env_var_in_list>
  404bbb:	83 f8 00             	cmp    $0x0,%eax
  404bbe:	0f 84 05 00 00 00    	je     404bc9 <add_or_update_env_var_list+0x39>
  404bc4:	e9 fc 00 00 00       	jmp    404cc5 <add_or_update_env_var_list+0x135>
  404bc9:	bf 20 00 00 00       	mov    $0x20,%edi
  404bce:	e8 5d c5 ff ff       	call   401130 <malloc@plt>
  404bd3:	48 89 45 d8          	mov    %rax,-0x28(%rbp)
  404bd7:	48 83 7d d8 00       	cmpq   $0x0,-0x28(%rbp)
  404bdc:	0f 85 1c 00 00 00    	jne    404bfe <add_or_update_env_var_list+0x6e>
  404be2:	48 8b 7d f8          	mov    -0x8(%rbp),%rdi
  404be6:	48 be e7 c4 40 00 00 	movabs $0x40c4e7,%rsi
  404bed:	00 00 00 
  404bf0:	31 c0                	xor    %eax,%eax
  404bf2:	89 c2                	mov    %eax,%edx
  404bf4:	b9 ff 00 00 00       	mov    $0xff,%ecx
  404bf9:	e8 02 2f 00 00       	call   407b00 <snuff_it>
  404bfe:	48 8b 7d f0          	mov    -0x10(%rbp),%rdi
  404c02:	e8 39 60 00 00       	call   40ac40 <ft_strdup>
  404c07:	48 89 c1             	mov    %rax,%rcx
  404c0a:	48 8b 45 d8          	mov    -0x28(%rbp),%rax
  404c0e:	48 89 08             	mov    %rcx,(%rax)
  404c11:	48 8b 45 d8          	mov    -0x28(%rbp),%rax
  404c15:	48 83 38 00          	cmpq   $0x0,(%rax)
  404c19:	0f 85 1c 00 00 00    	jne    404c3b <add_or_update_env_var_list+0xab>
  404c1f:	48 8b 7d f8          	mov    -0x8(%rbp),%rdi
  404c23:	48 be fe c0 40 00 00 	movabs $0x40c0fe,%rsi
  404c2a:	00 00 00 
  404c2d:	31 c0                	xor    %eax,%eax
  404c2f:	89 c2                	mov    %eax,%edx
  404c31:	b9 ff 00 00 00       	mov    $0xff,%ecx
  404c36:	e8 c5 2e 00 00       	call   407b00 <snuff_it>
  404c3b:	48 8b 45 d8          	mov    -0x28(%rbp),%rax
  404c3f:	48 c7 40 08 00 00 00 	movq   $0x0,0x8(%rax)
  404c46:	00 
  404c47:	48 83 7d e8 00       	cmpq   $0x0,-0x18(%rbp)
  404c4c:	0f 84 50 00 00 00    	je     404ca2 <add_or_update_env_var_list+0x112>
  404c52:	48 8b 7d e8          	mov    -0x18(%rbp),%rdi
  404c56:	e8 e5 5f 00 00       	call   40ac40 <ft_strdup>
  404c5b:	48 89 c1             	mov    %rax,%rcx
  404c5e:	48 8b 45 d8          	mov    -0x28(%rbp),%rax
  404c62:	48 89 48 08          	mov    %rcx,0x8(%rax)
  404c66:	48 8b 45 d8          	mov    -0x28(%rbp),%rax
  404c6a:	48 83 78 08 00       	cmpq   $0x0,0x8(%rax)
  404c6f:	0f 85 1c 00 00 00    	jne    404c91 <add_or_update_env_var_list+0x101>
  404c75:	48 8b 7d f8          	mov    -0x8(%rbp),%rdi
  404c79:	48 be fe c0 40 00 00 	movabs $0x40c0fe,%rsi
  404c80:	00 00 00 
  404c83:	31 c0                	xor    %eax,%eax
  404c85:	89 c2                	mov    %eax,%edx
  404c87:	b9 ff 00 00 00       	mov    $0xff,%ecx
  404c8c:	e8 6f 2e 00 00       	call   407b00 <snuff_it>
  404c91:	48 8b 7d f8          	mov    -0x8(%rbp),%rdi
  404c95:	48 8b 75 d8          	mov    -0x28(%rbp),%rsi
  404c99:	48 83 c6 08          	add    $0x8,%rsi
  404c9d:	e8 7e ed ff ff       	call   403a20 <process_quotes>
  404ca2:	8b 4d e4             	mov    -0x1c(%rbp),%ecx
  404ca5:	48 8b 45 d8          	mov    -0x28(%rbp),%rax
  404ca9:	89 48 10             	mov    %ecx,0x10(%rax)
  404cac:	48 8b 45 d8          	mov    -0x28(%rbp),%rax
  404cb0:	48 c7 40 18 00 00 00 	movq   $0x0,0x18(%rax)
  404cb7:	00 
  404cb8:	48 8b 7d f8          	mov    -0x8(%rbp),%rdi
  404cbc:	48 8b 75 d8          	mov    -0x28(%rbp),%rsi
  404cc0:	e8 5b fe ff ff       	call   404b20 <add_env_var_to_list>
  404cc5:	48 83 c4 30          	add    $0x30,%rsp
  404cc9:	5d                   	pop    %rbp
  404cca:	c3                   	ret    
  404ccb:	0f 1f 44 00 00       	nopl   0x0(%rax,%rax,1)

0000000000404cd0 <put_env_in_list>:
  404cd0:	55                   	push   %rbp
  404cd1:	48 89 e5             	mov    %rsp,%rbp
  404cd4:	48 83 ec 30          	sub    $0x30,%rsp
  404cd8:	48 89 7d f8          	mov    %rdi,-0x8(%rbp)
  404cdc:	48 89 75 f0          	mov    %rsi,-0x10(%rbp)
  404ce0:	89 55 ec             	mov    %edx,-0x14(%rbp)
  404ce3:	89 4d e8             	mov    %ecx,-0x18(%rbp)
  404ce6:	48 c7 45 d8 00 00 00 	movq   $0x0,-0x28(%rbp)
  404ced:	00 
  404cee:	48 c7 45 e0 00 00 00 	movq   $0x0,-0x20(%rbp)
  404cf5:	00 
  404cf6:	8b 4d ec             	mov    -0x14(%rbp),%ecx
  404cf9:	89 c8                	mov    %ecx,%eax
  404cfb:	83 c0 ff             	add    $0xffffffff,%eax
  404cfe:	89 45 ec             	mov    %eax,-0x14(%rbp)
  404d01:	31 c0                	xor    %eax,%eax
  404d03:	83 f9 00             	cmp    $0x0,%ecx
  404d06:	88 45 d7             	mov    %al,-0x29(%rbp)
  404d09:	0f 8e 1f 00 00 00    	jle    404d2e <put_env_in_list+0x5e>
  404d0f:	31 c0                	xor    %eax,%eax
  404d11:	48 83 7d f0 00       	cmpq   $0x0,-0x10(%rbp)
  404d16:	88 45 d7             	mov    %al,-0x29(%rbp)
  404d19:	0f 84 0f 00 00 00    	je     404d2e <put_env_in_list+0x5e>
  404d1f:	48 8b 45 f0          	mov    -0x10(%rbp),%rax
  404d23:	48 83 78 08 00       	cmpq   $0x0,0x8(%rax)
  404d28:	0f 95 c0             	setne  %al
  404d2b:	88 45 d7             	mov    %al,-0x29(%rbp)
  404d2e:	8a 45 d7             	mov    -0x29(%rbp),%al
  404d31:	a8 01                	test   $0x1,%al
  404d33:	0f 85 05 00 00 00    	jne    404d3e <put_env_in_list+0x6e>
  404d39:	e9 af 00 00 00       	jmp    404ded <put_env_in_list+0x11d>
  404d3e:	48 8b 45 f0          	mov    -0x10(%rbp),%rax
  404d42:	48 8b 78 08          	mov    0x8(%rax),%rdi
  404d46:	e8 f5 5e 00 00       	call   40ac40 <ft_strdup>
  404d4b:	48 89 45 d8          	mov    %rax,-0x28(%rbp)
  404d4f:	48 83 7d d8 00       	cmpq   $0x0,-0x28(%rbp)
  404d54:	0f 85 1c 00 00 00    	jne    404d76 <put_env_in_list+0xa6>
  404d5a:	48 8b 7d f8          	mov    -0x8(%rbp),%rdi
  404d5e:	48 be fe c0 40 00 00 	movabs $0x40c0fe,%rsi
  404d65:	00 00 00 
  404d68:	31 c0                	xor    %eax,%eax
  404d6a:	89 c2                	mov    %eax,%edx
  404d6c:	b9 ff 00 00 00       	mov    $0xff,%ecx
  404d71:	e8 8a 2d 00 00       	call   407b00 <snuff_it>
  404d76:	48 8b 7d d8          	mov    -0x28(%rbp),%rdi
  404d7a:	be 3d 00 00 00       	mov    $0x3d,%esi
  404d7f:	e8 6c 58 00 00       	call   40a5f0 <ft_strchr>
  404d84:	48 89 45 e0          	mov    %rax,-0x20(%rbp)
  404d88:	48 83 7d e0 00       	cmpq   $0x0,-0x20(%rbp)
  404d8d:	0f 84 24 00 00 00    	je     404db7 <put_env_in_list+0xe7>
  404d93:	48 8b 45 e0          	mov    -0x20(%rbp),%rax
  404d97:	c6 00 00             	movb   $0x0,(%rax)
  404d9a:	48 8b 7d f8          	mov    -0x8(%rbp),%rdi
  404d9e:	48 8b 75 d8          	mov    -0x28(%rbp),%rsi
  404da2:	48 8b 55 e0          	mov    -0x20(%rbp),%rdx
  404da6:	48 83 c2 01          	add    $0x1,%rdx
  404daa:	8b 4d e8             	mov    -0x18(%rbp),%ecx
  404dad:	e8 de fd ff ff       	call   404b90 <add_or_update_env_var_list>
  404db2:	e9 14 00 00 00       	jmp    404dcb <put_env_in_list+0xfb>
  404db7:	48 8b 7d f8          	mov    -0x8(%rbp),%rdi
  404dbb:	48 8b 75 d8          	mov    -0x28(%rbp),%rsi
  404dbf:	8b 4d e8             	mov    -0x18(%rbp),%ecx
  404dc2:	31 c0                	xor    %eax,%eax
  404dc4:	89 c2                	mov    %eax,%edx
  404dc6:	e8 c5 fd ff ff       	call   404b90 <add_or_update_env_var_list>
  404dcb:	48 8b 7d d8          	mov    -0x28(%rbp),%rdi
  404dcf:	e8 5c c2 ff ff       	call   401030 <free@plt>
  404dd4:	48 c7 45 d8 00 00 00 	movq   $0x0,-0x28(%rbp)
  404ddb:	00 
  404ddc:	48 8b 45 f0          	mov    -0x10(%rbp),%rax
  404de0:	48 8b 40 28          	mov    0x28(%rax),%rax
  404de4:	48 89 45 f0          	mov    %rax,-0x10(%rbp)
  404de8:	e9 09 ff ff ff       	jmp    404cf6 <put_env_in_list+0x26>
  404ded:	48 83 c4 30          	add    $0x30,%rsp
  404df1:	5d                   	pop    %rbp
  404df2:	c3                   	ret    
  404df3:	66 2e 0f 1f 84 00 00 	cs nopw 0x0(%rax,%rax,1)
  404dfa:	00 00 00 
  404dfd:	0f 1f 00             	nopl   (%rax)

0000000000404e00 <expand_arg>:
  404e00:	55                   	push   %rbp
  404e01:	48 89 e5             	mov    %rsp,%rbp
  404e04:	48 83 ec 20          	sub    $0x20,%rsp
  404e08:	48 89 7d f8          	mov    %rdi,-0x8(%rbp)
  404e0c:	48 89 75 f0          	mov    %rsi,-0x10(%rbp)
  404e10:	48 8b 45 f8          	mov    -0x8(%rbp),%rax
  404e14:	c7 40 5c 00 00 00 00 	movl   $0x0,0x5c(%rax)
  404e1b:	48 8b 45 f8          	mov    -0x8(%rbp),%rax
  404e1f:	c7 40 60 00 00 00 00 	movl   $0x0,0x60(%rax)
  404e26:	48 bf d6 c1 40 00 00 	movabs $0x40c1d6,%rdi
  404e2d:	00 00 00 
  404e30:	e8 0b 5e 00 00       	call   40ac40 <ft_strdup>
  404e35:	48 89 45 e8          	mov    %rax,-0x18(%rbp)
  404e39:	48 83 7d e8 00       	cmpq   $0x0,-0x18(%rbp)
  404e3e:	0f 85 1c 00 00 00    	jne    404e60 <expand_arg+0x60>
  404e44:	48 8b 7d f8          	mov    -0x8(%rbp),%rdi
  404e48:	48 be 05 c5 40 00 00 	movabs $0x40c505,%rsi
  404e4f:	00 00 00 
  404e52:	31 c0                	xor    %eax,%eax
  404e54:	89 c2                	mov    %eax,%edx
  404e56:	b9 ff 00 00 00       	mov    $0xff,%ecx
  404e5b:	e8 a0 2c 00 00       	call   407b00 <snuff_it>
  404e60:	e9 00 00 00 00       	jmp    404e65 <expand_arg+0x65>
  404e65:	48 8b 45 f0          	mov    -0x10(%rbp),%rax
  404e69:	80 38 00             	cmpb   $0x0,(%rax)
  404e6c:	0f 84 bb 00 00 00    	je     404f2d <expand_arg+0x12d>
  404e72:	48 8b 45 f0          	mov    -0x10(%rbp),%rax
  404e76:	0f be 00             	movsbl (%rax),%eax
  404e79:	83 f8 24             	cmp    $0x24,%eax
  404e7c:	0f 85 91 00 00 00    	jne    404f13 <expand_arg+0x113>
  404e82:	48 8b 45 f8          	mov    -0x8(%rbp),%rax
  404e86:	83 78 5c 00          	cmpl   $0x0,0x5c(%rax)
  404e8a:	0f 85 83 00 00 00    	jne    404f13 <expand_arg+0x113>
  404e90:	48 8b 45 f0          	mov    -0x10(%rbp),%rax
  404e94:	0f be 40 01          	movsbl 0x1(%rax),%eax
  404e98:	83 f8 00             	cmp    $0x0,%eax
  404e9b:	0f 84 16 00 00 00    	je     404eb7 <expand_arg+0xb7>
  404ea1:	48 8b 45 f0          	mov    -0x10(%rbp),%rax
  404ea5:	0f be 78 01          	movsbl 0x1(%rax),%edi
  404ea9:	e8 a2 54 00 00       	call   40a350 <ft_iswhitespace>
  404eae:	83 f8 00             	cmp    $0x0,%eax
  404eb1:	0f 84 1a 00 00 00    	je     404ed1 <expand_arg+0xd1>
  404eb7:	48 8b 7d f8          	mov    -0x8(%rbp),%rdi
  404ebb:	48 8b 55 e8          	mov    -0x18(%rbp),%rdx
  404ebf:	48 8d 75 f0          	lea    -0x10(%rbp),%rsi
  404ec3:	e8 78 00 00 00       	call   404f40 <add_one_char>
  404ec8:	48 89 45 e8          	mov    %rax,-0x18(%rbp)
  404ecc:	e9 3d 00 00 00       	jmp    404f0e <expand_arg+0x10e>
  404ed1:	48 8b 45 f0          	mov    -0x10(%rbp),%rax
  404ed5:	0f be 40 01          	movsbl 0x1(%rax),%eax
  404ed9:	83 f8 3f             	cmp    $0x3f,%eax
  404edc:	0f 85 16 00 00 00    	jne    404ef8 <expand_arg+0xf8>
  404ee2:	48 8b 7d f8          	mov    -0x8(%rbp),%rdi
  404ee6:	48 8d 75 e8          	lea    -0x18(%rbp),%rsi
  404eea:	48 8d 55 f0          	lea    -0x10(%rbp),%rdx
  404eee:	e8 4d 01 00 00       	call   405040 <get_exit_status>
  404ef3:	e9 11 00 00 00       	jmp    404f09 <expand_arg+0x109>
  404ef8:	48 8b 7d f8          	mov    -0x8(%rbp),%rdi
  404efc:	48 8d 75 f0          	lea    -0x10(%rbp),%rsi
  404f00:	48 8d 55 e8          	lea    -0x18(%rbp),%rdx
  404f04:	e8 d7 01 00 00       	call   4050e0 <expand_name>
  404f09:	e9 00 00 00 00       	jmp    404f0e <expand_arg+0x10e>
  404f0e:	e9 15 00 00 00       	jmp    404f28 <expand_arg+0x128>
  404f13:	48 8b 7d f8          	mov    -0x8(%rbp),%rdi
  404f17:	48 8b 55 e8          	mov    -0x18(%rbp),%rdx
  404f1b:	48 8d 75 f0          	lea    -0x10(%rbp),%rsi
  404f1f:	e8 1c 00 00 00       	call   404f40 <add_one_char>
  404f24:	48 89 45 e8          	mov    %rax,-0x18(%rbp)
  404f28:	e9 38 ff ff ff       	jmp    404e65 <expand_arg+0x65>
  404f2d:	48 8b 45 e8          	mov    -0x18(%rbp),%rax
  404f31:	48 83 c4 20          	add    $0x20,%rsp
  404f35:	5d                   	pop    %rbp
  404f36:	c3                   	ret    
  404f37:	66 0f 1f 84 00 00 00 	nopw   0x0(%rax,%rax,1)
  404f3e:	00 00 

0000000000404f40 <add_one_char>:
  404f40:	55                   	push   %rbp
  404f41:	48 89 e5             	mov    %rsp,%rbp
  404f44:	48 83 ec 20          	sub    $0x20,%rsp
  404f48:	48 89 7d f8          	mov    %rdi,-0x8(%rbp)
  404f4c:	48 89 75 f0          	mov    %rsi,-0x10(%rbp)
  404f50:	48 89 55 e8          	mov    %rdx,-0x18(%rbp)
  404f54:	48 c7 45 e0 00 00 00 	movq   $0x0,-0x20(%rbp)
  404f5b:	00 
  404f5c:	48 8b 45 f0          	mov    -0x10(%rbp),%rax
  404f60:	48 8b 00             	mov    (%rax),%rax
  404f63:	0f be 00             	movsbl (%rax),%eax
  404f66:	83 f8 27             	cmp    $0x27,%eax
  404f69:	0f 85 27 00 00 00    	jne    404f96 <add_one_char+0x56>
  404f6f:	48 8b 45 f8          	mov    -0x8(%rbp),%rax
  404f73:	83 78 60 00          	cmpl   $0x0,0x60(%rax)
  404f77:	0f 85 19 00 00 00    	jne    404f96 <add_one_char+0x56>
  404f7d:	48 8b 45 f8          	mov    -0x8(%rbp),%rax
  404f81:	83 78 5c 00          	cmpl   $0x0,0x5c(%rax)
  404f85:	0f 95 c0             	setne  %al
  404f88:	34 ff                	xor    $0xff,%al
  404f8a:	24 01                	and    $0x1,%al
  404f8c:	0f b6 c8             	movzbl %al,%ecx
  404f8f:	48 8b 45 f8          	mov    -0x8(%rbp),%rax
  404f93:	89 48 5c             	mov    %ecx,0x5c(%rax)
  404f96:	48 8b 45 f0          	mov    -0x10(%rbp),%rax
  404f9a:	48 8b 00             	mov    (%rax),%rax
  404f9d:	0f be 00             	movsbl (%rax),%eax
  404fa0:	83 f8 22             	cmp    $0x22,%eax
  404fa3:	0f 85 27 00 00 00    	jne    404fd0 <add_one_char+0x90>
  404fa9:	48 8b 45 f8          	mov    -0x8(%rbp),%rax
  404fad:	83 78 5c 00          	cmpl   $0x0,0x5c(%rax)
  404fb1:	0f 85 19 00 00 00    	jne    404fd0 <add_one_char+0x90>
  404fb7:	48 8b 45 f8          	mov    -0x8(%rbp),%rax
  404fbb:	83 78 60 00          	cmpl   $0x0,0x60(%rax)
  404fbf:	0f 95 c0             	setne  %al
  404fc2:	34 ff                	xor    $0xff,%al
  404fc4:	24 01                	and    $0x1,%al
  404fc6:	0f b6 c8             	movzbl %al,%ecx
  404fc9:	48 8b 45 f8          	mov    -0x8(%rbp),%rax
  404fcd:	89 48 60             	mov    %ecx,0x60(%rax)
  404fd0:	48 8b 7d e8          	mov    -0x18(%rbp),%rdi
  404fd4:	48 8b 45 f0          	mov    -0x10(%rbp),%rax
  404fd8:	48 8b 00             	mov    (%rax),%rax
  404fdb:	0f be 30             	movsbl (%rax),%esi
  404fde:	e8 cd 60 00 00       	call   40b0b0 <ft_strjoin_char>
  404fe3:	48 89 45 e0          	mov    %rax,-0x20(%rbp)
  404fe7:	48 83 7d e0 00       	cmpq   $0x0,-0x20(%rbp)
  404fec:	0f 85 1c 00 00 00    	jne    40500e <add_one_char+0xce>
  404ff2:	48 8b 7d f8          	mov    -0x8(%rbp),%rdi
  404ff6:	48 be 2b c5 40 00 00 	movabs $0x40c52b,%rsi
  404ffd:	00 00 00 
  405000:	31 c0                	xor    %eax,%eax
  405002:	89 c2                	mov    %eax,%edx
  405004:	b9 ff 00 00 00       	mov    $0xff,%ecx
  405009:	e8 f2 2a 00 00       	call   407b00 <snuff_it>
  40500e:	48 8b 7d e8          	mov    -0x18(%rbp),%rdi
  405012:	e8 19 c0 ff ff       	call   401030 <free@plt>
  405017:	48 c7 45 e8 00 00 00 	movq   $0x0,-0x18(%rbp)
  40501e:	00 
  40501f:	48 8b 45 e0          	mov    -0x20(%rbp),%rax
  405023:	48 89 45 e8          	mov    %rax,-0x18(%rbp)
  405027:	48 8b 45 f0          	mov    -0x10(%rbp),%rax
  40502b:	48 8b 08             	mov    (%rax),%rcx
  40502e:	48 83 c1 01          	add    $0x1,%rcx
  405032:	48 89 08             	mov    %rcx,(%rax)
  405035:	48 8b 45 e8          	mov    -0x18(%rbp),%rax
  405039:	48 83 c4 20          	add    $0x20,%rsp
  40503d:	5d                   	pop    %rbp
  40503e:	c3                   	ret    
  40503f:	90                   	nop

0000000000405040 <get_exit_status>:
  405040:	55                   	push   %rbp
  405041:	48 89 e5             	mov    %rsp,%rbp
  405044:	48 83 ec 20          	sub    $0x20,%rsp
  405048:	48 89 7d f8          	mov    %rdi,-0x8(%rbp)
  40504c:	48 89 75 f0          	mov    %rsi,-0x10(%rbp)
  405050:	48 89 55 e8          	mov    %rdx,-0x18(%rbp)
  405054:	48 8b 45 e8          	mov    -0x18(%rbp),%rax
  405058:	48 8b 08             	mov    (%rax),%rcx
  40505b:	48 83 c1 02          	add    $0x2,%rcx
  40505f:	48 89 08             	mov    %rcx,(%rax)
  405062:	48 c7 45 e0 00 00 00 	movq   $0x0,-0x20(%rbp)
  405069:	00 
  40506a:	48 8b 45 f8          	mov    -0x8(%rbp),%rax
  40506e:	8b 78 6c             	mov    0x6c(%rax),%edi
  405071:	e8 9a 66 00 00       	call   40b710 <ft_itoa>
  405076:	48 89 45 e0          	mov    %rax,-0x20(%rbp)
  40507a:	48 83 7d e0 00       	cmpq   $0x0,-0x20(%rbp)
  40507f:	0f 85 30 00 00 00    	jne    4050b5 <get_exit_status+0x75>
  405085:	48 8b 45 f0          	mov    -0x10(%rbp),%rax
  405089:	48 8b 38             	mov    (%rax),%rdi
  40508c:	e8 9f bf ff ff       	call   401030 <free@plt>
  405091:	48 c7 45 f0 00 00 00 	movq   $0x0,-0x10(%rbp)
  405098:	00 
  405099:	48 8b 7d f8          	mov    -0x8(%rbp),%rdi
  40509d:	48 be 4d c5 40 00 00 	movabs $0x40c54d,%rsi
  4050a4:	00 00 00 
  4050a7:	31 c0                	xor    %eax,%eax
  4050a9:	89 c2                	mov    %eax,%edx
  4050ab:	b9 ff 00 00 00       	mov    $0xff,%ecx
  4050b0:	e8 4b 2a 00 00       	call   407b00 <snuff_it>
  4050b5:	48 8b 7d f8          	mov    -0x8(%rbp),%rdi
  4050b9:	48 8b 75 f0          	mov    -0x10(%rbp),%rsi
  4050bd:	48 8b 55 e0          	mov    -0x20(%rbp),%rdx
  4050c1:	e8 8a 01 00 00       	call   405250 <add_expanded>
  4050c6:	48 8b 7d e0          	mov    -0x20(%rbp),%rdi
  4050ca:	e8 61 bf ff ff       	call   401030 <free@plt>
  4050cf:	48 c7 45 e0 00 00 00 	movq   $0x0,-0x20(%rbp)
  4050d6:	00 
  4050d7:	48 83 c4 20          	add    $0x20,%rsp
  4050db:	5d                   	pop    %rbp
  4050dc:	c3                   	ret    
  4050dd:	0f 1f 00             	nopl   (%rax)

00000000004050e0 <expand_name>:
  4050e0:	55                   	push   %rbp
  4050e1:	48 89 e5             	mov    %rsp,%rbp
  4050e4:	48 83 ec 30          	sub    $0x30,%rsp
  4050e8:	48 89 7d f8          	mov    %rdi,-0x8(%rbp)
  4050ec:	48 89 75 f0          	mov    %rsi,-0x10(%rbp)
  4050f0:	48 89 55 e8          	mov    %rdx,-0x18(%rbp)
  4050f4:	48 8b 45 f0          	mov    -0x10(%rbp),%rax
  4050f8:	48 8b 08             	mov    (%rax),%rcx
  4050fb:	48 83 c1 01          	add    $0x1,%rcx
  4050ff:	48 89 08             	mov    %rcx,(%rax)
  405102:	48 8b 45 f0          	mov    -0x10(%rbp),%rax
  405106:	48 8b 00             	mov    (%rax),%rax
  405109:	0f be 38             	movsbl (%rax),%edi
  40510c:	e8 6f 51 00 00       	call   40a280 <ft_isalpha>
  405111:	83 f8 00             	cmp    $0x0,%eax
  405114:	0f 85 26 00 00 00    	jne    405140 <expand_name+0x60>
  40511a:	48 8b 45 f0          	mov    -0x10(%rbp),%rax
  40511e:	48 8b 00             	mov    (%rax),%rax
  405121:	0f be 00             	movsbl (%rax),%eax
  405124:	83 f8 5f             	cmp    $0x5f,%eax
  405127:	0f 84 13 00 00 00    	je     405140 <expand_name+0x60>
  40512d:	48 8b 45 f0          	mov    -0x10(%rbp),%rax
  405131:	48 8b 08             	mov    (%rax),%rcx
  405134:	48 83 c1 01          	add    $0x1,%rcx
  405138:	48 89 08             	mov    %rcx,(%rax)
  40513b:	e9 fd 00 00 00       	jmp    40523d <expand_name+0x15d>
  405140:	48 8b 45 f0          	mov    -0x10(%rbp),%rax
  405144:	48 8b 00             	mov    (%rax),%rax
  405147:	48 89 45 e0          	mov    %rax,-0x20(%rbp)
  40514b:	48 8b 45 e0          	mov    -0x20(%rbp),%rax
  40514f:	48 89 45 d8          	mov    %rax,-0x28(%rbp)
  405153:	48 8b 45 d8          	mov    -0x28(%rbp),%rax
  405157:	0f be 08             	movsbl (%rax),%ecx
  40515a:	31 c0                	xor    %eax,%eax
  40515c:	83 f9 00             	cmp    $0x0,%ecx
  40515f:	88 45 d7             	mov    %al,-0x29(%rbp)
  405162:	0f 84 15 00 00 00    	je     40517d <expand_name+0x9d>
  405168:	48 8b 45 d8          	mov    -0x28(%rbp),%rax
  40516c:	0f be 38             	movsbl (%rax),%edi
  40516f:	e8 5c 51 00 00       	call   40a2d0 <ft_isalnum_or_>
  405174:	83 f8 00             	cmp    $0x0,%eax
  405177:	0f 95 c0             	setne  %al
  40517a:	88 45 d7             	mov    %al,-0x29(%rbp)
  40517d:	8a 45 d7             	mov    -0x29(%rbp),%al
  405180:	a8 01                	test   $0x1,%al
  405182:	0f 85 05 00 00 00    	jne    40518d <expand_name+0xad>
  405188:	e9 8d 00 00 00       	jmp    40521a <expand_name+0x13a>
  40518d:	48 8b 45 d8          	mov    -0x28(%rbp),%rax
  405191:	0f be 00             	movsbl (%rax),%eax
  405194:	83 f8 27             	cmp    $0x27,%eax
  405197:	0f 85 27 00 00 00    	jne    4051c4 <expand_name+0xe4>
  40519d:	48 8b 45 f8          	mov    -0x8(%rbp),%rax
  4051a1:	83 78 60 00          	cmpl   $0x0,0x60(%rax)
  4051a5:	0f 85 19 00 00 00    	jne    4051c4 <expand_name+0xe4>
  4051ab:	48 8b 45 f8          	mov    -0x8(%rbp),%rax
  4051af:	83 78 5c 00          	cmpl   $0x0,0x5c(%rax)
  4051b3:	0f 95 c0             	setne  %al
  4051b6:	34 ff                	xor    $0xff,%al
  4051b8:	24 01                	and    $0x1,%al
  4051ba:	0f b6 c8             	movzbl %al,%ecx
  4051bd:	48 8b 45 f8          	mov    -0x8(%rbp),%rax
  4051c1:	89 48 5c             	mov    %ecx,0x5c(%rax)
  4051c4:	48 8b 45 d8          	mov    -0x28(%rbp),%rax
  4051c8:	0f be 00             	movsbl (%rax),%eax
  4051cb:	83 f8 22             	cmp    $0x22,%eax
  4051ce:	0f 85 27 00 00 00    	jne    4051fb <expand_name+0x11b>
  4051d4:	48 8b 45 f8          	mov    -0x8(%rbp),%rax
  4051d8:	83 78 5c 00          	cmpl   $0x0,0x5c(%rax)
  4051dc:	0f 85 19 00 00 00    	jne    4051fb <expand_name+0x11b>
  4051e2:	48 8b 45 f8          	mov    -0x8(%rbp),%rax
  4051e6:	83 78 60 00          	cmpl   $0x0,0x60(%rax)
  4051ea:	0f 95 c0             	setne  %al
  4051ed:	34 ff                	xor    $0xff,%al
  4051ef:	24 01                	and    $0x1,%al
  4051f1:	0f b6 c8             	movzbl %al,%ecx
  4051f4:	48 8b 45 f8          	mov    -0x8(%rbp),%rax
  4051f8:	89 48 60             	mov    %ecx,0x60(%rax)
  4051fb:	48 8b 45 d8          	mov    -0x28(%rbp),%rax
  4051ff:	48 83 c0 01          	add    $0x1,%rax
  405203:	48 89 45 d8          	mov    %rax,-0x28(%rbp)
  405207:	48 8b 45 f0          	mov    -0x10(%rbp),%rax
  40520b:	48 8b 08             	mov    (%rax),%rcx
  40520e:	48 83 c1 01          	add    $0x1,%rcx
  405212:	48 89 08             	mov    %rcx,(%rax)
  405215:	e9 39 ff ff ff       	jmp    405153 <expand_name+0x73>
  40521a:	48 8b 45 d8          	mov    -0x28(%rbp),%rax
  40521e:	48 3b 45 e0          	cmp    -0x20(%rbp),%rax
  405222:	0f 84 15 00 00 00    	je     40523d <expand_name+0x15d>
  405228:	48 8b 7d f8          	mov    -0x8(%rbp),%rdi
  40522c:	48 8b 75 e8          	mov    -0x18(%rbp),%rsi
  405230:	48 8b 55 e0          	mov    -0x20(%rbp),%rdx
  405234:	48 8b 4d d8          	mov    -0x28(%rbp),%rcx
  405238:	e8 d3 00 00 00       	call   405310 <allocate_and_expand>
  40523d:	48 83 c4 30          	add    $0x30,%rsp
  405241:	5d                   	pop    %rbp
  405242:	c3                   	ret    
  405243:	66 2e 0f 1f 84 00 00 	cs nopw 0x0(%rax,%rax,1)
  40524a:	00 00 00 
  40524d:	0f 1f 00             	nopl   (%rax)

0000000000405250 <add_expanded>:
  405250:	55                   	push   %rbp
  405251:	48 89 e5             	mov    %rsp,%rbp
  405254:	48 83 ec 30          	sub    $0x30,%rsp
  405258:	48 89 7d f8          	mov    %rdi,-0x8(%rbp)
  40525c:	48 89 75 f0          	mov    %rsi,-0x10(%rbp)
  405260:	48 89 55 e8          	mov    %rdx,-0x18(%rbp)
  405264:	48 c7 45 e0 00 00 00 	movq   $0x0,-0x20(%rbp)
  40526b:	00 
  40526c:	48 c7 45 d8 00 00 00 	movq   $0x0,-0x28(%rbp)
  405273:	00 
  405274:	48 8b 7d e8          	mov    -0x18(%rbp),%rdi
  405278:	e8 c3 59 00 00       	call   40ac40 <ft_strdup>
  40527d:	48 89 45 e0          	mov    %rax,-0x20(%rbp)
  405281:	48 83 7d e0 00       	cmpq   $0x0,-0x20(%rbp)
  405286:	0f 85 1c 00 00 00    	jne    4052a8 <add_expanded+0x58>
  40528c:	48 8b 7d f8          	mov    -0x8(%rbp),%rdi
  405290:	48 be 76 c5 40 00 00 	movabs $0x40c576,%rsi
  405297:	00 00 00 
  40529a:	31 c0                	xor    %eax,%eax
  40529c:	89 c2                	mov    %eax,%edx
  40529e:	b9 ff 00 00 00       	mov    $0xff,%ecx
  4052a3:	e8 58 28 00 00       	call   407b00 <snuff_it>
  4052a8:	48 8b 7d f8          	mov    -0x8(%rbp),%rdi
  4052ac:	48 8b 75 e0          	mov    -0x20(%rbp),%rsi
  4052b0:	e8 db 45 00 00       	call   409890 <add_string_to_thrash_list>
  4052b5:	48 8b 45 f0          	mov    -0x10(%rbp),%rax
  4052b9:	48 8b 38             	mov    (%rax),%rdi
  4052bc:	48 8b 75 e0          	mov    -0x20(%rbp),%rsi
  4052c0:	e8 eb 5c 00 00       	call   40afb0 <ft_strjoin>
  4052c5:	48 89 45 d8          	mov    %rax,-0x28(%rbp)
  4052c9:	48 8b 45 f0          	mov    -0x10(%rbp),%rax
  4052cd:	48 8b 38             	mov    (%rax),%rdi
  4052d0:	e8 5b bd ff ff       	call   401030 <free@plt>
  4052d5:	48 83 7d d8 00       	cmpq   $0x0,-0x28(%rbp)
  4052da:	0f 85 1c 00 00 00    	jne    4052fc <add_expanded+0xac>
  4052e0:	48 8b 7d f8          	mov    -0x8(%rbp),%rdi
  4052e4:	48 be 76 c5 40 00 00 	movabs $0x40c576,%rsi
  4052eb:	00 00 00 
  4052ee:	31 c0                	xor    %eax,%eax
  4052f0:	89 c2                	mov    %eax,%edx
  4052f2:	b9 ff 00 00 00       	mov    $0xff,%ecx
  4052f7:	e8 04 28 00 00       	call   407b00 <snuff_it>
  4052fc:	48 8b 4d d8          	mov    -0x28(%rbp),%rcx
  405300:	48 8b 45 f0          	mov    -0x10(%rbp),%rax
  405304:	48 89 08             	mov    %rcx,(%rax)
  405307:	48 83 c4 30          	add    $0x30,%rsp
  40530b:	5d                   	pop    %rbp
  40530c:	c3                   	ret    
  40530d:	0f 1f 00             	nopl   (%rax)

0000000000405310 <allocate_and_expand>:
  405310:	55                   	push   %rbp
  405311:	48 89 e5             	mov    %rsp,%rbp
  405314:	48 83 ec 30          	sub    $0x30,%rsp
  405318:	48 89 7d f8          	mov    %rdi,-0x8(%rbp)
  40531c:	48 89 75 f0          	mov    %rsi,-0x10(%rbp)
  405320:	48 89 55 e8          	mov    %rdx,-0x18(%rbp)
  405324:	48 89 4d e0          	mov    %rcx,-0x20(%rbp)
  405328:	48 c7 45 d0 00 00 00 	movq   $0x0,-0x30(%rbp)
  40532f:	00 
  405330:	48 c7 45 d8 00 00 00 	movq   $0x0,-0x28(%rbp)
  405337:	00 
  405338:	48 8b 7d e0          	mov    -0x20(%rbp),%rdi
  40533c:	48 8b 45 e8          	mov    -0x18(%rbp),%rax
  405340:	48 29 c7             	sub    %rax,%rdi
  405343:	48 83 c7 01          	add    $0x1,%rdi
  405347:	48 c1 e7 00          	shl    $0x0,%rdi
  40534b:	e8 e0 bd ff ff       	call   401130 <malloc@plt>
  405350:	48 89 45 d8          	mov    %rax,-0x28(%rbp)
  405354:	48 83 7d d8 00       	cmpq   $0x0,-0x28(%rbp)
  405359:	0f 85 1c 00 00 00    	jne    40537b <allocate_and_expand+0x6b>
  40535f:	48 8b 7d f8          	mov    -0x8(%rbp),%rdi
  405363:	48 be 97 c5 40 00 00 	movabs $0x40c597,%rsi
  40536a:	00 00 00 
  40536d:	31 c0                	xor    %eax,%eax
  40536f:	89 c2                	mov    %eax,%edx
  405371:	b9 ff 00 00 00       	mov    $0xff,%ecx
  405376:	e8 85 27 00 00       	call   407b00 <snuff_it>
  40537b:	48 8b 7d f8          	mov    -0x8(%rbp),%rdi
  40537f:	48 8b 75 d8          	mov    -0x28(%rbp),%rsi
  405383:	e8 08 45 00 00       	call   409890 <add_string_to_thrash_list>
  405388:	48 8b 7d d8          	mov    -0x28(%rbp),%rdi
  40538c:	48 8b 75 e8          	mov    -0x18(%rbp),%rsi
  405390:	48 8b 45 e0          	mov    -0x20(%rbp),%rax
  405394:	48 8b 4d e8          	mov    -0x18(%rbp),%rcx
  405398:	48 29 c8             	sub    %rcx,%rax
  40539b:	48 83 c0 01          	add    $0x1,%rax
  40539f:	89 c2                	mov    %eax,%edx
  4053a1:	e8 9a 01 00 00       	call   405540 <ft_strlcpy>
  4053a6:	48 8b 7d f8          	mov    -0x8(%rbp),%rdi
  4053aa:	48 8b 75 d8          	mov    -0x28(%rbp),%rsi
  4053ae:	e8 cd c2 ff ff       	call   401680 <ft_getenv>
  4053b3:	48 89 45 d0          	mov    %rax,-0x30(%rbp)
  4053b7:	48 83 7d d0 00       	cmpq   $0x0,-0x30(%rbp)
  4053bc:	0f 84 11 00 00 00    	je     4053d3 <allocate_and_expand+0xc3>
  4053c2:	48 8b 7d f8          	mov    -0x8(%rbp),%rdi
  4053c6:	48 8b 75 f0          	mov    -0x10(%rbp),%rsi
  4053ca:	48 8b 55 d0          	mov    -0x30(%rbp),%rdx
  4053ce:	e8 7d fe ff ff       	call   405250 <add_expanded>
  4053d3:	48 83 c4 30          	add    $0x30,%rsp
  4053d7:	5d                   	pop    %rbp
  4053d8:	c3                   	ret    
  4053d9:	0f 1f 80 00 00 00 00 	nopl   0x0(%rax)

00000000004053e0 <rm_quotes>:
  4053e0:	55                   	push   %rbp
  4053e1:	48 89 e5             	mov    %rsp,%rbp
  4053e4:	48 83 ec 20          	sub    $0x20,%rsp
  4053e8:	48 89 7d f8          	mov    %rdi,-0x8(%rbp)
  4053ec:	48 89 75 f0          	mov    %rsi,-0x10(%rbp)
  4053f0:	48 8b 7d f0          	mov    -0x10(%rbp),%rdi
  4053f4:	e8 b7 4f 00 00       	call   40a3b0 <ft_strlen>
  4053f9:	83 c0 01             	add    $0x1,%eax
  4053fc:	48 63 f8             	movslq %eax,%rdi
  4053ff:	48 c1 e7 00          	shl    $0x0,%rdi
  405403:	e8 28 bd ff ff       	call   401130 <malloc@plt>
  405408:	48 89 45 e8          	mov    %rax,-0x18(%rbp)
  40540c:	48 83 7d e8 00       	cmpq   $0x0,-0x18(%rbp)
  405411:	0f 85 1c 00 00 00    	jne    405433 <rm_quotes+0x53>
  405417:	48 8b 7d f8          	mov    -0x8(%rbp),%rdi
  40541b:	48 be 05 c5 40 00 00 	movabs $0x40c505,%rsi
  405422:	00 00 00 
  405425:	31 c0                	xor    %eax,%eax
  405427:	89 c2                	mov    %eax,%edx
  405429:	b9 ff 00 00 00       	mov    $0xff,%ecx
  40542e:	e8 cd 26 00 00       	call   407b00 <snuff_it>
  405433:	48 8b 45 e8          	mov    -0x18(%rbp),%rax
  405437:	48 89 45 e0          	mov    %rax,-0x20(%rbp)
  40543b:	48 8b 7d f0          	mov    -0x10(%rbp),%rdi
  40543f:	48 8d 75 e8          	lea    -0x18(%rbp),%rsi
  405443:	e8 18 00 00 00       	call   405460 <check_rm_quotes>
  405448:	48 8b 45 e0          	mov    -0x20(%rbp),%rax
  40544c:	48 83 c4 20          	add    $0x20,%rsp
  405450:	5d                   	pop    %rbp
  405451:	c3                   	ret    
  405452:	66 2e 0f 1f 84 00 00 	cs nopw 0x0(%rax,%rax,1)
  405459:	00 00 00 
  40545c:	0f 1f 40 00          	nopl   0x0(%rax)

0000000000405460 <check_rm_quotes>:
  405460:	55                   	push   %rbp
  405461:	48 89 e5             	mov    %rsp,%rbp
  405464:	48 89 7d f8          	mov    %rdi,-0x8(%rbp)
  405468:	48 89 75 f0          	mov    %rsi,-0x10(%rbp)
  40546c:	c7 45 ec 00 00 00 00 	movl   $0x0,-0x14(%rbp)
  405473:	c7 45 e8 00 00 00 00 	movl   $0x0,-0x18(%rbp)
  40547a:	48 8b 45 f8          	mov    -0x8(%rbp),%rax
  40547e:	80 38 00             	cmpb   $0x0,(%rax)
  405481:	0f 84 ab 00 00 00    	je     405532 <check_rm_quotes+0xd2>
  405487:	48 8b 45 f8          	mov    -0x8(%rbp),%rax
  40548b:	0f be 00             	movsbl (%rax),%eax
  40548e:	83 f8 22             	cmp    $0x22,%eax
  405491:	0f 85 2c 00 00 00    	jne    4054c3 <check_rm_quotes+0x63>
  405497:	83 7d ec 00          	cmpl   $0x0,-0x14(%rbp)
  40549b:	0f 85 22 00 00 00    	jne    4054c3 <check_rm_quotes+0x63>
  4054a1:	83 7d e8 00          	cmpl   $0x0,-0x18(%rbp)
  4054a5:	0f 95 c0             	setne  %al
  4054a8:	34 ff                	xor    $0xff,%al
  4054aa:	24 01                	and    $0x1,%al
  4054ac:	0f b6 c0             	movzbl %al,%eax
  4054af:	89 45 e8             	mov    %eax,-0x18(%rbp)
  4054b2:	48 8b 45 f8          	mov    -0x8(%rbp),%rax
  4054b6:	48 83 c0 01          	add    $0x1,%rax
  4054ba:	48 89 45 f8          	mov    %rax,-0x8(%rbp)
  4054be:	e9 6a 00 00 00       	jmp    40552d <check_rm_quotes+0xcd>
  4054c3:	48 8b 45 f8          	mov    -0x8(%rbp),%rax
  4054c7:	0f be 00             	movsbl (%rax),%eax
  4054ca:	83 f8 27             	cmp    $0x27,%eax
  4054cd:	0f 85 2c 00 00 00    	jne    4054ff <check_rm_quotes+0x9f>
  4054d3:	83 7d e8 00          	cmpl   $0x0,-0x18(%rbp)
  4054d7:	0f 85 22 00 00 00    	jne    4054ff <check_rm_quotes+0x9f>
  4054dd:	83 7d ec 00          	cmpl   $0x0,-0x14(%rbp)
  4054e1:	0f 95 c0             	setne  %al
  4054e4:	34 ff                	xor    $0xff,%al
  4054e6:	24 01                	and    $0x1,%al
  4054e8:	0f b6 c0             	movzbl %al,%eax
  4054eb:	89 45 ec             	mov    %eax,-0x14(%rbp)
  4054ee:	48 8b 45 f8          	mov    -0x8(%rbp),%rax
  4054f2:	48 83 c0 01          	add    $0x1,%rax
  4054f6:	48 89 45 f8          	mov    %rax,-0x8(%rbp)
  4054fa:	e9 29 00 00 00       	jmp    405528 <check_rm_quotes+0xc8>
  4054ff:	48 8b 45 f8          	mov    -0x8(%rbp),%rax
  405503:	8a 08                	mov    (%rax),%cl
  405505:	48 8b 45 f0          	mov    -0x10(%rbp),%rax
  405509:	48 8b 00             	mov    (%rax),%rax
  40550c:	88 08                	mov    %cl,(%rax)
  40550e:	48 8b 45 f0          	mov    -0x10(%rbp),%rax
  405512:	48 8b 08             	mov    (%rax),%rcx
  405515:	48 83 c1 01          	add    $0x1,%rcx
  405519:	48 89 08             	mov    %rcx,(%rax)
  40551c:	48 8b 45 f8          	mov    -0x8(%rbp),%rax
  405520:	48 83 c0 01          	add    $0x1,%rax
  405524:	48 89 45 f8          	mov    %rax,-0x8(%rbp)
  405528:	e9 00 00 00 00       	jmp    40552d <check_rm_quotes+0xcd>
  40552d:	e9 48 ff ff ff       	jmp    40547a <check_rm_quotes+0x1a>
  405532:	48 8b 45 f0          	mov    -0x10(%rbp),%rax
  405536:	48 8b 00             	mov    (%rax),%rax
  405539:	c6 00 00             	movb   $0x0,(%rax)
  40553c:	5d                   	pop    %rbp
  40553d:	c3                   	ret    
  40553e:	66 90                	xchg   %ax,%ax

0000000000405540 <ft_strlcpy>:
  405540:	55                   	push   %rbp
  405541:	48 89 e5             	mov    %rsp,%rbp
  405544:	48 83 ec 20          	sub    $0x20,%rsp
  405548:	48 89 7d f8          	mov    %rdi,-0x8(%rbp)
  40554c:	48 89 75 f0          	mov    %rsi,-0x10(%rbp)
  405550:	89 55 ec             	mov    %edx,-0x14(%rbp)
  405553:	c7 45 e8 00 00 00 00 	movl   $0x0,-0x18(%rbp)
  40555a:	48 8b 7d f0          	mov    -0x10(%rbp),%rdi
  40555e:	e8 4d 4e 00 00       	call   40a3b0 <ft_strlen>
  405563:	89 45 e4             	mov    %eax,-0x1c(%rbp)
  405566:	83 7d ec 00          	cmpl   $0x0,-0x14(%rbp)
  40556a:	0f 84 6c 00 00 00    	je     4055dc <ft_strlcpy+0x9c>
  405570:	e9 00 00 00 00       	jmp    405575 <ft_strlcpy+0x35>
  405575:	48 8b 45 f0          	mov    -0x10(%rbp),%rax
  405579:	8b 4d e8             	mov    -0x18(%rbp),%ecx
  40557c:	0f be 0c 08          	movsbl (%rax,%rcx,1),%ecx
  405580:	31 c0                	xor    %eax,%eax
  405582:	83 f9 00             	cmp    $0x0,%ecx
  405585:	88 45 e3             	mov    %al,-0x1d(%rbp)
  405588:	0f 84 11 00 00 00    	je     40559f <ft_strlcpy+0x5f>
  40558e:	8b 45 e8             	mov    -0x18(%rbp),%eax
  405591:	8b 4d ec             	mov    -0x14(%rbp),%ecx
  405594:	83 e9 01             	sub    $0x1,%ecx
  405597:	39 c8                	cmp    %ecx,%eax
  405599:	0f 92 c0             	setb   %al
  40559c:	88 45 e3             	mov    %al,-0x1d(%rbp)
  40559f:	8a 45 e3             	mov    -0x1d(%rbp),%al
  4055a2:	a8 01                	test   $0x1,%al
  4055a4:	0f 85 05 00 00 00    	jne    4055af <ft_strlcpy+0x6f>
  4055aa:	e9 22 00 00 00       	jmp    4055d1 <ft_strlcpy+0x91>
  4055af:	48 8b 45 f0          	mov    -0x10(%rbp),%rax
  4055b3:	8b 4d e8             	mov    -0x18(%rbp),%ecx
  4055b6:	8a 14 08             	mov    (%rax,%rcx,1),%dl
  4055b9:	48 8b 45 f8          	mov    -0x8(%rbp),%rax
  4055bd:	8b 4d e8             	mov    -0x18(%rbp),%ecx
  4055c0:	88 14 08             	mov    %dl,(%rax,%rcx,1)
  4055c3:	8b 45 e8             	mov    -0x18(%rbp),%eax
  4055c6:	83 c0 01             	add    $0x1,%eax
  4055c9:	89 45 e8             	mov    %eax,-0x18(%rbp)
  4055cc:	e9 a4 ff ff ff       	jmp    405575 <ft_strlcpy+0x35>
  4055d1:	48 8b 45 f8          	mov    -0x8(%rbp),%rax
  4055d5:	8b 4d e8             	mov    -0x18(%rbp),%ecx
  4055d8:	c6 04 08 00          	movb   $0x0,(%rax,%rcx,1)
  4055dc:	8b 45 e4             	mov    -0x1c(%rbp),%eax
  4055df:	48 83 c4 20          	add    $0x20,%rsp
  4055e3:	5d                   	pop    %rbp
  4055e4:	c3                   	ret    
  4055e5:	66 2e 0f 1f 84 00 00 	cs nopw 0x0(%rax,%rax,1)
  4055ec:	00 00 00 
  4055ef:	90                   	nop

00000000004055f0 <read_to_keeper>:
  4055f0:	55                   	push   %rbp
  4055f1:	48 89 e5             	mov    %rsp,%rbp
  4055f4:	48 83 ec 30          	sub    $0x30,%rsp
  4055f8:	48 89 7d f8          	mov    %rdi,-0x8(%rbp)
  4055fc:	89 75 f4             	mov    %esi,-0xc(%rbp)
  4055ff:	48 89 55 e8          	mov    %rdx,-0x18(%rbp)
  405603:	48 c7 45 d8 00 00 00 	movq   $0x0,-0x28(%rbp)
  40560a:	00 
  40560b:	bf 06 00 00 00       	mov    $0x6,%edi
  405610:	e8 1b bb ff ff       	call   401130 <malloc@plt>
  405615:	48 89 45 e0          	mov    %rax,-0x20(%rbp)
  405619:	48 83 7d e0 00       	cmpq   $0x0,-0x20(%rbp)
  40561e:	0f 85 1c 00 00 00    	jne    405640 <read_to_keeper+0x50>
  405624:	48 8b 7d f8          	mov    -0x8(%rbp),%rdi
  405628:	48 be bf c5 40 00 00 	movabs $0x40c5bf,%rsi
  40562f:	00 00 00 
  405632:	31 c0                	xor    %eax,%eax
  405634:	89 c2                	mov    %eax,%edx
  405636:	b9 ff 00 00 00       	mov    $0xff,%ecx
  40563b:	e8 c0 24 00 00       	call   407b00 <snuff_it>
  405640:	48 c7 45 d0 00 00 00 	movq   $0x0,-0x30(%rbp)
  405647:	00 
  405648:	48 8b 45 e8          	mov    -0x18(%rbp),%rax
  40564c:	48 8b 38             	mov    (%rax),%rdi
  40564f:	be 0a 00 00 00       	mov    $0xa,%esi
  405654:	e8 97 4f 00 00       	call   40a5f0 <ft_strchr>
  405659:	48 83 f8 00          	cmp    $0x0,%rax
  40565d:	0f 95 c0             	setne  %al
  405660:	34 ff                	xor    $0xff,%al
  405662:	a8 01                	test   $0x1,%al
  405664:	0f 85 05 00 00 00    	jne    40566f <read_to_keeper+0x7f>
  40566a:	e9 88 00 00 00       	jmp    4056f7 <read_to_keeper+0x107>
  40566f:	8b 7d f4             	mov    -0xc(%rbp),%edi
  405672:	48 8b 75 e0          	mov    -0x20(%rbp),%rsi
  405676:	ba 05 00 00 00       	mov    $0x5,%edx
  40567b:	e8 80 ba ff ff       	call   401100 <read@plt>
  405680:	48 89 45 d0          	mov    %rax,-0x30(%rbp)
  405684:	48 83 7d d0 00       	cmpq   $0x0,-0x30(%rbp)
  405689:	0f 8f 05 00 00 00    	jg     405694 <read_to_keeper+0xa4>
  40568f:	e9 63 00 00 00       	jmp    4056f7 <read_to_keeper+0x107>
  405694:	48 8b 45 e0          	mov    -0x20(%rbp),%rax
  405698:	48 8b 4d d0          	mov    -0x30(%rbp),%rcx
  40569c:	c6 04 08 00          	movb   $0x0,(%rax,%rcx,1)
  4056a0:	48 8b 45 e8          	mov    -0x18(%rbp),%rax
  4056a4:	48 8b 38             	mov    (%rax),%rdi
  4056a7:	48 8b 75 e0          	mov    -0x20(%rbp),%rsi
  4056ab:	e8 00 59 00 00       	call   40afb0 <ft_strjoin>
  4056b0:	48 89 45 d8          	mov    %rax,-0x28(%rbp)
  4056b4:	48 83 7d d8 00       	cmpq   $0x0,-0x28(%rbp)
  4056b9:	0f 85 1c 00 00 00    	jne    4056db <read_to_keeper+0xeb>
  4056bf:	48 8b 7d f8          	mov    -0x8(%rbp),%rdi
  4056c3:	48 be bf c5 40 00 00 	movabs $0x40c5bf,%rsi
  4056ca:	00 00 00 
  4056cd:	31 c0                	xor    %eax,%eax
  4056cf:	89 c2                	mov    %eax,%edx
  4056d1:	b9 ff 00 00 00       	mov    $0xff,%ecx
  4056d6:	e8 25 24 00 00       	call   407b00 <snuff_it>
  4056db:	48 8b 45 e8          	mov    -0x18(%rbp),%rax
  4056df:	48 8b 38             	mov    (%rax),%rdi
  4056e2:	e8 49 b9 ff ff       	call   401030 <free@plt>
  4056e7:	48 8b 4d d8          	mov    -0x28(%rbp),%rcx
  4056eb:	48 8b 45 e8          	mov    -0x18(%rbp),%rax
  4056ef:	48 89 08             	mov    %rcx,(%rax)
  4056f2:	e9 51 ff ff ff       	jmp    405648 <read_to_keeper+0x58>
  4056f7:	48 8b 7d e0          	mov    -0x20(%rbp),%rdi
  4056fb:	e8 30 b9 ff ff       	call   401030 <free@plt>
  405700:	48 8b 45 d0          	mov    -0x30(%rbp),%rax
  405704:	48 83 c4 30          	add    $0x30,%rsp
  405708:	5d                   	pop    %rbp
  405709:	c3                   	ret    
  40570a:	66 0f 1f 44 00 00    	nopw   0x0(%rax,%rax,1)

0000000000405710 <cut_line_from_keeper>:
  405710:	55                   	push   %rbp
  405711:	48 89 e5             	mov    %rsp,%rbp
  405714:	48 83 ec 30          	sub    $0x30,%rsp
  405718:	48 89 7d f0          	mov    %rdi,-0x10(%rbp)
  40571c:	48 89 75 e8          	mov    %rsi,-0x18(%rbp)
  405720:	48 8b 45 e8          	mov    -0x18(%rbp),%rax
  405724:	48 83 38 00          	cmpq   $0x0,(%rax)
  405728:	0f 84 15 00 00 00    	je     405743 <cut_line_from_keeper+0x33>
  40572e:	48 8b 45 e8          	mov    -0x18(%rbp),%rax
  405732:	48 8b 38             	mov    (%rax),%rdi
  405735:	e8 76 4c 00 00       	call   40a3b0 <ft_strlen>
  40573a:	83 f8 01             	cmp    $0x1,%eax
  40573d:	0f 8d 0d 00 00 00    	jge    405750 <cut_line_from_keeper+0x40>
  405743:	48 c7 45 f8 00 00 00 	movq   $0x0,-0x8(%rbp)
  40574a:	00 
  40574b:	e9 f3 00 00 00       	jmp    405843 <cut_line_from_keeper+0x133>
  405750:	48 8b 45 e8          	mov    -0x18(%rbp),%rax
  405754:	48 8b 38             	mov    (%rax),%rdi
  405757:	be 0a 00 00 00       	mov    $0xa,%esi
  40575c:	e8 8f 4e 00 00       	call   40a5f0 <ft_strchr>
  405761:	48 89 45 d8          	mov    %rax,-0x28(%rbp)
  405765:	48 83 7d d8 00       	cmpq   $0x0,-0x28(%rbp)
  40576a:	0f 84 8f 00 00 00    	je     4057ff <cut_line_from_keeper+0xef>
  405770:	48 8b 7d d8          	mov    -0x28(%rbp),%rdi
  405774:	48 83 c7 01          	add    $0x1,%rdi
  405778:	e8 33 4c 00 00       	call   40a3b0 <ft_strlen>
  40577d:	89 45 d0             	mov    %eax,-0x30(%rbp)
  405780:	48 8b 45 e8          	mov    -0x18(%rbp),%rax
  405784:	48 8b 38             	mov    (%rax),%rdi
  405787:	e8 24 4c 00 00       	call   40a3b0 <ft_strlen>
  40578c:	2b 45 d0             	sub    -0x30(%rbp),%eax
  40578f:	89 45 d4             	mov    %eax,-0x2c(%rbp)
  405792:	48 63 7d d4          	movslq -0x2c(%rbp),%rdi
  405796:	48 c1 e7 00          	shl    $0x0,%rdi
  40579a:	e8 91 b9 ff ff       	call   401130 <malloc@plt>
  40579f:	48 89 45 e0          	mov    %rax,-0x20(%rbp)
  4057a3:	48 83 7d e0 00       	cmpq   $0x0,-0x20(%rbp)
  4057a8:	0f 85 1c 00 00 00    	jne    4057ca <cut_line_from_keeper+0xba>
  4057ae:	48 8b 7d f0          	mov    -0x10(%rbp),%rdi
  4057b2:	48 be bf c5 40 00 00 	movabs $0x40c5bf,%rsi
  4057b9:	00 00 00 
  4057bc:	31 c0                	xor    %eax,%eax
  4057be:	89 c2                	mov    %eax,%edx
  4057c0:	b9 ff 00 00 00       	mov    $0xff,%ecx
  4057c5:	e8 36 23 00 00       	call   407b00 <snuff_it>
  4057ca:	48 8b 7d e0          	mov    -0x20(%rbp),%rdi
  4057ce:	48 8b 45 e8          	mov    -0x18(%rbp),%rax
  4057d2:	48 8b 30             	mov    (%rax),%rsi
  4057d5:	8b 55 d4             	mov    -0x2c(%rbp),%edx
  4057d8:	e8 63 fd ff ff       	call   405540 <ft_strlcpy>
  4057dd:	48 8b 45 e8          	mov    -0x18(%rbp),%rax
  4057e1:	48 8b 38             	mov    (%rax),%rdi
  4057e4:	48 8b 75 d8          	mov    -0x28(%rbp),%rsi
  4057e8:	48 83 c6 01          	add    $0x1,%rsi
  4057ec:	8b 45 d0             	mov    -0x30(%rbp),%eax
  4057ef:	83 c0 01             	add    $0x1,%eax
  4057f2:	48 63 d0             	movslq %eax,%rdx
  4057f5:	e8 f6 4b 00 00       	call   40a3f0 <ft_memmove>
  4057fa:	e9 3c 00 00 00       	jmp    40583b <cut_line_from_keeper+0x12b>
  4057ff:	48 8b 45 e8          	mov    -0x18(%rbp),%rax
  405803:	48 8b 38             	mov    (%rax),%rdi
  405806:	e8 35 54 00 00       	call   40ac40 <ft_strdup>
  40580b:	48 89 45 e0          	mov    %rax,-0x20(%rbp)
  40580f:	48 83 7d e0 00       	cmpq   $0x0,-0x20(%rbp)
  405814:	0f 85 1c 00 00 00    	jne    405836 <cut_line_from_keeper+0x126>
  40581a:	48 8b 7d f0          	mov    -0x10(%rbp),%rdi
  40581e:	48 be bf c5 40 00 00 	movabs $0x40c5bf,%rsi
  405825:	00 00 00 
  405828:	31 c0                	xor    %eax,%eax
  40582a:	89 c2                	mov    %eax,%edx
  40582c:	b9 ff 00 00 00       	mov    $0xff,%ecx
  405831:	e8 ca 22 00 00       	call   407b00 <snuff_it>
  405836:	e9 00 00 00 00       	jmp    40583b <cut_line_from_keeper+0x12b>
  40583b:	48 8b 45 e0          	mov    -0x20(%rbp),%rax
  40583f:	48 89 45 f8          	mov    %rax,-0x8(%rbp)
  405843:	48 8b 45 f8          	mov    -0x8(%rbp),%rax
  405847:	48 83 c4 30          	add    $0x30,%rsp
  40584b:	5d                   	pop    %rbp
  40584c:	c3                   	ret    
  40584d:	0f 1f 00             	nopl   (%rax)

0000000000405850 <get_next_line>:
  405850:	55                   	push   %rbp
  405851:	48 89 e5             	mov    %rsp,%rbp
  405854:	48 83 ec 30          	sub    $0x30,%rsp
  405858:	48 89 7d f0          	mov    %rdi,-0x10(%rbp)
  40585c:	89 75 ec             	mov    %esi,-0x14(%rbp)
  40585f:	48 c7 45 d8 00 00 00 	movq   $0x0,-0x28(%rbp)
  405866:	00 
  405867:	83 7d ec 00          	cmpl   $0x0,-0x14(%rbp)
  40586b:	0f 8d 0d 00 00 00    	jge    40587e <get_next_line+0x2e>
  405871:	48 c7 45 f8 00 00 00 	movq   $0x0,-0x8(%rbp)
  405878:	00 
  405879:	e9 fe 00 00 00       	jmp    40597c <get_next_line+0x12c>
  40587e:	48 83 3c 25 10 01 41 	cmpq   $0x0,0x410110
  405885:	00 00 
  405887:	0f 85 38 00 00 00    	jne    4058c5 <get_next_line+0x75>
  40588d:	48 bf d6 c1 40 00 00 	movabs $0x40c1d6,%rdi
  405894:	00 00 00 
  405897:	e8 a4 53 00 00       	call   40ac40 <ft_strdup>
  40589c:	48 89 04 25 10 01 41 	mov    %rax,0x410110
  4058a3:	00 
  4058a4:	48 83 3c 25 10 01 41 	cmpq   $0x0,0x410110
  4058ab:	00 00 
  4058ad:	0f 85 0d 00 00 00    	jne    4058c0 <get_next_line+0x70>
  4058b3:	48 c7 45 f8 00 00 00 	movq   $0x0,-0x8(%rbp)
  4058ba:	00 
  4058bb:	e9 bc 00 00 00       	jmp    40597c <get_next_line+0x12c>
  4058c0:	e9 00 00 00 00       	jmp    4058c5 <get_next_line+0x75>
  4058c5:	48 8b 7d f0          	mov    -0x10(%rbp),%rdi
  4058c9:	8b 75 ec             	mov    -0x14(%rbp),%esi
  4058cc:	48 ba 10 01 41 00 00 	movabs $0x410110,%rdx
  4058d3:	00 00 00 
  4058d6:	e8 15 fd ff ff       	call   4055f0 <read_to_keeper>
  4058db:	48 89 45 e0          	mov    %rax,-0x20(%rbp)
  4058df:	48 83 7d e0 00       	cmpq   $0x0,-0x20(%rbp)
  4058e4:	0f 8d 42 00 00 00    	jge    40592c <get_next_line+0xdc>
  4058ea:	48 8b 3c 25 10 01 41 	mov    0x410110,%rdi
  4058f1:	00 
  4058f2:	e8 39 b7 ff ff       	call   401030 <free@plt>
  4058f7:	48 c7 04 25 10 01 41 	movq   $0x0,0x410110
  4058fe:	00 00 00 00 00 
  405903:	48 8b 7d f0          	mov    -0x10(%rbp),%rdi
  405907:	48 be e2 c5 40 00 00 	movabs $0x40c5e2,%rsi
  40590e:	00 00 00 
  405911:	31 c0                	xor    %eax,%eax
  405913:	89 c2                	mov    %eax,%edx
  405915:	b9 ff 00 00 00       	mov    $0xff,%ecx
  40591a:	e8 e1 21 00 00       	call   407b00 <snuff_it>
  40591f:	48 c7 45 f8 00 00 00 	movq   $0x0,-0x8(%rbp)
  405926:	00 
  405927:	e9 50 00 00 00       	jmp    40597c <get_next_line+0x12c>
  40592c:	48 8b 7d f0          	mov    -0x10(%rbp),%rdi
  405930:	48 be 10 01 41 00 00 	movabs $0x410110,%rsi
  405937:	00 00 00 
  40593a:	e8 d1 fd ff ff       	call   405710 <cut_line_from_keeper>
  40593f:	48 89 45 d8          	mov    %rax,-0x28(%rbp)
  405943:	48 8b 7d d8          	mov    -0x28(%rbp),%rdi
  405947:	be 0a 00 00 00       	mov    $0xa,%esi
  40594c:	e8 9f 4c 00 00       	call   40a5f0 <ft_strchr>
  405951:	48 83 f8 00          	cmp    $0x0,%rax
  405955:	0f 85 19 00 00 00    	jne    405974 <get_next_line+0x124>
  40595b:	48 8b 3c 25 10 01 41 	mov    0x410110,%rdi
  405962:	00 
  405963:	e8 c8 b6 ff ff       	call   401030 <free@plt>
  405968:	48 c7 04 25 10 01 41 	movq   $0x0,0x410110
  40596f:	00 00 00 00 00 
  405974:	48 8b 45 d8          	mov    -0x28(%rbp),%rax
  405978:	48 89 45 f8          	mov    %rax,-0x8(%rbp)
  40597c:	48 8b 45 f8          	mov    -0x8(%rbp),%rax
  405980:	48 83 c4 30          	add    $0x30,%rsp
  405984:	5d                   	pop    %rbp
  405985:	c3                   	ret    
  405986:	66 2e 0f 1f 84 00 00 	cs nopw 0x0(%rax,%rax,1)
  40598d:	00 00 00 

0000000000405990 <get_heredoc>:
  405990:	55                   	push   %rbp
  405991:	48 89 e5             	mov    %rsp,%rbp
  405994:	48 83 ec 10          	sub    $0x10,%rsp
  405998:	48 89 7d f8          	mov    %rdi,-0x8(%rbp)
  40599c:	48 89 75 f0          	mov    %rsi,-0x10(%rbp)
  4059a0:	48 8b 7d f8          	mov    -0x8(%rbp),%rdi
  4059a4:	be 03 00 00 00       	mov    $0x3,%esi
  4059a9:	e8 72 3a 00 00       	call   409420 <set_mode>
  4059ae:	48 8b 7d f8          	mov    -0x8(%rbp),%rdi
  4059b2:	48 8b 45 f0          	mov    -0x10(%rbp),%rax
  4059b6:	48 8b 30             	mov    (%rax),%rsi
  4059b9:	e8 52 00 00 00       	call   405a10 <init_temp_file>
  4059be:	48 8b 7d f8          	mov    -0x8(%rbp),%rdi
  4059c2:	48 8b 45 f0          	mov    -0x10(%rbp),%rax
  4059c6:	48 8b 30             	mov    (%rax),%rsi
  4059c9:	e8 82 01 00 00       	call   405b50 <write_temp_file>
  4059ce:	48 8b 45 f0          	mov    -0x10(%rbp),%rax
  4059d2:	48 8b 38             	mov    (%rax),%rdi
  4059d5:	48 83 c7 18          	add    $0x18,%rdi
  4059d9:	e8 b2 1d 00 00       	call   407790 <close_fd_set_minus1>
  4059de:	8b 04 25 0c 01 41 00 	mov    0x41010c,%eax
  4059e5:	83 f8 02             	cmp    $0x2,%eax
  4059e8:	0f 85 16 00 00 00    	jne    405a04 <get_heredoc+0x74>
  4059ee:	48 8b 45 f8          	mov    -0x8(%rbp),%rax
  4059f2:	c7 40 6c 82 00 00 00 	movl   $0x82,0x6c(%rax)
  4059f9:	c7 04 25 0c 01 41 00 	movl   $0x0,0x41010c
  405a00:	00 00 00 00 
  405a04:	48 83 c4 10          	add    $0x10,%rsp
  405a08:	5d                   	pop    %rbp
  405a09:	c3                   	ret    
  405a0a:	66 0f 1f 44 00 00    	nopw   0x0(%rax,%rax,1)

0000000000405a10 <init_temp_file>:
  405a10:	55                   	push   %rbp
  405a11:	48 89 e5             	mov    %rsp,%rbp
  405a14:	48 83 ec 50          	sub    $0x50,%rsp
  405a18:	48 89 7d f8          	mov    %rdi,-0x8(%rbp)
  405a1c:	48 89 75 f0          	mov    %rsi,-0x10(%rbp)
  405a20:	48 8b 7d f8          	mov    -0x8(%rbp),%rdi
  405a24:	e8 97 02 00 00       	call   405cc0 <get_rand_value>
  405a29:	89 45 b4             	mov    %eax,-0x4c(%rbp)
  405a2c:	48 c7 45 b8 00 00 00 	movq   $0x0,-0x48(%rbp)
  405a33:	00 
  405a34:	8b 7d b4             	mov    -0x4c(%rbp),%edi
  405a37:	e8 d4 5c 00 00       	call   40b710 <ft_itoa>
  405a3c:	48 89 45 b8          	mov    %rax,-0x48(%rbp)
  405a40:	48 83 7d b8 00       	cmpq   $0x0,-0x48(%rbp)
  405a45:	0f 85 1c 00 00 00    	jne    405a67 <init_temp_file+0x57>
  405a4b:	48 8b 7d f8          	mov    -0x8(%rbp),%rdi
  405a4f:	48 be 02 c6 40 00 00 	movabs $0x40c602,%rsi
  405a56:	00 00 00 
  405a59:	31 c0                	xor    %eax,%eax
  405a5b:	89 c2                	mov    %eax,%edx
  405a5d:	b9 ff 00 00 00       	mov    $0xff,%ecx
  405a62:	e8 99 20 00 00       	call   407b00 <snuff_it>
  405a67:	48 8b 7d f8          	mov    -0x8(%rbp),%rdi
  405a6b:	48 8b 75 b8          	mov    -0x48(%rbp),%rsi
  405a6f:	e8 1c 3e 00 00       	call   409890 <add_string_to_thrash_list>
  405a74:	48 8d 7d c0          	lea    -0x40(%rbp),%rdi
  405a78:	48 be 24 c6 40 00 00 	movabs $0x40c624,%rsi
  405a7f:	00 00 00 
  405a82:	ba 2a 00 00 00       	mov    $0x2a,%edx
  405a87:	e8 b4 fa ff ff       	call   405540 <ft_strlcpy>
  405a8c:	48 8d 7d c0          	lea    -0x40(%rbp),%rdi
  405a90:	48 8b 75 b8          	mov    -0x48(%rbp),%rsi
  405a94:	ba 2a 00 00 00       	mov    $0x2a,%edx
  405a99:	e8 52 4a 00 00       	call   40a4f0 <ft_strlcat>
  405a9e:	48 8d 7d c0          	lea    -0x40(%rbp),%rdi
  405aa2:	48 be 2e c6 40 00 00 	movabs $0x40c62e,%rsi
  405aa9:	00 00 00 
  405aac:	ba 2a 00 00 00       	mov    $0x2a,%edx
  405ab1:	e8 3a 4a 00 00       	call   40a4f0 <ft_strlcat>
  405ab6:	48 8d 7d c0          	lea    -0x40(%rbp),%rdi
  405aba:	e8 81 51 00 00       	call   40ac40 <ft_strdup>
  405abf:	48 89 c1             	mov    %rax,%rcx
  405ac2:	48 8b 45 f0          	mov    -0x10(%rbp),%rax
  405ac6:	48 89 48 08          	mov    %rcx,0x8(%rax)
  405aca:	48 8b 45 f0          	mov    -0x10(%rbp),%rax
  405ace:	48 83 78 08 00       	cmpq   $0x0,0x8(%rax)
  405ad3:	0f 85 1c 00 00 00    	jne    405af5 <init_temp_file+0xe5>
  405ad9:	48 8b 7d f8          	mov    -0x8(%rbp),%rdi
  405add:	48 be 33 c6 40 00 00 	movabs $0x40c633,%rsi
  405ae4:	00 00 00 
  405ae7:	31 c0                	xor    %eax,%eax
  405ae9:	89 c2                	mov    %eax,%edx
  405aeb:	b9 ff 00 00 00       	mov    $0xff,%ecx
  405af0:	e8 0b 20 00 00       	call   407b00 <snuff_it>
  405af5:	48 8b 45 f0          	mov    -0x10(%rbp),%rax
  405af9:	48 8b 78 08          	mov    0x8(%rax),%rdi
  405afd:	be 41 02 00 00       	mov    $0x241,%esi
  405b02:	ba a4 01 00 00       	mov    $0x1a4,%edx
  405b07:	b0 00                	mov    $0x0,%al
  405b09:	e8 62 b6 ff ff       	call   401170 <open@plt>
  405b0e:	89 c1                	mov    %eax,%ecx
  405b10:	48 8b 45 f0          	mov    -0x10(%rbp),%rax
  405b14:	89 48 18             	mov    %ecx,0x18(%rax)
  405b17:	48 8b 45 f0          	mov    -0x10(%rbp),%rax
  405b1b:	83 78 18 00          	cmpl   $0x0,0x18(%rax)
  405b1f:	0f 8d 1c 00 00 00    	jge    405b41 <init_temp_file+0x131>
  405b25:	48 8b 7d f8          	mov    -0x8(%rbp),%rdi
  405b29:	48 be 51 c6 40 00 00 	movabs $0x40c651,%rsi
  405b30:	00 00 00 
  405b33:	31 c0                	xor    %eax,%eax
  405b35:	89 c2                	mov    %eax,%edx
  405b37:	b9 ff 00 00 00       	mov    $0xff,%ecx
  405b3c:	e8 bf 1f 00 00       	call   407b00 <snuff_it>
  405b41:	48 83 c4 50          	add    $0x50,%rsp
  405b45:	5d                   	pop    %rbp
  405b46:	c3                   	ret    
  405b47:	66 0f 1f 84 00 00 00 	nopw   0x0(%rax,%rax,1)
  405b4e:	00 00 

0000000000405b50 <write_temp_file>:
  405b50:	55                   	push   %rbp
  405b51:	48 89 e5             	mov    %rsp,%rbp
  405b54:	48 83 ec 30          	sub    $0x30,%rsp
  405b58:	48 89 7d f8          	mov    %rdi,-0x8(%rbp)
  405b5c:	48 89 75 f0          	mov    %rsi,-0x10(%rbp)
  405b60:	48 8b 45 f0          	mov    -0x10(%rbp),%rax
  405b64:	48 8b 78 10          	mov    0x10(%rax),%rdi
  405b68:	e8 43 48 00 00       	call   40a3b0 <ft_strlen>
  405b6d:	89 45 e4             	mov    %eax,-0x1c(%rbp)
  405b70:	48 8b 7d f8          	mov    -0x8(%rbp),%rdi
  405b74:	31 f6                	xor    %esi,%esi
  405b76:	e8 d5 fc ff ff       	call   405850 <get_next_line>
  405b7b:	48 89 45 e8          	mov    %rax,-0x18(%rbp)
  405b7f:	48 83 7d e8 00       	cmpq   $0x0,-0x18(%rbp)
  405b84:	0f 84 0a 01 00 00    	je     405c94 <write_temp_file+0x144>
  405b8a:	8b 04 25 0c 01 41 00 	mov    0x41010c,%eax
  405b91:	83 f8 02             	cmp    $0x2,%eax
  405b94:	0f 84 2f 00 00 00    	je     405bc9 <write_temp_file+0x79>
  405b9a:	48 8b 7d e8          	mov    -0x18(%rbp),%rdi
  405b9e:	e8 0d 48 00 00       	call   40a3b0 <ft_strlen>
  405ba3:	3b 45 e4             	cmp    -0x1c(%rbp),%eax
  405ba6:	0f 85 22 00 00 00    	jne    405bce <write_temp_file+0x7e>
  405bac:	48 8b 7d e8          	mov    -0x18(%rbp),%rdi
  405bb0:	48 8b 45 f0          	mov    -0x10(%rbp),%rax
  405bb4:	48 8b 70 10          	mov    0x10(%rax),%rsi
  405bb8:	8b 55 e4             	mov    -0x1c(%rbp),%edx
  405bbb:	e8 40 4c 00 00       	call   40a800 <ft_strncmp>
  405bc0:	83 f8 00             	cmp    $0x0,%eax
  405bc3:	0f 85 05 00 00 00    	jne    405bce <write_temp_file+0x7e>
  405bc9:	e9 c6 00 00 00       	jmp    405c94 <write_temp_file+0x144>
  405bce:	48 8b 7d f8          	mov    -0x8(%rbp),%rdi
  405bd2:	48 8b 75 f0          	mov    -0x10(%rbp),%rsi
  405bd6:	48 8d 55 e8          	lea    -0x18(%rbp),%rdx
  405bda:	e8 a1 01 00 00       	call   405d80 <process_heredoc_vars>
  405bdf:	48 8b 45 f0          	mov    -0x10(%rbp),%rax
  405be3:	8b 40 18             	mov    0x18(%rax),%eax
  405be6:	89 45 d4             	mov    %eax,-0x2c(%rbp)
  405be9:	48 8b 45 e8          	mov    -0x18(%rbp),%rax
  405bed:	48 89 45 d8          	mov    %rax,-0x28(%rbp)
  405bf1:	48 8b 7d e8          	mov    -0x18(%rbp),%rdi
  405bf5:	e8 b6 47 00 00       	call   40a3b0 <ft_strlen>
  405bfa:	8b 7d d4             	mov    -0x2c(%rbp),%edi
  405bfd:	48 8b 75 d8          	mov    -0x28(%rbp),%rsi
  405c01:	48 63 d0             	movslq %eax,%rdx
  405c04:	e8 57 b4 ff ff       	call   401060 <write@plt>
  405c09:	48 83 f8 00          	cmp    $0x0,%rax
  405c0d:	0f 8c 25 00 00 00    	jl     405c38 <write_temp_file+0xe8>
  405c13:	48 8b 45 f0          	mov    -0x10(%rbp),%rax
  405c17:	8b 78 18             	mov    0x18(%rax),%edi
  405c1a:	48 be d5 c1 40 00 00 	movabs $0x40c1d5,%rsi
  405c21:	00 00 00 
  405c24:	ba 01 00 00 00       	mov    $0x1,%edx
  405c29:	e8 32 b4 ff ff       	call   401060 <write@plt>
  405c2e:	48 83 f8 00          	cmp    $0x0,%rax
  405c32:	0f 8d 3f 00 00 00    	jge    405c77 <write_temp_file+0x127>
  405c38:	48 8b 7d f0          	mov    -0x10(%rbp),%rdi
  405c3c:	48 83 c7 18          	add    $0x18,%rdi
  405c40:	e8 4b 1b 00 00       	call   407790 <close_fd_set_minus1>
  405c45:	48 8b 45 f0          	mov    -0x10(%rbp),%rax
  405c49:	48 8b 78 08          	mov    0x8(%rax),%rdi
  405c4d:	e8 ee b3 ff ff       	call   401040 <unlink@plt>
  405c52:	48 8b 7d e8          	mov    -0x18(%rbp),%rdi
  405c56:	e8 d5 b3 ff ff       	call   401030 <free@plt>
  405c5b:	48 8b 7d f8          	mov    -0x8(%rbp),%rdi
  405c5f:	48 be b5 c6 40 00 00 	movabs $0x40c6b5,%rsi
  405c66:	00 00 00 
  405c69:	31 c0                	xor    %eax,%eax
  405c6b:	89 c2                	mov    %eax,%edx
  405c6d:	b9 ff 00 00 00       	mov    $0xff,%ecx
  405c72:	e8 89 1e 00 00       	call   407b00 <snuff_it>
  405c77:	48 8b 7d e8          	mov    -0x18(%rbp),%rdi
  405c7b:	e8 b0 b3 ff ff       	call   401030 <free@plt>
  405c80:	48 8b 7d f8          	mov    -0x8(%rbp),%rdi
  405c84:	31 f6                	xor    %esi,%esi
  405c86:	e8 c5 fb ff ff       	call   405850 <get_next_line>
  405c8b:	48 89 45 e8          	mov    %rax,-0x18(%rbp)
  405c8f:	e9 eb fe ff ff       	jmp    405b7f <write_temp_file+0x2f>
  405c94:	48 83 7d e8 00       	cmpq   $0x0,-0x18(%rbp)
  405c99:	0f 85 11 00 00 00    	jne    405cb0 <write_temp_file+0x160>
  405c9f:	48 bf d0 c6 40 00 00 	movabs $0x40c6d0,%rdi
  405ca6:	00 00 00 
  405ca9:	b0 00                	mov    $0x0,%al
  405cab:	e8 e0 b3 ff ff       	call   401090 <printf@plt>
  405cb0:	48 8b 7d e8          	mov    -0x18(%rbp),%rdi
  405cb4:	e8 77 b3 ff ff       	call   401030 <free@plt>
  405cb9:	48 83 c4 30          	add    $0x30,%rsp
  405cbd:	5d                   	pop    %rbp
  405cbe:	c3                   	ret    
  405cbf:	90                   	nop

0000000000405cc0 <get_rand_value>:
  405cc0:	55                   	push   %rbp
  405cc1:	48 89 e5             	mov    %rsp,%rbp
  405cc4:	48 83 ec 20          	sub    $0x20,%rsp
  405cc8:	48 89 7d f8          	mov    %rdi,-0x8(%rbp)
  405ccc:	48 bf 6b c6 40 00 00 	movabs $0x40c66b,%rdi
  405cd3:	00 00 00 
  405cd6:	31 f6                	xor    %esi,%esi
  405cd8:	b0 00                	mov    $0x0,%al
  405cda:	e8 91 b4 ff ff       	call   401170 <open@plt>
  405cdf:	89 c1                	mov    %eax,%ecx
  405ce1:	48 8b 45 f8          	mov    -0x8(%rbp),%rax
  405ce5:	89 48 2c             	mov    %ecx,0x2c(%rax)
  405ce8:	48 8b 45 f8          	mov    -0x8(%rbp),%rax
  405cec:	83 78 2c 00          	cmpl   $0x0,0x2c(%rax)
  405cf0:	0f 8d 1c 00 00 00    	jge    405d12 <get_rand_value+0x52>
  405cf6:	48 8b 7d f8          	mov    -0x8(%rbp),%rdi
  405cfa:	48 be 78 c6 40 00 00 	movabs $0x40c678,%rsi
  405d01:	00 00 00 
  405d04:	31 c0                	xor    %eax,%eax
  405d06:	89 c2                	mov    %eax,%edx
  405d08:	b9 ff 00 00 00       	mov    $0xff,%ecx
  405d0d:	e8 ee 1d 00 00       	call   407b00 <snuff_it>
  405d12:	48 8b 45 f8          	mov    -0x8(%rbp),%rax
  405d16:	8b 78 2c             	mov    0x2c(%rax),%edi
  405d19:	48 8d 75 f4          	lea    -0xc(%rbp),%rsi
  405d1d:	ba 04 00 00 00       	mov    $0x4,%edx
  405d22:	e8 d9 b3 ff ff       	call   401100 <read@plt>
  405d27:	48 89 45 e8          	mov    %rax,-0x18(%rbp)
  405d2b:	48 83 7d e8 00       	cmpq   $0x0,-0x18(%rbp)
  405d30:	0f 8d 1c 00 00 00    	jge    405d52 <get_rand_value+0x92>
  405d36:	48 8b 7d f8          	mov    -0x8(%rbp),%rdi
  405d3a:	48 be 94 c6 40 00 00 	movabs $0x40c694,%rsi
  405d41:	00 00 00 
  405d44:	31 c0                	xor    %eax,%eax
  405d46:	89 c2                	mov    %eax,%edx
  405d48:	b9 ff 00 00 00       	mov    $0xff,%ecx
  405d4d:	e8 ae 1d 00 00       	call   407b00 <snuff_it>
  405d52:	48 8b 7d f8          	mov    -0x8(%rbp),%rdi
  405d56:	48 83 c7 2c          	add    $0x2c,%rdi
  405d5a:	e8 31 1a 00 00       	call   407790 <close_fd_set_minus1>
  405d5f:	8b 45 f4             	mov    -0xc(%rbp),%eax
  405d62:	b9 ff ff ff 7f       	mov    $0x7fffffff,%ecx
  405d67:	99                   	cltd   
  405d68:	f7 f9                	idiv   %ecx
  405d6a:	89 d0                	mov    %edx,%eax
  405d6c:	48 83 c4 20          	add    $0x20,%rsp
  405d70:	5d                   	pop    %rbp
  405d71:	c3                   	ret    
  405d72:	66 2e 0f 1f 84 00 00 	cs nopw 0x0(%rax,%rax,1)
  405d79:	00 00 00 
  405d7c:	0f 1f 40 00          	nopl   0x0(%rax)

0000000000405d80 <process_heredoc_vars>:
  405d80:	55                   	push   %rbp
  405d81:	48 89 e5             	mov    %rsp,%rbp
  405d84:	48 83 ec 20          	sub    $0x20,%rsp
  405d88:	48 89 7d f8          	mov    %rdi,-0x8(%rbp)
  405d8c:	48 89 75 f0          	mov    %rsi,-0x10(%rbp)
  405d90:	48 89 55 e8          	mov    %rdx,-0x18(%rbp)
  405d94:	48 8b 45 e8          	mov    -0x18(%rbp),%rax
  405d98:	48 8b 38             	mov    (%rax),%rdi
  405d9b:	be 24 00 00 00       	mov    $0x24,%esi
  405da0:	e8 4b 48 00 00       	call   40a5f0 <ft_strchr>
  405da5:	48 83 f8 00          	cmp    $0x0,%rax
  405da9:	0f 84 39 00 00 00    	je     405de8 <process_heredoc_vars+0x68>
  405daf:	48 8b 45 f0          	mov    -0x10(%rbp),%rax
  405db3:	83 78 1c 00          	cmpl   $0x0,0x1c(%rax)
  405db7:	0f 85 2b 00 00 00    	jne    405de8 <process_heredoc_vars+0x68>
  405dbd:	48 8b 7d f8          	mov    -0x8(%rbp),%rdi
  405dc1:	48 8b 45 e8          	mov    -0x18(%rbp),%rax
  405dc5:	48 8b 30             	mov    (%rax),%rsi
  405dc8:	e8 23 00 00 00       	call   405df0 <heredoc_expand_var>
  405dcd:	48 89 45 e0          	mov    %rax,-0x20(%rbp)
  405dd1:	48 8b 45 e8          	mov    -0x18(%rbp),%rax
  405dd5:	48 8b 38             	mov    (%rax),%rdi
  405dd8:	e8 53 b2 ff ff       	call   401030 <free@plt>
  405ddd:	48 8b 4d e0          	mov    -0x20(%rbp),%rcx
  405de1:	48 8b 45 e8          	mov    -0x18(%rbp),%rax
  405de5:	48 89 08             	mov    %rcx,(%rax)
  405de8:	48 83 c4 20          	add    $0x20,%rsp
  405dec:	5d                   	pop    %rbp
  405ded:	c3                   	ret    
  405dee:	66 90                	xchg   %ax,%ax

0000000000405df0 <heredoc_expand_var>:
  405df0:	55                   	push   %rbp
  405df1:	48 89 e5             	mov    %rsp,%rbp
  405df4:	48 83 ec 20          	sub    $0x20,%rsp
  405df8:	48 89 7d f8          	mov    %rdi,-0x8(%rbp)
  405dfc:	48 89 75 f0          	mov    %rsi,-0x10(%rbp)
  405e00:	48 8b 45 f8          	mov    -0x8(%rbp),%rax
  405e04:	c7 40 5c 00 00 00 00 	movl   $0x0,0x5c(%rax)
  405e0b:	48 8b 45 f8          	mov    -0x8(%rbp),%rax
  405e0f:	c7 40 60 00 00 00 00 	movl   $0x0,0x60(%rax)
  405e16:	48 bf d6 c1 40 00 00 	movabs $0x40c1d6,%rdi
  405e1d:	00 00 00 
  405e20:	e8 1b 4e 00 00       	call   40ac40 <ft_strdup>
  405e25:	48 89 45 e8          	mov    %rax,-0x18(%rbp)
  405e29:	48 83 7d e8 00       	cmpq   $0x0,-0x18(%rbp)
  405e2e:	0f 85 1c 00 00 00    	jne    405e50 <heredoc_expand_var+0x60>
  405e34:	48 8b 7d f8          	mov    -0x8(%rbp),%rdi
  405e38:	48 be 05 c5 40 00 00 	movabs $0x40c505,%rsi
  405e3f:	00 00 00 
  405e42:	31 c0                	xor    %eax,%eax
  405e44:	89 c2                	mov    %eax,%edx
  405e46:	b9 ff 00 00 00       	mov    $0xff,%ecx
  405e4b:	e8 b0 1c 00 00       	call   407b00 <snuff_it>
  405e50:	e9 00 00 00 00       	jmp    405e55 <heredoc_expand_var+0x65>
  405e55:	48 8b 45 f0          	mov    -0x10(%rbp),%rax
  405e59:	80 38 00             	cmpb   $0x0,(%rax)
  405e5c:	0f 84 40 00 00 00    	je     405ea2 <heredoc_expand_var+0xb2>
  405e62:	48 8b 45 f0          	mov    -0x10(%rbp),%rax
  405e66:	0f be 00             	movsbl (%rax),%eax
  405e69:	83 f8 24             	cmp    $0x24,%eax
  405e6c:	0f 85 16 00 00 00    	jne    405e88 <heredoc_expand_var+0x98>
  405e72:	48 8b 7d f8          	mov    -0x8(%rbp),%rdi
  405e76:	48 8d 75 f0          	lea    -0x10(%rbp),%rsi
  405e7a:	48 8d 55 e8          	lea    -0x18(%rbp),%rdx
  405e7e:	e8 2d 00 00 00       	call   405eb0 <expand_name>
  405e83:	e9 15 00 00 00       	jmp    405e9d <heredoc_expand_var+0xad>
  405e88:	48 8b 7d f8          	mov    -0x8(%rbp),%rdi
  405e8c:	48 8b 55 e8          	mov    -0x18(%rbp),%rdx
  405e90:	48 8d 75 f0          	lea    -0x10(%rbp),%rsi
  405e94:	e8 47 01 00 00       	call   405fe0 <add_one_char>
  405e99:	48 89 45 e8          	mov    %rax,-0x18(%rbp)
  405e9d:	e9 b3 ff ff ff       	jmp    405e55 <heredoc_expand_var+0x65>
  405ea2:	48 8b 45 e8          	mov    -0x18(%rbp),%rax
  405ea6:	48 83 c4 20          	add    $0x20,%rsp
  405eaa:	5d                   	pop    %rbp
  405eab:	c3                   	ret    
  405eac:	0f 1f 40 00          	nopl   0x0(%rax)

0000000000405eb0 <expand_name>:
  405eb0:	55                   	push   %rbp
  405eb1:	48 89 e5             	mov    %rsp,%rbp
  405eb4:	48 83 ec 30          	sub    $0x30,%rsp
  405eb8:	48 89 7d f8          	mov    %rdi,-0x8(%rbp)
  405ebc:	48 89 75 f0          	mov    %rsi,-0x10(%rbp)
  405ec0:	48 89 55 e8          	mov    %rdx,-0x18(%rbp)
  405ec4:	48 8b 45 f0          	mov    -0x10(%rbp),%rax
  405ec8:	48 8b 08             	mov    (%rax),%rcx
  405ecb:	48 83 c1 01          	add    $0x1,%rcx
  405ecf:	48 89 08             	mov    %rcx,(%rax)
  405ed2:	48 8b 45 f0          	mov    -0x10(%rbp),%rax
  405ed6:	48 8b 00             	mov    (%rax),%rax
  405ed9:	48 89 45 e0          	mov    %rax,-0x20(%rbp)
  405edd:	48 8b 45 e0          	mov    -0x20(%rbp),%rax
  405ee1:	48 89 45 d8          	mov    %rax,-0x28(%rbp)
  405ee5:	48 8b 45 d8          	mov    -0x28(%rbp),%rax
  405ee9:	0f be 08             	movsbl (%rax),%ecx
  405eec:	31 c0                	xor    %eax,%eax
  405eee:	83 f9 00             	cmp    $0x0,%ecx
  405ef1:	88 45 d7             	mov    %al,-0x29(%rbp)
  405ef4:	0f 84 15 00 00 00    	je     405f0f <expand_name+0x5f>
  405efa:	48 8b 45 d8          	mov    -0x28(%rbp),%rax
  405efe:	0f be 38             	movsbl (%rax),%edi
  405f01:	e8 ca 43 00 00       	call   40a2d0 <ft_isalnum_or_>
  405f06:	83 f8 00             	cmp    $0x0,%eax
  405f09:	0f 95 c0             	setne  %al
  405f0c:	88 45 d7             	mov    %al,-0x29(%rbp)
  405f0f:	8a 45 d7             	mov    -0x29(%rbp),%al
  405f12:	a8 01                	test   $0x1,%al
  405f14:	0f 85 05 00 00 00    	jne    405f1f <expand_name+0x6f>
  405f1a:	e9 8d 00 00 00       	jmp    405fac <expand_name+0xfc>
  405f1f:	48 8b 45 d8          	mov    -0x28(%rbp),%rax
  405f23:	0f be 00             	movsbl (%rax),%eax
  405f26:	83 f8 27             	cmp    $0x27,%eax
  405f29:	0f 85 27 00 00 00    	jne    405f56 <expand_name+0xa6>
  405f2f:	48 8b 45 f8          	mov    -0x8(%rbp),%rax
  405f33:	83 78 60 00          	cmpl   $0x0,0x60(%rax)
  405f37:	0f 85 19 00 00 00    	jne    405f56 <expand_name+0xa6>
  405f3d:	48 8b 45 f8          	mov    -0x8(%rbp),%rax
  405f41:	83 78 5c 00          	cmpl   $0x0,0x5c(%rax)
  405f45:	0f 95 c0             	setne  %al
  405f48:	34 ff                	xor    $0xff,%al
  405f4a:	24 01                	and    $0x1,%al
  405f4c:	0f b6 c8             	movzbl %al,%ecx
  405f4f:	48 8b 45 f8          	mov    -0x8(%rbp),%rax
  405f53:	89 48 5c             	mov    %ecx,0x5c(%rax)
  405f56:	48 8b 45 d8          	mov    -0x28(%rbp),%rax
  405f5a:	0f be 00             	movsbl (%rax),%eax
  405f5d:	83 f8 22             	cmp    $0x22,%eax
  405f60:	0f 85 27 00 00 00    	jne    405f8d <expand_name+0xdd>
  405f66:	48 8b 45 f8          	mov    -0x8(%rbp),%rax
  405f6a:	83 78 5c 00          	cmpl   $0x0,0x5c(%rax)
  405f6e:	0f 85 19 00 00 00    	jne    405f8d <expand_name+0xdd>
  405f74:	48 8b 45 f8          	mov    -0x8(%rbp),%rax
  405f78:	83 78 60 00          	cmpl   $0x0,0x60(%rax)
  405f7c:	0f 95 c0             	setne  %al
  405f7f:	34 ff                	xor    $0xff,%al
  405f81:	24 01                	and    $0x1,%al
  405f83:	0f b6 c8             	movzbl %al,%ecx
  405f86:	48 8b 45 f8          	mov    -0x8(%rbp),%rax
  405f8a:	89 48 60             	mov    %ecx,0x60(%rax)
  405f8d:	48 8b 45 d8          	mov    -0x28(%rbp),%rax
  405f91:	48 83 c0 01          	add    $0x1,%rax
  405f95:	48 89 45 d8          	mov    %rax,-0x28(%rbp)
  405f99:	48 8b 45 f0          	mov    -0x10(%rbp),%rax
  405f9d:	48 8b 08             	mov    (%rax),%rcx
  405fa0:	48 83 c1 01          	add    $0x1,%rcx
  405fa4:	48 89 08             	mov    %rcx,(%rax)
  405fa7:	e9 39 ff ff ff       	jmp    405ee5 <expand_name+0x35>
  405fac:	48 8b 45 d8          	mov    -0x28(%rbp),%rax
  405fb0:	48 3b 45 e0          	cmp    -0x20(%rbp),%rax
  405fb4:	0f 84 15 00 00 00    	je     405fcf <expand_name+0x11f>
  405fba:	48 8b 7d f8          	mov    -0x8(%rbp),%rdi
  405fbe:	48 8b 75 e8          	mov    -0x18(%rbp),%rsi
  405fc2:	48 8b 55 e0          	mov    -0x20(%rbp),%rdx
  405fc6:	48 8b 4d d8          	mov    -0x28(%rbp),%rcx
  405fca:	e8 11 01 00 00       	call   4060e0 <heredoc_allocate_and_expand>
  405fcf:	48 83 c4 30          	add    $0x30,%rsp
  405fd3:	5d                   	pop    %rbp
  405fd4:	c3                   	ret    
  405fd5:	66 2e 0f 1f 84 00 00 	cs nopw 0x0(%rax,%rax,1)
  405fdc:	00 00 00 
  405fdf:	90                   	nop

0000000000405fe0 <add_one_char>:
  405fe0:	55                   	push   %rbp
  405fe1:	48 89 e5             	mov    %rsp,%rbp
  405fe4:	48 83 ec 20          	sub    $0x20,%rsp
  405fe8:	48 89 7d f8          	mov    %rdi,-0x8(%rbp)
  405fec:	48 89 75 f0          	mov    %rsi,-0x10(%rbp)
  405ff0:	48 89 55 e8          	mov    %rdx,-0x18(%rbp)
  405ff4:	48 c7 45 e0 00 00 00 	movq   $0x0,-0x20(%rbp)
  405ffb:	00 
  405ffc:	48 8b 45 f0          	mov    -0x10(%rbp),%rax
  406000:	48 8b 00             	mov    (%rax),%rax
  406003:	0f be 00             	movsbl (%rax),%eax
  406006:	83 f8 27             	cmp    $0x27,%eax
  406009:	0f 85 27 00 00 00    	jne    406036 <add_one_char+0x56>
  40600f:	48 8b 45 f8          	mov    -0x8(%rbp),%rax
  406013:	83 78 60 00          	cmpl   $0x0,0x60(%rax)
  406017:	0f 85 19 00 00 00    	jne    406036 <add_one_char+0x56>
  40601d:	48 8b 45 f8          	mov    -0x8(%rbp),%rax
  406021:	83 78 5c 00          	cmpl   $0x0,0x5c(%rax)
  406025:	0f 95 c0             	setne  %al
  406028:	34 ff                	xor    $0xff,%al
  40602a:	24 01                	and    $0x1,%al
  40602c:	0f b6 c8             	movzbl %al,%ecx
  40602f:	48 8b 45 f8          	mov    -0x8(%rbp),%rax
  406033:	89 48 5c             	mov    %ecx,0x5c(%rax)
  406036:	48 8b 45 f0          	mov    -0x10(%rbp),%rax
  40603a:	48 8b 00             	mov    (%rax),%rax
  40603d:	0f be 00             	movsbl (%rax),%eax
  406040:	83 f8 22             	cmp    $0x22,%eax
  406043:	0f 85 27 00 00 00    	jne    406070 <add_one_char+0x90>
  406049:	48 8b 45 f8          	mov    -0x8(%rbp),%rax
  40604d:	83 78 5c 00          	cmpl   $0x0,0x5c(%rax)
  406051:	0f 85 19 00 00 00    	jne    406070 <add_one_char+0x90>
  406057:	48 8b 45 f8          	mov    -0x8(%rbp),%rax
  40605b:	83 78 60 00          	cmpl   $0x0,0x60(%rax)
  40605f:	0f 95 c0             	setne  %al
  406062:	34 ff                	xor    $0xff,%al
  406064:	24 01                	and    $0x1,%al
  406066:	0f b6 c8             	movzbl %al,%ecx
  406069:	48 8b 45 f8          	mov    -0x8(%rbp),%rax
  40606d:	89 48 60             	mov    %ecx,0x60(%rax)
  406070:	48 8b 7d e8          	mov    -0x18(%rbp),%rdi
  406074:	48 8b 45 f0          	mov    -0x10(%rbp),%rax
  406078:	48 8b 00             	mov    (%rax),%rax
  40607b:	0f be 30             	movsbl (%rax),%esi
  40607e:	e8 2d 50 00 00       	call   40b0b0 <ft_strjoin_char>
  406083:	48 89 45 e0          	mov    %rax,-0x20(%rbp)
  406087:	48 83 7d e0 00       	cmpq   $0x0,-0x20(%rbp)
  40608c:	0f 85 1c 00 00 00    	jne    4060ae <add_one_char+0xce>
  406092:	48 8b 7d f8          	mov    -0x8(%rbp),%rdi
  406096:	48 be 2b c5 40 00 00 	movabs $0x40c52b,%rsi
  40609d:	00 00 00 
  4060a0:	31 c0                	xor    %eax,%eax
  4060a2:	89 c2                	mov    %eax,%edx
  4060a4:	b9 ff 00 00 00       	mov    $0xff,%ecx
  4060a9:	e8 52 1a 00 00       	call   407b00 <snuff_it>
  4060ae:	48 8b 7d e8          	mov    -0x18(%rbp),%rdi
  4060b2:	e8 79 af ff ff       	call   401030 <free@plt>
  4060b7:	48 c7 45 e8 00 00 00 	movq   $0x0,-0x18(%rbp)
  4060be:	00 
  4060bf:	48 8b 45 e0          	mov    -0x20(%rbp),%rax
  4060c3:	48 89 45 e8          	mov    %rax,-0x18(%rbp)
  4060c7:	48 8b 45 f0          	mov    -0x10(%rbp),%rax
  4060cb:	48 8b 08             	mov    (%rax),%rcx
  4060ce:	48 83 c1 01          	add    $0x1,%rcx
  4060d2:	48 89 08             	mov    %rcx,(%rax)
  4060d5:	48 8b 45 e8          	mov    -0x18(%rbp),%rax
  4060d9:	48 83 c4 20          	add    $0x20,%rsp
  4060dd:	5d                   	pop    %rbp
  4060de:	c3                   	ret    
  4060df:	90                   	nop

00000000004060e0 <heredoc_allocate_and_expand>:
  4060e0:	55                   	push   %rbp
  4060e1:	48 89 e5             	mov    %rsp,%rbp
  4060e4:	48 83 ec 30          	sub    $0x30,%rsp
  4060e8:	48 89 7d f8          	mov    %rdi,-0x8(%rbp)
  4060ec:	48 89 75 f0          	mov    %rsi,-0x10(%rbp)
  4060f0:	48 89 55 e8          	mov    %rdx,-0x18(%rbp)
  4060f4:	48 89 4d e0          	mov    %rcx,-0x20(%rbp)
  4060f8:	48 c7 45 d0 00 00 00 	movq   $0x0,-0x30(%rbp)
  4060ff:	00 
  406100:	48 c7 45 d8 00 00 00 	movq   $0x0,-0x28(%rbp)
  406107:	00 
  406108:	48 8b 7d e0          	mov    -0x20(%rbp),%rdi
  40610c:	48 8b 45 e8          	mov    -0x18(%rbp),%rax
  406110:	48 29 c7             	sub    %rax,%rdi
  406113:	48 83 c7 01          	add    $0x1,%rdi
  406117:	48 c1 e7 00          	shl    $0x0,%rdi
  40611b:	e8 10 b0 ff ff       	call   401130 <malloc@plt>
  406120:	48 89 45 d8          	mov    %rax,-0x28(%rbp)
  406124:	48 83 7d d8 00       	cmpq   $0x0,-0x28(%rbp)
  406129:	0f 85 1c 00 00 00    	jne    40614b <heredoc_allocate_and_expand+0x6b>
  40612f:	48 8b 7d f8          	mov    -0x8(%rbp),%rdi
  406133:	48 be 97 c5 40 00 00 	movabs $0x40c597,%rsi
  40613a:	00 00 00 
  40613d:	31 c0                	xor    %eax,%eax
  40613f:	89 c2                	mov    %eax,%edx
  406141:	b9 ff 00 00 00       	mov    $0xff,%ecx
  406146:	e8 b5 19 00 00       	call   407b00 <snuff_it>
  40614b:	48 8b 7d f8          	mov    -0x8(%rbp),%rdi
  40614f:	48 8b 75 d8          	mov    -0x28(%rbp),%rsi
  406153:	e8 38 37 00 00       	call   409890 <add_string_to_thrash_list>
  406158:	48 8b 7d d8          	mov    -0x28(%rbp),%rdi
  40615c:	48 8b 75 e8          	mov    -0x18(%rbp),%rsi
  406160:	48 8b 45 e0          	mov    -0x20(%rbp),%rax
  406164:	48 8b 4d e8          	mov    -0x18(%rbp),%rcx
  406168:	48 29 c8             	sub    %rcx,%rax
  40616b:	48 83 c0 01          	add    $0x1,%rax
  40616f:	89 c2                	mov    %eax,%edx
  406171:	e8 ca f3 ff ff       	call   405540 <ft_strlcpy>
  406176:	48 8b 7d f8          	mov    -0x8(%rbp),%rdi
  40617a:	48 8b 75 d8          	mov    -0x28(%rbp),%rsi
  40617e:	e8 fd b4 ff ff       	call   401680 <ft_getenv>
  406183:	48 89 45 d0          	mov    %rax,-0x30(%rbp)
  406187:	48 83 7d d0 00       	cmpq   $0x0,-0x30(%rbp)
  40618c:	0f 84 11 00 00 00    	je     4061a3 <heredoc_allocate_and_expand+0xc3>
  406192:	48 8b 7d f8          	mov    -0x8(%rbp),%rdi
  406196:	48 8b 75 f0          	mov    -0x10(%rbp),%rsi
  40619a:	48 8b 55 d0          	mov    -0x30(%rbp),%rdx
  40619e:	e8 0d 00 00 00       	call   4061b0 <heredoc_add_expanded>
  4061a3:	48 83 c4 30          	add    $0x30,%rsp
  4061a7:	5d                   	pop    %rbp
  4061a8:	c3                   	ret    
  4061a9:	0f 1f 80 00 00 00 00 	nopl   0x0(%rax)

00000000004061b0 <heredoc_add_expanded>:
  4061b0:	55                   	push   %rbp
  4061b1:	48 89 e5             	mov    %rsp,%rbp
  4061b4:	48 83 ec 30          	sub    $0x30,%rsp
  4061b8:	48 89 7d f8          	mov    %rdi,-0x8(%rbp)
  4061bc:	48 89 75 f0          	mov    %rsi,-0x10(%rbp)
  4061c0:	48 89 55 e8          	mov    %rdx,-0x18(%rbp)
  4061c4:	48 c7 45 e0 00 00 00 	movq   $0x0,-0x20(%rbp)
  4061cb:	00 
  4061cc:	48 c7 45 d8 00 00 00 	movq   $0x0,-0x28(%rbp)
  4061d3:	00 
  4061d4:	48 8b 7d e8          	mov    -0x18(%rbp),%rdi
  4061d8:	e8 63 4a 00 00       	call   40ac40 <ft_strdup>
  4061dd:	48 89 45 e0          	mov    %rax,-0x20(%rbp)
  4061e1:	48 83 7d e0 00       	cmpq   $0x0,-0x20(%rbp)
  4061e6:	0f 85 1c 00 00 00    	jne    406208 <heredoc_add_expanded+0x58>
  4061ec:	48 8b 7d f8          	mov    -0x8(%rbp),%rdi
  4061f0:	48 be 01 c7 40 00 00 	movabs $0x40c701,%rsi
  4061f7:	00 00 00 
  4061fa:	31 c0                	xor    %eax,%eax
  4061fc:	89 c2                	mov    %eax,%edx
  4061fe:	b9 ff 00 00 00       	mov    $0xff,%ecx
  406203:	e8 f8 18 00 00       	call   407b00 <snuff_it>
  406208:	48 8b 7d f8          	mov    -0x8(%rbp),%rdi
  40620c:	48 8b 75 e0          	mov    -0x20(%rbp),%rsi
  406210:	e8 7b 36 00 00       	call   409890 <add_string_to_thrash_list>
  406215:	48 8b 45 f0          	mov    -0x10(%rbp),%rax
  406219:	48 8b 38             	mov    (%rax),%rdi
  40621c:	48 8b 75 e0          	mov    -0x20(%rbp),%rsi
  406220:	e8 8b 4d 00 00       	call   40afb0 <ft_strjoin>
  406225:	48 89 45 d8          	mov    %rax,-0x28(%rbp)
  406229:	48 8b 45 f0          	mov    -0x10(%rbp),%rax
  40622d:	48 8b 38             	mov    (%rax),%rdi
  406230:	e8 fb ad ff ff       	call   401030 <free@plt>
  406235:	48 83 7d d8 00       	cmpq   $0x0,-0x28(%rbp)
  40623a:	0f 85 1c 00 00 00    	jne    40625c <heredoc_add_expanded+0xac>
  406240:	48 8b 7d f8          	mov    -0x8(%rbp),%rdi
  406244:	48 be 01 c7 40 00 00 	movabs $0x40c701,%rsi
  40624b:	00 00 00 
  40624e:	31 c0                	xor    %eax,%eax
  406250:	89 c2                	mov    %eax,%edx
  406252:	b9 ff 00 00 00       	mov    $0xff,%ecx
  406257:	e8 a4 18 00 00       	call   407b00 <snuff_it>
  40625c:	48 8b 4d d8          	mov    -0x28(%rbp),%rcx
  406260:	48 8b 45 f0          	mov    -0x10(%rbp),%rax
  406264:	48 89 08             	mov    %rcx,(%rax)
  406267:	48 83 c4 30          	add    $0x30,%rsp
  40626b:	5d                   	pop    %rbp
  40626c:	c3                   	ret    
  40626d:	0f 1f 00             	nopl   (%rax)

0000000000406270 <handle_parent>:
  406270:	55                   	push   %rbp
  406271:	48 89 e5             	mov    %rsp,%rbp
  406274:	48 83 ec 20          	sub    $0x20,%rsp
  406278:	48 89 7d f8          	mov    %rdi,-0x8(%rbp)
  40627c:	48 89 75 f0          	mov    %rsi,-0x10(%rbp)
  406280:	bf 18 00 00 00       	mov    $0x18,%edi
  406285:	e8 a6 ae ff ff       	call   401130 <malloc@plt>
  40628a:	48 89 45 e8          	mov    %rax,-0x18(%rbp)
  40628e:	48 83 7d e8 00       	cmpq   $0x0,-0x18(%rbp)
  406293:	0f 85 1c 00 00 00    	jne    4062b5 <handle_parent+0x45>
  406299:	48 8b 7d f8          	mov    -0x8(%rbp),%rdi
  40629d:	48 be 2a c7 40 00 00 	movabs $0x40c72a,%rsi
  4062a4:	00 00 00 
  4062a7:	31 c0                	xor    %eax,%eax
  4062a9:	89 c2                	mov    %eax,%edx
  4062ab:	b9 ff 00 00 00       	mov    $0xff,%ecx
  4062b0:	e8 4b 18 00 00       	call   407b00 <snuff_it>
  4062b5:	48 8b 45 f8          	mov    -0x8(%rbp),%rax
  4062b9:	8b 48 68             	mov    0x68(%rax),%ecx
  4062bc:	48 8b 45 e8          	mov    -0x18(%rbp),%rax
  4062c0:	89 08                	mov    %ecx,(%rax)
  4062c2:	48 8b 45 e8          	mov    -0x18(%rbp),%rax
  4062c6:	c7 40 04 ff ff ff ff 	movl   $0xffffffff,0x4(%rax)
  4062cd:	48 8b 45 e8          	mov    -0x18(%rbp),%rax
  4062d1:	48 c7 40 10 00 00 00 	movq   $0x0,0x10(%rax)
  4062d8:	00 
  4062d9:	48 8b 45 f8          	mov    -0x8(%rbp),%rax
  4062dd:	48 83 78 78 00       	cmpq   $0x0,0x78(%rax)
  4062e2:	0f 85 1d 00 00 00    	jne    406305 <handle_parent+0x95>
  4062e8:	48 8b 4d e8          	mov    -0x18(%rbp),%rcx
  4062ec:	48 8b 45 f8          	mov    -0x8(%rbp),%rax
  4062f0:	48 89 48 70          	mov    %rcx,0x70(%rax)
  4062f4:	48 8b 4d e8          	mov    -0x18(%rbp),%rcx
  4062f8:	48 8b 45 f8          	mov    -0x8(%rbp),%rax
  4062fc:	48 89 48 78          	mov    %rcx,0x78(%rax)
  406300:	e9 24 00 00 00       	jmp    406329 <handle_parent+0xb9>
  406305:	48 8b 4d e8          	mov    -0x18(%rbp),%rcx
  406309:	48 8b 45 f8          	mov    -0x8(%rbp),%rax
  40630d:	48 8b 40 78          	mov    0x78(%rax),%rax
  406311:	48 89 48 10          	mov    %rcx,0x10(%rax)
  406315:	48 8b 45 f8          	mov    -0x8(%rbp),%rax
  406319:	48 8b 40 78          	mov    0x78(%rax),%rax
  40631d:	48 8b 48 10          	mov    0x10(%rax),%rcx
  406321:	48 8b 45 f8          	mov    -0x8(%rbp),%rax
  406325:	48 89 48 78          	mov    %rcx,0x78(%rax)
  406329:	48 83 c4 20          	add    $0x20,%rsp
  40632d:	5d                   	pop    %rbp
  40632e:	c3                   	ret    
  40632f:	90                   	nop

0000000000406330 <execute_lone_or_children>:
  406330:	55                   	push   %rbp
  406331:	48 89 e5             	mov    %rsp,%rbp
  406334:	48 83 ec 20          	sub    $0x20,%rsp
  406338:	48 89 7d f8          	mov    %rdi,-0x8(%rbp)
  40633c:	48 89 75 f0          	mov    %rsi,-0x10(%rbp)
  406340:	48 89 55 e8          	mov    %rdx,-0x18(%rbp)
  406344:	48 8b 45 f8          	mov    -0x8(%rbp),%rax
  406348:	83 78 44 01          	cmpl   $0x1,0x44(%rax)
  40634c:	0f 85 1f 00 00 00    	jne    406371 <execute_lone_or_children+0x41>
  406352:	48 8b 7d f8          	mov    -0x8(%rbp),%rdi
  406356:	48 83 c7 50          	add    $0x50,%rdi
  40635a:	e8 31 14 00 00       	call   407790 <close_fd_set_minus1>
  40635f:	48 8b 7d f8          	mov    -0x8(%rbp),%rdi
  406363:	48 8b 75 f0          	mov    -0x10(%rbp),%rsi
  406367:	e8 34 06 00 00       	call   4069a0 <execute_lone_exec_no_pipe>
  40636c:	e9 14 00 00 00       	jmp    406385 <execute_lone_or_children+0x55>
  406371:	48 8b 7d f8          	mov    -0x8(%rbp),%rdi
  406375:	48 8b 75 f0          	mov    -0x10(%rbp),%rsi
  406379:	e8 12 00 00 00       	call   406390 <make_child>
  40637e:	48 8b 45 e8          	mov    -0x18(%rbp),%rax
  406382:	c6 00 01             	movb   $0x1,(%rax)
  406385:	48 83 c4 20          	add    $0x20,%rsp
  406389:	5d                   	pop    %rbp
  40638a:	c3                   	ret    
  40638b:	0f 1f 44 00 00       	nopl   0x0(%rax,%rax,1)

0000000000406390 <make_child>:
  406390:	55                   	push   %rbp
  406391:	48 89 e5             	mov    %rsp,%rbp
  406394:	48 83 ec 10          	sub    $0x10,%rsp
  406398:	48 89 7d f8          	mov    %rdi,-0x8(%rbp)
  40639c:	48 89 75 f0          	mov    %rsi,-0x10(%rbp)
  4063a0:	48 8b 7d f8          	mov    -0x8(%rbp),%rdi
  4063a4:	48 83 c7 48          	add    $0x48,%rdi
  4063a8:	e8 43 ad ff ff       	call   4010f0 <pipe@plt>
  4063ad:	83 f8 00             	cmp    $0x0,%eax
  4063b0:	0f 8d 22 00 00 00    	jge    4063d8 <make_child+0x48>
  4063b6:	48 8b 7d f8          	mov    -0x8(%rbp),%rdi
  4063ba:	48 8b 45 f0          	mov    -0x10(%rbp),%rax
  4063be:	48 8b 00             	mov    (%rax),%rax
  4063c1:	48 8b 10             	mov    (%rax),%rdx
  4063c4:	48 be 73 c7 40 00 00 	movabs $0x40c773,%rsi
  4063cb:	00 00 00 
  4063ce:	b9 ff 00 00 00       	mov    $0xff,%ecx
  4063d3:	e8 28 17 00 00       	call   407b00 <snuff_it>
  4063d8:	e8 e3 ad ff ff       	call   4011c0 <fork@plt>
  4063dd:	89 c1                	mov    %eax,%ecx
  4063df:	48 8b 45 f8          	mov    -0x8(%rbp),%rax
  4063e3:	89 48 68             	mov    %ecx,0x68(%rax)
  4063e6:	48 8b 45 f8          	mov    -0x8(%rbp),%rax
  4063ea:	83 78 68 00          	cmpl   $0x0,0x68(%rax)
  4063ee:	0f 8d 1c 00 00 00    	jge    406410 <make_child+0x80>
  4063f4:	48 8b 7d f8          	mov    -0x8(%rbp),%rdi
  4063f8:	48 be 8c c7 40 00 00 	movabs $0x40c78c,%rsi
  4063ff:	00 00 00 
  406402:	31 c0                	xor    %eax,%eax
  406404:	89 c2                	mov    %eax,%edx
  406406:	b9 ff 00 00 00       	mov    $0xff,%ecx
  40640b:	e8 f0 16 00 00       	call   407b00 <snuff_it>
  406410:	48 8b 45 f8          	mov    -0x8(%rbp),%rax
  406414:	83 78 68 00          	cmpl   $0x0,0x68(%rax)
  406418:	0f 85 79 00 00 00    	jne    406497 <make_child+0x107>
  40641e:	48 8b 7d f8          	mov    -0x8(%rbp),%rdi
  406422:	be 02 00 00 00       	mov    $0x2,%esi
  406427:	e8 f4 2f 00 00       	call   409420 <set_mode>
  40642c:	48 8b 45 f8          	mov    -0x8(%rbp),%rax
  406430:	83 78 40 00          	cmpl   $0x0,0x40(%rax)
  406434:	0f 85 15 00 00 00    	jne    40644f <make_child+0xbf>
  40643a:	48 8b 7d f8          	mov    -0x8(%rbp),%rdi
  40643e:	48 8b 45 f0          	mov    -0x10(%rbp),%rax
  406442:	48 8b 30             	mov    (%rax),%rsi
  406445:	e8 36 0c 00 00       	call   407080 <exec_first_command>
  40644a:	e9 43 00 00 00       	jmp    406492 <make_child+0x102>
  40644f:	48 8b 45 f8          	mov    -0x8(%rbp),%rax
  406453:	8b 40 40             	mov    0x40(%rax),%eax
  406456:	48 8b 4d f8          	mov    -0x8(%rbp),%rcx
  40645a:	8b 49 44             	mov    0x44(%rcx),%ecx
  40645d:	83 e9 01             	sub    $0x1,%ecx
  406460:	39 c8                	cmp    %ecx,%eax
  406462:	0f 85 15 00 00 00    	jne    40647d <make_child+0xed>
  406468:	48 8b 7d f8          	mov    -0x8(%rbp),%rdi
  40646c:	48 8b 45 f0          	mov    -0x10(%rbp),%rax
  406470:	48 8b 30             	mov    (%rax),%rsi
  406473:	e8 b8 0a 00 00       	call   406f30 <exec_last_command>
  406478:	e9 10 00 00 00       	jmp    40648d <make_child+0xfd>
  40647d:	48 8b 7d f8          	mov    -0x8(%rbp),%rdi
  406481:	48 8b 45 f0          	mov    -0x10(%rbp),%rax
  406485:	48 8b 30             	mov    (%rax),%rsi
  406488:	e8 33 0b 00 00       	call   406fc0 <exec_mid_command>
  40648d:	e9 00 00 00 00       	jmp    406492 <make_child+0x102>
  406492:	e9 0d 00 00 00       	jmp    4064a4 <make_child+0x114>
  406497:	48 8b 7d f8          	mov    -0x8(%rbp),%rdi
  40649b:	48 8b 75 f0          	mov    -0x10(%rbp),%rsi
  40649f:	e8 cc fd ff ff       	call   406270 <handle_parent>
  4064a4:	48 8b 7d f8          	mov    -0x8(%rbp),%rdi
  4064a8:	48 83 c7 50          	add    $0x50,%rdi
  4064ac:	e8 df 12 00 00       	call   407790 <close_fd_set_minus1>
  4064b1:	48 8b 45 f8          	mov    -0x8(%rbp),%rax
  4064b5:	8b 78 48             	mov    0x48(%rax),%edi
  4064b8:	e8 e3 ab ff ff       	call   4010a0 <dup@plt>
  4064bd:	89 c1                	mov    %eax,%ecx
  4064bf:	48 8b 45 f8          	mov    -0x8(%rbp),%rax
  4064c3:	89 48 50             	mov    %ecx,0x50(%rax)
  4064c6:	48 8b 45 f8          	mov    -0x8(%rbp),%rax
  4064ca:	83 78 50 00          	cmpl   $0x0,0x50(%rax)
  4064ce:	0f 8d 22 00 00 00    	jge    4064f6 <make_child+0x166>
  4064d4:	48 8b 7d f8          	mov    -0x8(%rbp),%rdi
  4064d8:	48 8b 45 f0          	mov    -0x10(%rbp),%rax
  4064dc:	48 8b 00             	mov    (%rax),%rax
  4064df:	48 8b 10             	mov    (%rax),%rdx
  4064e2:	48 be 9b c7 40 00 00 	movabs $0x40c79b,%rsi
  4064e9:	00 00 00 
  4064ec:	b9 ff 00 00 00       	mov    $0xff,%ecx
  4064f1:	e8 0a 16 00 00       	call   407b00 <snuff_it>
  4064f6:	48 8b 7d f8          	mov    -0x8(%rbp),%rdi
  4064fa:	48 83 c7 48          	add    $0x48,%rdi
  4064fe:	e8 8d 12 00 00       	call   407790 <close_fd_set_minus1>
  406503:	48 8b 7d f8          	mov    -0x8(%rbp),%rdi
  406507:	48 83 c7 48          	add    $0x48,%rdi
  40650b:	48 83 c7 04          	add    $0x4,%rdi
  40650f:	e8 7c 12 00 00       	call   407790 <close_fd_set_minus1>
  406514:	48 83 c4 10          	add    $0x10,%rsp
  406518:	5d                   	pop    %rbp
  406519:	c3                   	ret    
  40651a:	66 0f 1f 44 00 00    	nopw   0x0(%rax,%rax,1)

0000000000406520 <execute_execs>:
  406520:	55                   	push   %rbp
  406521:	48 89 e5             	mov    %rsp,%rbp
  406524:	48 83 ec 20          	sub    $0x20,%rsp
  406528:	48 89 7d f8          	mov    %rdi,-0x8(%rbp)
  40652c:	c6 45 ef 00          	movb   $0x0,-0x11(%rbp)
  406530:	48 8b 45 f8          	mov    -0x8(%rbp),%rax
  406534:	83 78 44 00          	cmpl   $0x0,0x44(%rax)
  406538:	0f 85 05 00 00 00    	jne    406543 <execute_execs+0x23>
  40653e:	e9 ac 00 00 00       	jmp    4065ef <execute_execs+0xcf>
  406543:	31 ff                	xor    %edi,%edi
  406545:	e8 56 ab ff ff       	call   4010a0 <dup@plt>
  40654a:	89 c1                	mov    %eax,%ecx
  40654c:	48 8b 45 f8          	mov    -0x8(%rbp),%rax
  406550:	89 48 50             	mov    %ecx,0x50(%rax)
  406553:	48 8b 45 f8          	mov    -0x8(%rbp),%rax
  406557:	83 78 50 00          	cmpl   $0x0,0x50(%rax)
  40655b:	0f 8d 1c 00 00 00    	jge    40657d <execute_execs+0x5d>
  406561:	48 8b 7d f8          	mov    -0x8(%rbp),%rdi
  406565:	48 be 53 c7 40 00 00 	movabs $0x40c753,%rsi
  40656c:	00 00 00 
  40656f:	31 c0                	xor    %eax,%eax
  406571:	89 c2                	mov    %eax,%edx
  406573:	b9 ff 00 00 00       	mov    $0xff,%ecx
  406578:	e8 83 15 00 00       	call   407b00 <snuff_it>
  40657d:	48 8b 45 f8          	mov    -0x8(%rbp),%rax
  406581:	48 8b 00             	mov    (%rax),%rax
  406584:	48 89 45 f0          	mov    %rax,-0x10(%rbp)
  406588:	48 83 7d f0 00       	cmpq   $0x0,-0x10(%rbp)
  40658d:	0f 84 3c 00 00 00    	je     4065cf <execute_execs+0xaf>
  406593:	48 8b 45 f8          	mov    -0x8(%rbp),%rax
  406597:	8b 48 40             	mov    0x40(%rax),%ecx
  40659a:	83 c1 01             	add    $0x1,%ecx
  40659d:	89 48 40             	mov    %ecx,0x40(%rax)
  4065a0:	48 8b 7d f8          	mov    -0x8(%rbp),%rdi
  4065a4:	48 8d 75 f0          	lea    -0x10(%rbp),%rsi
  4065a8:	e8 93 03 00 00       	call   406940 <process_heredocs>
  4065ad:	48 8b 7d f8          	mov    -0x8(%rbp),%rdi
  4065b1:	48 8d 75 f0          	lea    -0x10(%rbp),%rsi
  4065b5:	48 8d 55 ef          	lea    -0x11(%rbp),%rdx
  4065b9:	e8 72 fd ff ff       	call   406330 <execute_lone_or_children>
  4065be:	48 8b 45 f0          	mov    -0x10(%rbp),%rax
  4065c2:	48 8b 40 40          	mov    0x40(%rax),%rax
  4065c6:	48 89 45 f0          	mov    %rax,-0x10(%rbp)
  4065ca:	e9 b9 ff ff ff       	jmp    406588 <execute_execs+0x68>
  4065cf:	48 8b 7d f8          	mov    -0x8(%rbp),%rdi
  4065d3:	48 83 c7 50          	add    $0x50,%rdi
  4065d7:	e8 b4 11 00 00       	call   407790 <close_fd_set_minus1>
  4065dc:	f6 45 ef 01          	testb  $0x1,-0x11(%rbp)
  4065e0:	0f 84 09 00 00 00    	je     4065ef <execute_execs+0xcf>
  4065e6:	48 8b 7d f8          	mov    -0x8(%rbp),%rdi
  4065ea:	e8 c1 b2 ff ff       	call   4018b0 <wait_for_children>
  4065ef:	48 83 c4 20          	add    $0x20,%rsp
  4065f3:	5d                   	pop    %rbp
  4065f4:	c3                   	ret    
  4065f5:	66 2e 0f 1f 84 00 00 	cs nopw 0x0(%rax,%rax,1)
  4065fc:	00 00 00 
  4065ff:	90                   	nop

0000000000406600 <process_out_files>:
  406600:	55                   	push   %rbp
  406601:	48 89 e5             	mov    %rsp,%rbp
  406604:	48 83 ec 20          	sub    $0x20,%rsp
  406608:	48 89 7d f0          	mov    %rdi,-0x10(%rbp)
  40660c:	48 89 75 e8          	mov    %rsi,-0x18(%rbp)
  406610:	48 8b 45 e8          	mov    -0x18(%rbp),%rax
  406614:	48 8b 00             	mov    (%rax),%rax
  406617:	48 8b 40 28          	mov    0x28(%rax),%rax
  40661b:	48 89 45 e0          	mov    %rax,-0x20(%rbp)
  40661f:	48 83 7d e0 00       	cmpq   $0x0,-0x20(%rbp)
  406624:	0f 84 1b 01 00 00    	je     406745 <process_out_files+0x145>
  40662a:	48 8b 45 e0          	mov    -0x20(%rbp),%rax
  40662e:	83 38 07             	cmpl   $0x7,(%rax)
  406631:	0f 85 27 00 00 00    	jne    40665e <process_out_files+0x5e>
  406637:	48 8b 45 e0          	mov    -0x20(%rbp),%rax
  40663b:	48 8b 78 08          	mov    0x8(%rax),%rdi
  40663f:	be 41 02 00 00       	mov    $0x241,%esi
  406644:	ba a4 01 00 00       	mov    $0x1a4,%edx
  406649:	b0 00                	mov    $0x0,%al
  40664b:	e8 20 ab ff ff       	call   401170 <open@plt>
  406650:	89 c1                	mov    %eax,%ecx
  406652:	48 8b 45 e0          	mov    -0x20(%rbp),%rax
  406656:	89 48 18             	mov    %ecx,0x18(%rax)
  406659:	e9 34 00 00 00       	jmp    406692 <process_out_files+0x92>
  40665e:	48 8b 45 e0          	mov    -0x20(%rbp),%rax
  406662:	83 38 08             	cmpl   $0x8,(%rax)
  406665:	0f 85 22 00 00 00    	jne    40668d <process_out_files+0x8d>
  40666b:	48 8b 45 e0          	mov    -0x20(%rbp),%rax
  40666f:	48 8b 78 08          	mov    0x8(%rax),%rdi
  406673:	be 41 04 00 00       	mov    $0x441,%esi
  406678:	ba a4 01 00 00       	mov    $0x1a4,%edx
  40667d:	b0 00                	mov    $0x0,%al
  40667f:	e8 ec aa ff ff       	call   401170 <open@plt>
  406684:	89 c1                	mov    %eax,%ecx
  406686:	48 8b 45 e0          	mov    -0x20(%rbp),%rax
  40668a:	89 48 18             	mov    %ecx,0x18(%rax)
  40668d:	e9 00 00 00 00       	jmp    406692 <process_out_files+0x92>
  406692:	48 8b 45 e0          	mov    -0x20(%rbp),%rax
  406696:	83 78 18 00          	cmpl   $0x0,0x18(%rax)
  40669a:	0f 8d 2c 00 00 00    	jge    4066cc <process_out_files+0xcc>
  4066a0:	48 8b 7d f0          	mov    -0x10(%rbp),%rdi
  4066a4:	48 8b 45 e0          	mov    -0x20(%rbp),%rax
  4066a8:	48 8b 50 08          	mov    0x8(%rax),%rdx
  4066ac:	48 be b6 c7 40 00 00 	movabs $0x40c7b6,%rsi
  4066b3:	00 00 00 
  4066b6:	b9 7e 00 00 00       	mov    $0x7e,%ecx
  4066bb:	e8 f0 ae ff ff       	call   4015b0 <boo>
  4066c0:	c7 45 fc 01 00 00 00 	movl   $0x1,-0x4(%rbp)
  4066c7:	e9 80 00 00 00       	jmp    40674c <process_out_files+0x14c>
  4066cc:	48 8b 45 e0          	mov    -0x20(%rbp),%rax
  4066d0:	48 83 78 28 00       	cmpq   $0x0,0x28(%rax)
  4066d5:	0f 84 12 00 00 00    	je     4066ed <process_out_files+0xed>
  4066db:	48 8b 7d e0          	mov    -0x20(%rbp),%rdi
  4066df:	48 83 c7 18          	add    $0x18,%rdi
  4066e3:	e8 a8 10 00 00       	call   407790 <close_fd_set_minus1>
  4066e8:	e9 47 00 00 00       	jmp    406734 <process_out_files+0x134>
  4066ed:	48 8b 45 e0          	mov    -0x20(%rbp),%rax
  4066f1:	8b 78 18             	mov    0x18(%rax),%edi
  4066f4:	be 01 00 00 00       	mov    $0x1,%esi
  4066f9:	e8 82 a9 ff ff       	call   401080 <dup2@plt>
  4066fe:	83 f8 00             	cmp    $0x0,%eax
  406701:	0f 8d 20 00 00 00    	jge    406727 <process_out_files+0x127>
  406707:	48 8b 7d f0          	mov    -0x10(%rbp),%rdi
  40670b:	48 8b 45 e0          	mov    -0x20(%rbp),%rax
  40670f:	48 8b 50 08          	mov    0x8(%rax),%rdx
  406713:	48 be d0 c7 40 00 00 	movabs $0x40c7d0,%rsi
  40671a:	00 00 00 
  40671d:	b9 ff 00 00 00       	mov    $0xff,%ecx
  406722:	e8 d9 13 00 00       	call   407b00 <snuff_it>
  406727:	48 8b 7d e0          	mov    -0x20(%rbp),%rdi
  40672b:	48 83 c7 18          	add    $0x18,%rdi
  40672f:	e8 5c 10 00 00       	call   407790 <close_fd_set_minus1>
  406734:	48 8b 45 e0          	mov    -0x20(%rbp),%rax
  406738:	48 8b 40 28          	mov    0x28(%rax),%rax
  40673c:	48 89 45 e0          	mov    %rax,-0x20(%rbp)
  406740:	e9 da fe ff ff       	jmp    40661f <process_out_files+0x1f>
  406745:	c7 45 fc 00 00 00 00 	movl   $0x0,-0x4(%rbp)
  40674c:	8b 45 fc             	mov    -0x4(%rbp),%eax
  40674f:	48 83 c4 20          	add    $0x20,%rsp
  406753:	5d                   	pop    %rbp
  406754:	c3                   	ret    
  406755:	66 2e 0f 1f 84 00 00 	cs nopw 0x0(%rax,%rax,1)
  40675c:	00 00 00 
  40675f:	90                   	nop

0000000000406760 <process_in_files>:
  406760:	55                   	push   %rbp
  406761:	48 89 e5             	mov    %rsp,%rbp
  406764:	48 83 ec 20          	sub    $0x20,%rsp
  406768:	48 89 7d f0          	mov    %rdi,-0x10(%rbp)
  40676c:	48 89 75 e8          	mov    %rsi,-0x18(%rbp)
  406770:	48 8b 45 e8          	mov    -0x18(%rbp),%rax
  406774:	48 8b 00             	mov    (%rax),%rax
  406777:	48 8b 40 20          	mov    0x20(%rax),%rax
  40677b:	48 89 45 e0          	mov    %rax,-0x20(%rbp)
  40677f:	48 83 7d e0 00       	cmpq   $0x0,-0x20(%rbp)
  406784:	0f 84 b7 00 00 00    	je     406841 <process_in_files+0xe1>
  40678a:	48 8b 45 e0          	mov    -0x20(%rbp),%rax
  40678e:	48 8b 78 08          	mov    0x8(%rax),%rdi
  406792:	31 f6                	xor    %esi,%esi
  406794:	b0 00                	mov    $0x0,%al
  406796:	e8 d5 a9 ff ff       	call   401170 <open@plt>
  40679b:	89 c1                	mov    %eax,%ecx
  40679d:	48 8b 45 e0          	mov    -0x20(%rbp),%rax
  4067a1:	89 48 18             	mov    %ecx,0x18(%rax)
  4067a4:	48 8b 45 e0          	mov    -0x20(%rbp),%rax
  4067a8:	83 78 18 00          	cmpl   $0x0,0x18(%rax)
  4067ac:	0f 8d 19 00 00 00    	jge    4067cb <process_in_files+0x6b>
  4067b2:	48 8b 7d f0          	mov    -0x10(%rbp),%rdi
  4067b6:	48 8b 75 e0          	mov    -0x20(%rbp),%rsi
  4067ba:	e8 a1 00 00 00       	call   406860 <handle_bad_infile>
  4067bf:	c7 45 fc 01 00 00 00 	movl   $0x1,-0x4(%rbp)
  4067c6:	e9 7d 00 00 00       	jmp    406848 <process_in_files+0xe8>
  4067cb:	48 8b 45 e0          	mov    -0x20(%rbp),%rax
  4067cf:	48 83 78 28 00       	cmpq   $0x0,0x28(%rax)
  4067d4:	0f 84 12 00 00 00    	je     4067ec <process_in_files+0x8c>
  4067da:	48 8b 7d e0          	mov    -0x20(%rbp),%rdi
  4067de:	48 83 c7 18          	add    $0x18,%rdi
  4067e2:	e8 a9 0f 00 00       	call   407790 <close_fd_set_minus1>
  4067e7:	e9 44 00 00 00       	jmp    406830 <process_in_files+0xd0>
  4067ec:	48 8b 45 e0          	mov    -0x20(%rbp),%rax
  4067f0:	8b 78 18             	mov    0x18(%rax),%edi
  4067f3:	31 f6                	xor    %esi,%esi
  4067f5:	e8 86 a8 ff ff       	call   401080 <dup2@plt>
  4067fa:	83 f8 00             	cmp    $0x0,%eax
  4067fd:	0f 8d 20 00 00 00    	jge    406823 <process_in_files+0xc3>
  406803:	48 8b 7d f0          	mov    -0x10(%rbp),%rdi
  406807:	48 8b 45 e0          	mov    -0x20(%rbp),%rax
  40680b:	48 8b 50 08          	mov    0x8(%rax),%rdx
  40680f:	48 be f1 c7 40 00 00 	movabs $0x40c7f1,%rsi
  406816:	00 00 00 
  406819:	b9 ff 00 00 00       	mov    $0xff,%ecx
  40681e:	e8 dd 12 00 00       	call   407b00 <snuff_it>
  406823:	48 8b 7d e0          	mov    -0x20(%rbp),%rdi
  406827:	48 83 c7 18          	add    $0x18,%rdi
  40682b:	e8 60 0f 00 00       	call   407790 <close_fd_set_minus1>
  406830:	48 8b 45 e0          	mov    -0x20(%rbp),%rax
  406834:	48 8b 40 28          	mov    0x28(%rax),%rax
  406838:	48 89 45 e0          	mov    %rax,-0x20(%rbp)
  40683c:	e9 3e ff ff ff       	jmp    40677f <process_in_files+0x1f>
  406841:	c7 45 fc 00 00 00 00 	movl   $0x0,-0x4(%rbp)
  406848:	8b 45 fc             	mov    -0x4(%rbp),%eax
  40684b:	48 83 c4 20          	add    $0x20,%rsp
  40684f:	5d                   	pop    %rbp
  406850:	c3                   	ret    
  406851:	66 2e 0f 1f 84 00 00 	cs nopw 0x0(%rax,%rax,1)
  406858:	00 00 00 
  40685b:	0f 1f 44 00 00       	nopl   0x0(%rax,%rax,1)

0000000000406860 <handle_bad_infile>:
  406860:	55                   	push   %rbp
  406861:	48 89 e5             	mov    %rsp,%rbp
  406864:	48 83 ec 10          	sub    $0x10,%rsp
  406868:	48 89 7d f8          	mov    %rdi,-0x8(%rbp)
  40686c:	48 89 75 f0          	mov    %rsi,-0x10(%rbp)
  406870:	48 8b 45 f0          	mov    -0x10(%rbp),%rax
  406874:	83 38 09             	cmpl   $0x9,(%rax)
  406877:	0f 85 0d 00 00 00    	jne    40688a <handle_bad_infile+0x2a>
  40687d:	48 8b 45 f0          	mov    -0x10(%rbp),%rax
  406881:	48 8b 78 08          	mov    0x8(%rax),%rdi
  406885:	e8 b6 a7 ff ff       	call   401040 <unlink@plt>
  40688a:	48 8b 45 f0          	mov    -0x10(%rbp),%rax
  40688e:	48 8b 78 08          	mov    0x8(%rax),%rdi
  406892:	31 f6                	xor    %esi,%esi
  406894:	e8 e7 a8 ff ff       	call   401180 <access@plt>
  406899:	83 f8 00             	cmp    $0x0,%eax
  40689c:	0f 84 25 00 00 00    	je     4068c7 <handle_bad_infile+0x67>
  4068a2:	48 8b 7d f8          	mov    -0x8(%rbp),%rdi
  4068a6:	48 8b 45 f0          	mov    -0x10(%rbp),%rax
  4068aa:	48 8b 50 08          	mov    0x8(%rax),%rdx
  4068ae:	48 be 11 c8 40 00 00 	movabs $0x40c811,%rsi
  4068b5:	00 00 00 
  4068b8:	b9 01 00 00 00       	mov    $0x1,%ecx
  4068bd:	e8 ee ac ff ff       	call   4015b0 <boo>
  4068c2:	e9 65 00 00 00       	jmp    40692c <handle_bad_infile+0xcc>
  4068c7:	48 8b 45 f0          	mov    -0x10(%rbp),%rax
  4068cb:	48 8b 78 08          	mov    0x8(%rax),%rdi
  4068cf:	be 05 00 00 00       	mov    $0x5,%esi
  4068d4:	e8 a7 a8 ff ff       	call   401180 <access@plt>
  4068d9:	83 f8 00             	cmp    $0x0,%eax
  4068dc:	0f 84 25 00 00 00    	je     406907 <handle_bad_infile+0xa7>
  4068e2:	48 8b 7d f8          	mov    -0x8(%rbp),%rdi
  4068e6:	48 8b 45 f0          	mov    -0x10(%rbp),%rax
  4068ea:	48 8b 50 08          	mov    0x8(%rax),%rdx
  4068ee:	48 be 2d c8 40 00 00 	movabs $0x40c82d,%rsi
  4068f5:	00 00 00 
  4068f8:	b9 7e 00 00 00       	mov    $0x7e,%ecx
  4068fd:	e8 ae ac ff ff       	call   4015b0 <boo>
  406902:	e9 20 00 00 00       	jmp    406927 <handle_bad_infile+0xc7>
  406907:	48 8b 7d f8          	mov    -0x8(%rbp),%rdi
  40690b:	48 8b 45 f0          	mov    -0x10(%rbp),%rax
  40690f:	48 8b 50 08          	mov    0x8(%rax),%rdx
  406913:	48 be 41 c8 40 00 00 	movabs $0x40c841,%rsi
  40691a:	00 00 00 
  40691d:	b9 7e 00 00 00       	mov    $0x7e,%ecx
  406922:	e8 89 ac ff ff       	call   4015b0 <boo>
  406927:	e9 00 00 00 00       	jmp    40692c <handle_bad_infile+0xcc>
  40692c:	48 83 c4 10          	add    $0x10,%rsp
  406930:	5d                   	pop    %rbp
  406931:	c3                   	ret    
  406932:	66 2e 0f 1f 84 00 00 	cs nopw 0x0(%rax,%rax,1)
  406939:	00 00 00 
  40693c:	0f 1f 40 00          	nopl   0x0(%rax)

0000000000406940 <process_heredocs>:
  406940:	55                   	push   %rbp
  406941:	48 89 e5             	mov    %rsp,%rbp
  406944:	48 83 ec 20          	sub    $0x20,%rsp
  406948:	48 89 7d f8          	mov    %rdi,-0x8(%rbp)
  40694c:	48 89 75 f0          	mov    %rsi,-0x10(%rbp)
  406950:	48 8b 45 f0          	mov    -0x10(%rbp),%rax
  406954:	48 8b 00             	mov    (%rax),%rax
  406957:	48 8b 40 20          	mov    0x20(%rax),%rax
  40695b:	48 89 45 e8          	mov    %rax,-0x18(%rbp)
  40695f:	48 83 7d e8 00       	cmpq   $0x0,-0x18(%rbp)
  406964:	0f 84 2b 00 00 00    	je     406995 <process_heredocs+0x55>
  40696a:	48 8b 45 e8          	mov    -0x18(%rbp),%rax
  40696e:	83 38 09             	cmpl   $0x9,(%rax)
  406971:	0f 85 0d 00 00 00    	jne    406984 <process_heredocs+0x44>
  406977:	48 8b 7d f8          	mov    -0x8(%rbp),%rdi
  40697b:	48 8d 75 e8          	lea    -0x18(%rbp),%rsi
  40697f:	e8 0c f0 ff ff       	call   405990 <get_heredoc>
  406984:	48 8b 45 e8          	mov    -0x18(%rbp),%rax
  406988:	48 8b 40 28          	mov    0x28(%rax),%rax
  40698c:	48 89 45 e8          	mov    %rax,-0x18(%rbp)
  406990:	e9 ca ff ff ff       	jmp    40695f <process_heredocs+0x1f>
  406995:	48 83 c4 20          	add    $0x20,%rsp
  406999:	5d                   	pop    %rbp
  40699a:	c3                   	ret    
  40699b:	0f 1f 44 00 00       	nopl   0x0(%rax,%rax,1)

00000000004069a0 <execute_lone_exec_no_pipe>:
  4069a0:	55                   	push   %rbp
  4069a1:	48 89 e5             	mov    %rsp,%rbp
  4069a4:	48 83 ec 10          	sub    $0x10,%rsp
  4069a8:	48 89 7d f8          	mov    %rdi,-0x8(%rbp)
  4069ac:	48 89 75 f0          	mov    %rsi,-0x10(%rbp)
  4069b0:	31 ff                	xor    %edi,%edi
  4069b2:	e8 e9 a6 ff ff       	call   4010a0 <dup@plt>
  4069b7:	89 c1                	mov    %eax,%ecx
  4069b9:	48 8b 45 f8          	mov    -0x8(%rbp),%rax
  4069bd:	89 48 54             	mov    %ecx,0x54(%rax)
  4069c0:	48 8b 45 f8          	mov    -0x8(%rbp),%rax
  4069c4:	83 78 54 00          	cmpl   $0x0,0x54(%rax)
  4069c8:	0f 8d 1c 00 00 00    	jge    4069ea <execute_lone_exec_no_pipe+0x4a>
  4069ce:	48 8b 7d f8          	mov    -0x8(%rbp),%rdi
  4069d2:	48 be 53 c7 40 00 00 	movabs $0x40c753,%rsi
  4069d9:	00 00 00 
  4069dc:	31 c0                	xor    %eax,%eax
  4069de:	89 c2                	mov    %eax,%edx
  4069e0:	b9 ff 00 00 00       	mov    $0xff,%ecx
  4069e5:	e8 16 11 00 00       	call   407b00 <snuff_it>
  4069ea:	bf 01 00 00 00       	mov    $0x1,%edi
  4069ef:	e8 ac a6 ff ff       	call   4010a0 <dup@plt>
  4069f4:	89 c1                	mov    %eax,%ecx
  4069f6:	48 8b 45 f8          	mov    -0x8(%rbp),%rax
  4069fa:	89 48 58             	mov    %ecx,0x58(%rax)
  4069fd:	48 8b 45 f8          	mov    -0x8(%rbp),%rax
  406a01:	83 78 58 00          	cmpl   $0x0,0x58(%rax)
  406a05:	0f 8d 29 00 00 00    	jge    406a34 <execute_lone_exec_no_pipe+0x94>
  406a0b:	48 8b 7d f8          	mov    -0x8(%rbp),%rdi
  406a0f:	48 83 c7 54          	add    $0x54,%rdi
  406a13:	e8 78 0d 00 00       	call   407790 <close_fd_set_minus1>
  406a18:	48 8b 7d f8          	mov    -0x8(%rbp),%rdi
  406a1c:	48 be 52 c8 40 00 00 	movabs $0x40c852,%rsi
  406a23:	00 00 00 
  406a26:	31 c0                	xor    %eax,%eax
  406a28:	89 c2                	mov    %eax,%edx
  406a2a:	b9 ff 00 00 00       	mov    $0xff,%ecx
  406a2f:	e8 cc 10 00 00       	call   407b00 <snuff_it>
  406a34:	48 8b 7d f8          	mov    -0x8(%rbp),%rdi
  406a38:	48 8b 75 f0          	mov    -0x10(%rbp),%rsi
  406a3c:	e8 1f fd ff ff       	call   406760 <process_in_files>
  406a41:	83 f8 00             	cmp    $0x0,%eax
  406a44:	0f 8f 16 00 00 00    	jg     406a60 <execute_lone_exec_no_pipe+0xc0>
  406a4a:	48 8b 7d f8          	mov    -0x8(%rbp),%rdi
  406a4e:	48 8b 75 f0          	mov    -0x10(%rbp),%rsi
  406a52:	e8 a9 fb ff ff       	call   406600 <process_out_files>
  406a57:	83 f8 00             	cmp    $0x0,%eax
  406a5a:	0f 8e 05 00 00 00    	jle    406a65 <execute_lone_exec_no_pipe+0xc5>
  406a60:	e9 d2 00 00 00       	jmp    406b37 <execute_lone_exec_no_pipe+0x197>
  406a65:	48 8b 45 f0          	mov    -0x10(%rbp),%rax
  406a69:	48 8b 00             	mov    (%rax),%rax
  406a6c:	48 83 78 10 00       	cmpq   $0x0,0x10(%rax)
  406a71:	0f 84 2e 00 00 00    	je     406aa5 <execute_lone_exec_no_pipe+0x105>
  406a77:	48 8b 45 f0          	mov    -0x10(%rbp),%rax
  406a7b:	48 8b 00             	mov    (%rax),%rax
  406a7e:	48 8b 40 10          	mov    0x10(%rax),%rax
  406a82:	48 8b 38             	mov    (%rax),%rdi
  406a85:	e8 66 11 00 00       	call   407bf0 <is_builtin>
  406a8a:	83 f8 00             	cmp    $0x0,%eax
  406a8d:	0f 84 12 00 00 00    	je     406aa5 <execute_lone_exec_no_pipe+0x105>
  406a93:	48 8b 7d f8          	mov    -0x8(%rbp),%rdi
  406a97:	48 8b 75 f0          	mov    -0x10(%rbp),%rsi
  406a9b:	e8 a0 00 00 00       	call   406b40 <execute_lone_builtin>
  406aa0:	e9 2d 00 00 00       	jmp    406ad2 <execute_lone_exec_no_pipe+0x132>
  406aa5:	48 8b 45 f0          	mov    -0x10(%rbp),%rax
  406aa9:	48 8b 00             	mov    (%rax),%rax
  406aac:	48 83 78 10 00       	cmpq   $0x0,0x10(%rax)
  406ab1:	0f 84 16 00 00 00    	je     406acd <execute_lone_exec_no_pipe+0x12d>
  406ab7:	48 8b 7d f8          	mov    -0x8(%rbp),%rdi
  406abb:	48 8b 75 f0          	mov    -0x10(%rbp),%rsi
  406abf:	e8 5c 01 00 00       	call   406c20 <execute_lone_external>
  406ac4:	48 8b 7d f8          	mov    -0x8(%rbp),%rdi
  406ac8:	e8 e3 ad ff ff       	call   4018b0 <wait_for_children>
  406acd:	e9 00 00 00 00       	jmp    406ad2 <execute_lone_exec_no_pipe+0x132>
  406ad2:	48 8b 45 f8          	mov    -0x8(%rbp),%rax
  406ad6:	8b 78 54             	mov    0x54(%rax),%edi
  406ad9:	31 f6                	xor    %esi,%esi
  406adb:	e8 a0 a5 ff ff       	call   401080 <dup2@plt>
  406ae0:	83 f8 00             	cmp    $0x0,%eax
  406ae3:	0f 8d 0d 00 00 00    	jge    406af6 <execute_lone_exec_no_pipe+0x156>
  406ae9:	48 8b 7d f8          	mov    -0x8(%rbp),%rdi
  406aed:	48 8b 75 f0          	mov    -0x10(%rbp),%rsi
  406af1:	e8 7a 02 00 00       	call   406d70 <close_temps_and_snuff_it>
  406af6:	48 8b 45 f8          	mov    -0x8(%rbp),%rax
  406afa:	8b 78 58             	mov    0x58(%rax),%edi
  406afd:	be 01 00 00 00       	mov    $0x1,%esi
  406b02:	e8 79 a5 ff ff       	call   401080 <dup2@plt>
  406b07:	83 f8 00             	cmp    $0x0,%eax
  406b0a:	0f 8d 0d 00 00 00    	jge    406b1d <execute_lone_exec_no_pipe+0x17d>
  406b10:	48 8b 7d f8          	mov    -0x8(%rbp),%rdi
  406b14:	48 8b 75 f0          	mov    -0x10(%rbp),%rsi
  406b18:	e8 53 02 00 00       	call   406d70 <close_temps_and_snuff_it>
  406b1d:	48 8b 7d f8          	mov    -0x8(%rbp),%rdi
  406b21:	48 83 c7 54          	add    $0x54,%rdi
  406b25:	e8 66 0c 00 00       	call   407790 <close_fd_set_minus1>
  406b2a:	48 8b 7d f8          	mov    -0x8(%rbp),%rdi
  406b2e:	48 83 c7 58          	add    $0x58,%rdi
  406b32:	e8 59 0c 00 00       	call   407790 <close_fd_set_minus1>
  406b37:	48 83 c4 10          	add    $0x10,%rsp
  406b3b:	5d                   	pop    %rbp
  406b3c:	c3                   	ret    
  406b3d:	0f 1f 00             	nopl   (%rax)

0000000000406b40 <execute_lone_builtin>:
  406b40:	55                   	push   %rbp
  406b41:	48 89 e5             	mov    %rsp,%rbp
  406b44:	48 83 ec 10          	sub    $0x10,%rsp
  406b48:	48 89 7d f8          	mov    %rdi,-0x8(%rbp)
  406b4c:	48 89 75 f0          	mov    %rsi,-0x10(%rbp)
  406b50:	48 8b 45 f0          	mov    -0x10(%rbp),%rax
  406b54:	48 8b 00             	mov    (%rax),%rax
  406b57:	48 83 78 10 00       	cmpq   $0x0,0x10(%rax)
  406b5c:	0f 84 6c 00 00 00    	je     406bce <execute_lone_builtin+0x8e>
  406b62:	48 8b 45 f0          	mov    -0x10(%rbp),%rax
  406b66:	48 8b 00             	mov    (%rax),%rax
  406b69:	48 8b 40 10          	mov    0x10(%rax),%rax
  406b6d:	48 8b 38             	mov    (%rax),%rdi
  406b70:	48 be 73 c8 40 00 00 	movabs $0x40c873,%rsi
  406b77:	00 00 00 
  406b7a:	e8 c1 3b 00 00       	call   40a740 <ft_strcmp>
  406b7f:	83 f8 00             	cmp    $0x0,%eax
  406b82:	0f 85 46 00 00 00    	jne    406bce <execute_lone_builtin+0x8e>
  406b88:	48 8b 45 f0          	mov    -0x10(%rbp),%rax
  406b8c:	48 8b 00             	mov    (%rax),%rax
  406b8f:	48 8b 40 10          	mov    0x10(%rax),%rax
  406b93:	48 83 78 08 00       	cmpq   $0x0,0x8(%rax)
  406b98:	0f 84 16 00 00 00    	je     406bb4 <execute_lone_builtin+0x74>
  406b9e:	48 8b 45 f0          	mov    -0x10(%rbp),%rax
  406ba2:	48 8b 00             	mov    (%rax),%rax
  406ba5:	48 8b 40 10          	mov    0x10(%rax),%rax
  406ba9:	48 83 78 10 00       	cmpq   $0x0,0x10(%rax)
  406bae:	0f 85 1a 00 00 00    	jne    406bce <execute_lone_builtin+0x8e>
  406bb4:	48 8b 7d f8          	mov    -0x8(%rbp),%rdi
  406bb8:	48 83 c7 54          	add    $0x54,%rdi
  406bbc:	e8 cf 0b 00 00       	call   407790 <close_fd_set_minus1>
  406bc1:	48 8b 7d f8          	mov    -0x8(%rbp),%rdi
  406bc5:	48 83 c7 58          	add    $0x58,%rdi
  406bc9:	e8 c2 0b 00 00       	call   407790 <close_fd_set_minus1>
  406bce:	48 8b 7d f8          	mov    -0x8(%rbp),%rdi
  406bd2:	48 8b 75 f0          	mov    -0x10(%rbp),%rsi
  406bd6:	48 8b 45 f0          	mov    -0x10(%rbp),%rax
  406bda:	48 8b 00             	mov    (%rax),%rax
  406bdd:	48 8b 40 10          	mov    0x10(%rax),%rax
  406be1:	48 8b 10             	mov    (%rax),%rdx
  406be4:	e8 f7 10 00 00       	call   407ce0 <execute_builtin>
  406be9:	83 f8 00             	cmp    $0x0,%eax
  406bec:	0f 84 26 00 00 00    	je     406c18 <execute_lone_builtin+0xd8>
  406bf2:	48 8b 7d f8          	mov    -0x8(%rbp),%rdi
  406bf6:	48 8b 45 f0          	mov    -0x10(%rbp),%rax
  406bfa:	48 8b 00             	mov    (%rax),%rax
  406bfd:	48 8b 40 10          	mov    0x10(%rax),%rax
  406c01:	48 8b 10             	mov    (%rax),%rdx
  406c04:	48 be 78 c8 40 00 00 	movabs $0x40c878,%rsi
  406c0b:	00 00 00 
  406c0e:	b9 7f 00 00 00       	mov    $0x7f,%ecx
  406c13:	e8 e8 0e 00 00       	call   407b00 <snuff_it>
  406c18:	48 83 c4 10          	add    $0x10,%rsp
  406c1c:	5d                   	pop    %rbp
  406c1d:	c3                   	ret    
  406c1e:	66 90                	xchg   %ax,%ax

0000000000406c20 <execute_lone_external>:
  406c20:	55                   	push   %rbp
  406c21:	48 89 e5             	mov    %rsp,%rbp
  406c24:	48 83 ec 10          	sub    $0x10,%rsp
  406c28:	48 89 7d f8          	mov    %rdi,-0x8(%rbp)
  406c2c:	48 89 75 f0          	mov    %rsi,-0x10(%rbp)
  406c30:	e8 8b a5 ff ff       	call   4011c0 <fork@plt>
  406c35:	89 c1                	mov    %eax,%ecx
  406c37:	48 8b 45 f8          	mov    -0x8(%rbp),%rax
  406c3b:	89 48 68             	mov    %ecx,0x68(%rax)
  406c3e:	48 8b 45 f8          	mov    -0x8(%rbp),%rax
  406c42:	83 78 68 00          	cmpl   $0x0,0x68(%rax)
  406c46:	0f 8d 1c 00 00 00    	jge    406c68 <execute_lone_external+0x48>
  406c4c:	48 8b 7d f8          	mov    -0x8(%rbp),%rdi
  406c50:	48 be 8c c7 40 00 00 	movabs $0x40c78c,%rsi
  406c57:	00 00 00 
  406c5a:	31 c0                	xor    %eax,%eax
  406c5c:	89 c2                	mov    %eax,%edx
  406c5e:	b9 ff 00 00 00       	mov    $0xff,%ecx
  406c63:	e8 98 0e 00 00       	call   407b00 <snuff_it>
  406c68:	48 8b 45 f8          	mov    -0x8(%rbp),%rax
  406c6c:	83 78 68 00          	cmpl   $0x0,0x68(%rax)
  406c70:	0f 85 e6 00 00 00    	jne    406d5c <execute_lone_external+0x13c>
  406c76:	48 8b 7d f8          	mov    -0x8(%rbp),%rdi
  406c7a:	be 02 00 00 00       	mov    $0x2,%esi
  406c7f:	e8 9c 27 00 00       	call   409420 <set_mode>
  406c84:	48 8b 7d f8          	mov    -0x8(%rbp),%rdi
  406c88:	48 83 c7 54          	add    $0x54,%rdi
  406c8c:	e8 ff 0a 00 00       	call   407790 <close_fd_set_minus1>
  406c91:	48 8b 7d f8          	mov    -0x8(%rbp),%rdi
  406c95:	48 83 c7 58          	add    $0x58,%rdi
  406c99:	e8 f2 0a 00 00       	call   407790 <close_fd_set_minus1>
  406c9e:	48 8b 45 f0          	mov    -0x10(%rbp),%rax
  406ca2:	48 8b 00             	mov    (%rax),%rax
  406ca5:	48 83 78 08 00       	cmpq   $0x0,0x8(%rax)
  406caa:	0f 84 2c 00 00 00    	je     406cdc <execute_lone_external+0xbc>
  406cb0:	48 8b 45 f0          	mov    -0x10(%rbp),%rax
  406cb4:	48 8b 00             	mov    (%rax),%rax
  406cb7:	48 8b 40 10          	mov    0x10(%rax),%rax
  406cbb:	48 83 38 00          	cmpq   $0x0,(%rax)
  406cbf:	0f 84 17 00 00 00    	je     406cdc <execute_lone_external+0xbc>
  406cc5:	48 8b 45 f0          	mov    -0x10(%rbp),%rax
  406cc9:	48 8b 00             	mov    (%rax),%rax
  406ccc:	48 8b 40 10          	mov    0x10(%rax),%rax
  406cd0:	48 8b 00             	mov    (%rax),%rax
  406cd3:	80 38 00             	cmpb   $0x0,(%rax)
  406cd6:	0f 85 26 00 00 00    	jne    406d02 <execute_lone_external+0xe2>
  406cdc:	48 8b 7d f8          	mov    -0x8(%rbp),%rdi
  406ce0:	48 8b 45 f0          	mov    -0x10(%rbp),%rax
  406ce4:	48 8b 00             	mov    (%rax),%rax
  406ce7:	48 8b 40 10          	mov    0x10(%rax),%rax
  406ceb:	48 8b 10             	mov    (%rax),%rdx
  406cee:	48 be 78 c8 40 00 00 	movabs $0x40c878,%rsi
  406cf5:	00 00 00 
  406cf8:	b9 7f 00 00 00       	mov    $0x7f,%ecx
  406cfd:	e8 fe 0d 00 00       	call   407b00 <snuff_it>
  406d02:	48 8b 45 f0          	mov    -0x10(%rbp),%rax
  406d06:	48 8b 00             	mov    (%rax),%rax
  406d09:	48 8b 78 08          	mov    0x8(%rax),%rdi
  406d0d:	48 8b 45 f0          	mov    -0x10(%rbp),%rax
  406d11:	48 8b 00             	mov    (%rax),%rax
  406d14:	48 8b 70 10          	mov    0x10(%rax),%rsi
  406d18:	48 8b 45 f8          	mov    -0x8(%rbp),%rax
  406d1c:	48 8b 90 88 00 00 00 	mov    0x88(%rax),%rdx
  406d23:	e8 e8 a3 ff ff       	call   401110 <execve@plt>
  406d28:	83 f8 ff             	cmp    $0xffffffff,%eax
  406d2b:	0f 85 26 00 00 00    	jne    406d57 <execute_lone_external+0x137>
  406d31:	48 8b 7d f8          	mov    -0x8(%rbp),%rdi
  406d35:	48 8b 45 f0          	mov    -0x10(%rbp),%rax
  406d39:	48 8b 00             	mov    (%rax),%rax
  406d3c:	48 8b 40 10          	mov    0x10(%rax),%rax
  406d40:	48 8b 10             	mov    (%rax),%rdx
  406d43:	48 be 92 c8 40 00 00 	movabs $0x40c892,%rsi
  406d4a:	00 00 00 
  406d4d:	b9 7e 00 00 00       	mov    $0x7e,%ecx
  406d52:	e8 a9 0d 00 00       	call   407b00 <snuff_it>
  406d57:	e9 0d 00 00 00       	jmp    406d69 <execute_lone_external+0x149>
  406d5c:	48 8b 7d f8          	mov    -0x8(%rbp),%rdi
  406d60:	48 8b 75 f0          	mov    -0x10(%rbp),%rsi
  406d64:	e8 07 f5 ff ff       	call   406270 <handle_parent>
  406d69:	48 83 c4 10          	add    $0x10,%rsp
  406d6d:	5d                   	pop    %rbp
  406d6e:	c3                   	ret    
  406d6f:	90                   	nop

0000000000406d70 <close_temps_and_snuff_it>:
  406d70:	55                   	push   %rbp
  406d71:	48 89 e5             	mov    %rsp,%rbp
  406d74:	48 83 ec 10          	sub    $0x10,%rsp
  406d78:	48 89 7d f8          	mov    %rdi,-0x8(%rbp)
  406d7c:	48 89 75 f0          	mov    %rsi,-0x10(%rbp)
  406d80:	48 8b 7d f8          	mov    -0x8(%rbp),%rdi
  406d84:	48 83 c7 54          	add    $0x54,%rdi
  406d88:	e8 03 0a 00 00       	call   407790 <close_fd_set_minus1>
  406d8d:	48 8b 7d f8          	mov    -0x8(%rbp),%rdi
  406d91:	48 83 c7 58          	add    $0x58,%rdi
  406d95:	e8 f6 09 00 00       	call   407790 <close_fd_set_minus1>
  406d9a:	48 8b 7d f8          	mov    -0x8(%rbp),%rdi
  406d9e:	48 8b 45 f0          	mov    -0x10(%rbp),%rax
  406da2:	48 8b 00             	mov    (%rax),%rax
  406da5:	48 8b 10             	mov    (%rax),%rdx
  406da8:	48 be bd c8 40 00 00 	movabs $0x40c8bd,%rsi
  406daf:	00 00 00 
  406db2:	b9 ff 00 00 00       	mov    $0xff,%ecx
  406db7:	e8 44 0d 00 00       	call   407b00 <snuff_it>
  406dbc:	48 83 c4 10          	add    $0x10,%rsp
  406dc0:	5d                   	pop    %rbp
  406dc1:	c3                   	ret    
  406dc2:	66 2e 0f 1f 84 00 00 	cs nopw 0x0(%rax,%rax,1)
  406dc9:	00 00 00 
  406dcc:	0f 1f 40 00          	nopl   0x0(%rax)

0000000000406dd0 <execute_external_or_builtin>:
  406dd0:	55                   	push   %rbp
  406dd1:	48 89 e5             	mov    %rsp,%rbp
  406dd4:	48 83 ec 10          	sub    $0x10,%rsp
  406dd8:	48 89 7d f8          	mov    %rdi,-0x8(%rbp)
  406ddc:	48 89 75 f0          	mov    %rsi,-0x10(%rbp)
  406de0:	48 8b 7d f8          	mov    -0x8(%rbp),%rdi
  406de4:	48 8d 75 f0          	lea    -0x10(%rbp),%rsi
  406de8:	e8 73 f9 ff ff       	call   406760 <process_in_files>
  406ded:	48 8b 7d f8          	mov    -0x8(%rbp),%rdi
  406df1:	48 8d 75 f0          	lea    -0x10(%rbp),%rsi
  406df5:	e8 06 f8 ff ff       	call   406600 <process_out_files>
  406dfa:	48 8b 45 f0          	mov    -0x10(%rbp),%rax
  406dfe:	48 83 78 10 00       	cmpq   $0x0,0x10(%rax)
  406e03:	0f 85 10 00 00 00    	jne    406e19 <execute_external_or_builtin+0x49>
  406e09:	48 8b 7d f8          	mov    -0x8(%rbp),%rdi
  406e0d:	48 8b 45 f8          	mov    -0x8(%rbp),%rax
  406e11:	8b 70 6c             	mov    0x6c(%rax),%esi
  406e14:	e8 97 0d 00 00       	call   407bb0 <exit_like_a_boss>
  406e19:	48 8b 45 f0          	mov    -0x10(%rbp),%rax
  406e1d:	48 8b 40 10          	mov    0x10(%rax),%rax
  406e21:	48 8b 38             	mov    (%rax),%rdi
  406e24:	e8 c7 0d 00 00       	call   407bf0 <is_builtin>
  406e29:	83 f8 00             	cmp    $0x0,%eax
  406e2c:	0f 84 54 00 00 00    	je     406e86 <execute_external_or_builtin+0xb6>
  406e32:	48 8b 7d f8          	mov    -0x8(%rbp),%rdi
  406e36:	48 8b 45 f0          	mov    -0x10(%rbp),%rax
  406e3a:	48 8b 40 10          	mov    0x10(%rax),%rax
  406e3e:	48 8b 10             	mov    (%rax),%rdx
  406e41:	48 8d 75 f0          	lea    -0x10(%rbp),%rsi
  406e45:	e8 96 0e 00 00       	call   407ce0 <execute_builtin>
  406e4a:	83 f8 00             	cmp    $0x0,%eax
  406e4d:	0f 84 23 00 00 00    	je     406e76 <execute_external_or_builtin+0xa6>
  406e53:	48 8b 7d f8          	mov    -0x8(%rbp),%rdi
  406e57:	48 8b 45 f0          	mov    -0x10(%rbp),%rax
  406e5b:	48 8b 40 10          	mov    0x10(%rax),%rax
  406e5f:	48 8b 10             	mov    (%rax),%rdx
  406e62:	48 be 78 c8 40 00 00 	movabs $0x40c878,%rsi
  406e69:	00 00 00 
  406e6c:	b9 7f 00 00 00       	mov    $0x7f,%ecx
  406e71:	e8 8a 0c 00 00       	call   407b00 <snuff_it>
  406e76:	48 8b 7d f8          	mov    -0x8(%rbp),%rdi
  406e7a:	48 8b 45 f8          	mov    -0x8(%rbp),%rax
  406e7e:	8b 70 6c             	mov    0x6c(%rax),%esi
  406e81:	e8 2a 0d 00 00       	call   407bb0 <exit_like_a_boss>
  406e86:	48 8b 45 f0          	mov    -0x10(%rbp),%rax
  406e8a:	48 83 78 08 00       	cmpq   $0x0,0x8(%rax)
  406e8f:	0f 84 26 00 00 00    	je     406ebb <execute_external_or_builtin+0xeb>
  406e95:	48 8b 45 f0          	mov    -0x10(%rbp),%rax
  406e99:	48 8b 40 10          	mov    0x10(%rax),%rax
  406e9d:	48 83 38 00          	cmpq   $0x0,(%rax)
  406ea1:	0f 84 14 00 00 00    	je     406ebb <execute_external_or_builtin+0xeb>
  406ea7:	48 8b 45 f0          	mov    -0x10(%rbp),%rax
  406eab:	48 8b 40 10          	mov    0x10(%rax),%rax
  406eaf:	48 8b 00             	mov    (%rax),%rax
  406eb2:	80 38 00             	cmpb   $0x0,(%rax)
  406eb5:	0f 85 23 00 00 00    	jne    406ede <execute_external_or_builtin+0x10e>
  406ebb:	48 8b 7d f8          	mov    -0x8(%rbp),%rdi
  406ebf:	48 8b 45 f0          	mov    -0x10(%rbp),%rax
  406ec3:	48 8b 40 10          	mov    0x10(%rax),%rax
  406ec7:	48 8b 10             	mov    (%rax),%rdx
  406eca:	48 be 78 c8 40 00 00 	movabs $0x40c878,%rsi
  406ed1:	00 00 00 
  406ed4:	b9 7f 00 00 00       	mov    $0x7f,%ecx
  406ed9:	e8 22 0c 00 00       	call   407b00 <snuff_it>
  406ede:	48 8b 45 f0          	mov    -0x10(%rbp),%rax
  406ee2:	48 8b 78 08          	mov    0x8(%rax),%rdi
  406ee6:	48 8b 45 f0          	mov    -0x10(%rbp),%rax
  406eea:	48 8b 70 10          	mov    0x10(%rax),%rsi
  406eee:	48 8b 45 f8          	mov    -0x8(%rbp),%rax
  406ef2:	48 8b 90 88 00 00 00 	mov    0x88(%rax),%rdx
  406ef9:	e8 12 a2 ff ff       	call   401110 <execve@plt>
  406efe:	83 f8 ff             	cmp    $0xffffffff,%eax
  406f01:	0f 85 23 00 00 00    	jne    406f2a <execute_external_or_builtin+0x15a>
  406f07:	48 8b 7d f8          	mov    -0x8(%rbp),%rdi
  406f0b:	48 8b 45 f0          	mov    -0x10(%rbp),%rax
  406f0f:	48 8b 40 10          	mov    0x10(%rax),%rax
  406f13:	48 8b 10             	mov    (%rax),%rdx
  406f16:	48 be 92 c8 40 00 00 	movabs $0x40c892,%rsi
  406f1d:	00 00 00 
  406f20:	b9 7e 00 00 00       	mov    $0x7e,%ecx
  406f25:	e8 d6 0b 00 00       	call   407b00 <snuff_it>
  406f2a:	48 83 c4 10          	add    $0x10,%rsp
  406f2e:	5d                   	pop    %rbp
  406f2f:	c3                   	ret    

0000000000406f30 <exec_last_command>:
  406f30:	55                   	push   %rbp
  406f31:	48 89 e5             	mov    %rsp,%rbp
  406f34:	48 83 ec 10          	sub    $0x10,%rsp
  406f38:	48 89 7d f8          	mov    %rdi,-0x8(%rbp)
  406f3c:	48 89 75 f0          	mov    %rsi,-0x10(%rbp)
  406f40:	48 8b 7d f8          	mov    -0x8(%rbp),%rdi
  406f44:	48 83 c7 48          	add    $0x48,%rdi
  406f48:	e8 43 08 00 00       	call   407790 <close_fd_set_minus1>
  406f4d:	48 8b 45 f8          	mov    -0x8(%rbp),%rax
  406f51:	8b 78 50             	mov    0x50(%rax),%edi
  406f54:	31 f6                	xor    %esi,%esi
  406f56:	e8 25 a1 ff ff       	call   401080 <dup2@plt>
  406f5b:	83 f8 00             	cmp    $0x0,%eax
  406f5e:	0f 8d 1f 00 00 00    	jge    406f83 <exec_last_command+0x53>
  406f64:	48 8b 7d f8          	mov    -0x8(%rbp),%rdi
  406f68:	48 8b 45 f0          	mov    -0x10(%rbp),%rax
  406f6c:	48 8b 10             	mov    (%rax),%rdx
  406f6f:	48 be d8 c8 40 00 00 	movabs $0x40c8d8,%rsi
  406f76:	00 00 00 
  406f79:	b9 ff 00 00 00       	mov    $0xff,%ecx
  406f7e:	e8 7d 0b 00 00       	call   407b00 <snuff_it>
  406f83:	48 8b 7d f8          	mov    -0x8(%rbp),%rdi
  406f87:	48 83 c7 50          	add    $0x50,%rdi
  406f8b:	e8 00 08 00 00       	call   407790 <close_fd_set_minus1>
  406f90:	48 8b 7d f8          	mov    -0x8(%rbp),%rdi
  406f94:	48 83 c7 48          	add    $0x48,%rdi
  406f98:	48 83 c7 04          	add    $0x4,%rdi
  406f9c:	e8 ef 07 00 00       	call   407790 <close_fd_set_minus1>
  406fa1:	48 8b 7d f8          	mov    -0x8(%rbp),%rdi
  406fa5:	48 8b 75 f0          	mov    -0x10(%rbp),%rsi
  406fa9:	e8 22 fe ff ff       	call   406dd0 <execute_external_or_builtin>
  406fae:	48 83 c4 10          	add    $0x10,%rsp
  406fb2:	5d                   	pop    %rbp
  406fb3:	c3                   	ret    
  406fb4:	66 2e 0f 1f 84 00 00 	cs nopw 0x0(%rax,%rax,1)
  406fbb:	00 00 00 
  406fbe:	66 90                	xchg   %ax,%ax

0000000000406fc0 <exec_mid_command>:
  406fc0:	55                   	push   %rbp
  406fc1:	48 89 e5             	mov    %rsp,%rbp
  406fc4:	48 83 ec 10          	sub    $0x10,%rsp
  406fc8:	48 89 7d f8          	mov    %rdi,-0x8(%rbp)
  406fcc:	48 89 75 f0          	mov    %rsi,-0x10(%rbp)
  406fd0:	48 8b 45 f8          	mov    -0x8(%rbp),%rax
  406fd4:	8b 78 50             	mov    0x50(%rax),%edi
  406fd7:	31 f6                	xor    %esi,%esi
  406fd9:	e8 a2 a0 ff ff       	call   401080 <dup2@plt>
  406fde:	83 f8 00             	cmp    $0x0,%eax
  406fe1:	0f 8d 1f 00 00 00    	jge    407006 <exec_mid_command+0x46>
  406fe7:	48 8b 7d f8          	mov    -0x8(%rbp),%rdi
  406feb:	48 8b 45 f0          	mov    -0x10(%rbp),%rax
  406fef:	48 8b 10             	mov    (%rax),%rdx
  406ff2:	48 be d8 c8 40 00 00 	movabs $0x40c8d8,%rsi
  406ff9:	00 00 00 
  406ffc:	b9 ff 00 00 00       	mov    $0xff,%ecx
  407001:	e8 fa 0a 00 00       	call   407b00 <snuff_it>
  407006:	48 8b 7d f8          	mov    -0x8(%rbp),%rdi
  40700a:	48 83 c7 50          	add    $0x50,%rdi
  40700e:	e8 7d 07 00 00       	call   407790 <close_fd_set_minus1>
  407013:	48 8b 45 f8          	mov    -0x8(%rbp),%rax
  407017:	8b 78 4c             	mov    0x4c(%rax),%edi
  40701a:	be 01 00 00 00       	mov    $0x1,%esi
  40701f:	e8 5c a0 ff ff       	call   401080 <dup2@plt>
  407024:	83 f8 00             	cmp    $0x0,%eax
  407027:	0f 8d 1f 00 00 00    	jge    40704c <exec_mid_command+0x8c>
  40702d:	48 8b 7d f8          	mov    -0x8(%rbp),%rdi
  407031:	48 8b 45 f0          	mov    -0x10(%rbp),%rax
  407035:	48 8b 10             	mov    (%rax),%rdx
  407038:	48 be fb c8 40 00 00 	movabs $0x40c8fb,%rsi
  40703f:	00 00 00 
  407042:	b9 ff 00 00 00       	mov    $0xff,%ecx
  407047:	e8 b4 0a 00 00       	call   407b00 <snuff_it>
  40704c:	48 8b 7d f8          	mov    -0x8(%rbp),%rdi
  407050:	48 83 c7 48          	add    $0x48,%rdi
  407054:	48 83 c7 04          	add    $0x4,%rdi
  407058:	e8 33 07 00 00       	call   407790 <close_fd_set_minus1>
  40705d:	48 8b 7d f8          	mov    -0x8(%rbp),%rdi
  407061:	48 83 c7 48          	add    $0x48,%rdi
  407065:	e8 26 07 00 00       	call   407790 <close_fd_set_minus1>
  40706a:	48 8b 7d f8          	mov    -0x8(%rbp),%rdi
  40706e:	48 8b 75 f0          	mov    -0x10(%rbp),%rsi
  407072:	e8 59 fd ff ff       	call   406dd0 <execute_external_or_builtin>
  407077:	48 83 c4 10          	add    $0x10,%rsp
  40707b:	5d                   	pop    %rbp
  40707c:	c3                   	ret    
  40707d:	0f 1f 00             	nopl   (%rax)

0000000000407080 <exec_first_command>:
  407080:	55                   	push   %rbp
  407081:	48 89 e5             	mov    %rsp,%rbp
  407084:	48 83 ec 10          	sub    $0x10,%rsp
  407088:	48 89 7d f8          	mov    %rdi,-0x8(%rbp)
  40708c:	48 89 75 f0          	mov    %rsi,-0x10(%rbp)
  407090:	48 8b 7d f8          	mov    -0x8(%rbp),%rdi
  407094:	48 83 c7 48          	add    $0x48,%rdi
  407098:	e8 f3 06 00 00       	call   407790 <close_fd_set_minus1>
  40709d:	48 8b 7d f8          	mov    -0x8(%rbp),%rdi
  4070a1:	48 83 c7 50          	add    $0x50,%rdi
  4070a5:	e8 e6 06 00 00       	call   407790 <close_fd_set_minus1>
  4070aa:	48 8b 45 f8          	mov    -0x8(%rbp),%rax
  4070ae:	8b 78 4c             	mov    0x4c(%rax),%edi
  4070b1:	be 01 00 00 00       	mov    $0x1,%esi
  4070b6:	e8 c5 9f ff ff       	call   401080 <dup2@plt>
  4070bb:	83 f8 00             	cmp    $0x0,%eax
  4070be:	0f 8d 1f 00 00 00    	jge    4070e3 <exec_first_command+0x63>
  4070c4:	48 8b 7d f8          	mov    -0x8(%rbp),%rdi
  4070c8:	48 8b 45 f0          	mov    -0x10(%rbp),%rax
  4070cc:	48 8b 10             	mov    (%rax),%rdx
  4070cf:	48 be fb c8 40 00 00 	movabs $0x40c8fb,%rsi
  4070d6:	00 00 00 
  4070d9:	b9 ff 00 00 00       	mov    $0xff,%ecx
  4070de:	e8 1d 0a 00 00       	call   407b00 <snuff_it>
  4070e3:	48 8b 7d f8          	mov    -0x8(%rbp),%rdi
  4070e7:	48 83 c7 48          	add    $0x48,%rdi
  4070eb:	48 83 c7 04          	add    $0x4,%rdi
  4070ef:	e8 9c 06 00 00       	call   407790 <close_fd_set_minus1>
  4070f4:	48 8b 7d f8          	mov    -0x8(%rbp),%rdi
  4070f8:	48 8b 75 f0          	mov    -0x10(%rbp),%rsi
  4070fc:	e8 cf fc ff ff       	call   406dd0 <execute_external_or_builtin>
  407101:	48 83 c4 10          	add    $0x10,%rsp
  407105:	5d                   	pop    %rbp
  407106:	c3                   	ret    
  407107:	66 0f 1f 84 00 00 00 	nopw   0x0(%rax,%rax,1)
  40710e:	00 00 

0000000000407110 <print_redirections>:
  407110:	55                   	push   %rbp
  407111:	48 89 e5             	mov    %rsp,%rbp
  407114:	48 83 ec 10          	sub    $0x10,%rsp
  407118:	48 89 7d f8          	mov    %rdi,-0x8(%rbp)
  40711c:	48 83 7d f8 00       	cmpq   $0x0,-0x8(%rbp)
  407121:	0f 84 30 00 00 00    	je     407157 <print_redirections+0x47>
  407127:	48 8b 45 f8          	mov    -0x8(%rbp),%rax
  40712b:	8b 30                	mov    (%rax),%esi
  40712d:	48 8b 45 f8          	mov    -0x8(%rbp),%rax
  407131:	48 8b 50 08          	mov    0x8(%rax),%rdx
  407135:	48 bf 16 c9 40 00 00 	movabs $0x40c916,%rdi
  40713c:	00 00 00 
  40713f:	b0 00                	mov    $0x0,%al
  407141:	e8 4a 9f ff ff       	call   401090 <printf@plt>
  407146:	48 8b 45 f8          	mov    -0x8(%rbp),%rax
  40714a:	48 8b 40 28          	mov    0x28(%rax),%rax
  40714e:	48 89 45 f8          	mov    %rax,-0x8(%rbp)
  407152:	e9 c5 ff ff ff       	jmp    40711c <print_redirections+0xc>
  407157:	48 83 c4 10          	add    $0x10,%rsp
  40715b:	5d                   	pop    %rbp
  40715c:	c3                   	ret    
  40715d:	0f 1f 00             	nopl   (%rax)

0000000000407160 <print_execs>:
  407160:	55                   	push   %rbp
  407161:	48 89 e5             	mov    %rsp,%rbp
  407164:	48 83 ec 10          	sub    $0x10,%rsp
  407168:	48 89 7d f8          	mov    %rdi,-0x8(%rbp)
  40716c:	48 bf 2a c9 40 00 00 	movabs $0x40c92a,%rdi
  407173:	00 00 00 
  407176:	b0 00                	mov    $0x0,%al
  407178:	e8 13 9f ff ff       	call   401090 <printf@plt>
  40717d:	48 83 7d f8 00       	cmpq   $0x0,-0x8(%rbp)
  407182:	0f 84 ce 00 00 00    	je     407256 <print_execs+0xf6>
  407188:	48 8b 45 f8          	mov    -0x8(%rbp),%rax
  40718c:	48 8b 30             	mov    (%rax),%rsi
  40718f:	48 8b 45 f8          	mov    -0x8(%rbp),%rax
  407193:	48 8b 50 08          	mov    0x8(%rax),%rdx
  407197:	48 bf 37 c9 40 00 00 	movabs $0x40c937,%rdi
  40719e:	00 00 00 
  4071a1:	b0 00                	mov    $0x0,%al
  4071a3:	e8 e8 9e ff ff       	call   401090 <printf@plt>
  4071a8:	48 bf 4b c9 40 00 00 	movabs $0x40c94b,%rdi
  4071af:	00 00 00 
  4071b2:	b0 00                	mov    $0x0,%al
  4071b4:	e8 d7 9e ff ff       	call   401090 <printf@plt>
  4071b9:	48 8b 45 f8          	mov    -0x8(%rbp),%rax
  4071bd:	48 83 78 10 00       	cmpq   $0x0,0x10(%rax)
  4071c2:	0f 84 52 00 00 00    	je     40721a <print_execs+0xba>
  4071c8:	c7 45 f4 00 00 00 00 	movl   $0x0,-0xc(%rbp)
  4071cf:	48 8b 45 f8          	mov    -0x8(%rbp),%rax
  4071d3:	48 8b 40 10          	mov    0x10(%rax),%rax
  4071d7:	48 63 4d f4          	movslq -0xc(%rbp),%rcx
  4071db:	48 83 3c c8 00       	cmpq   $0x0,(%rax,%rcx,8)
  4071e0:	0f 84 2f 00 00 00    	je     407215 <print_execs+0xb5>
  4071e6:	48 8b 45 f8          	mov    -0x8(%rbp),%rax
  4071ea:	48 8b 40 10          	mov    0x10(%rax),%rax
  4071ee:	48 63 4d f4          	movslq -0xc(%rbp),%rcx
  4071f2:	48 8b 34 c8          	mov    (%rax,%rcx,8),%rsi
  4071f6:	48 bf 57 c9 40 00 00 	movabs $0x40c957,%rdi
  4071fd:	00 00 00 
  407200:	b0 00                	mov    $0x0,%al
  407202:	e8 89 9e ff ff       	call   401090 <printf@plt>
  407207:	8b 45 f4             	mov    -0xc(%rbp),%eax
  40720a:	83 c0 01             	add    $0x1,%eax
  40720d:	89 45 f4             	mov    %eax,-0xc(%rbp)
  407210:	e9 ba ff ff ff       	jmp    4071cf <print_execs+0x6f>
  407215:	e9 00 00 00 00       	jmp    40721a <print_execs+0xba>
  40721a:	48 bf 5d c9 40 00 00 	movabs $0x40c95d,%rdi
  407221:	00 00 00 
  407224:	b0 00                	mov    $0x0,%al
  407226:	e8 65 9e ff ff       	call   401090 <printf@plt>
  40722b:	48 8b 45 f8          	mov    -0x8(%rbp),%rax
  40722f:	48 8b 78 20          	mov    0x20(%rax),%rdi
  407233:	e8 d8 fe ff ff       	call   407110 <print_redirections>
  407238:	48 8b 45 f8          	mov    -0x8(%rbp),%rax
  40723c:	48 8b 78 28          	mov    0x28(%rax),%rdi
  407240:	e8 cb fe ff ff       	call   407110 <print_redirections>
  407245:	48 8b 45 f8          	mov    -0x8(%rbp),%rax
  407249:	48 8b 40 40          	mov    0x40(%rax),%rax
  40724d:	48 89 45 f8          	mov    %rax,-0x8(%rbp)
  407251:	e9 27 ff ff ff       	jmp    40717d <print_execs+0x1d>
  407256:	48 83 c4 10          	add    $0x10,%rsp
  40725a:	5d                   	pop    %rbp
  40725b:	c3                   	ret    
  40725c:	0f 1f 40 00          	nopl   0x0(%rax)

0000000000407260 <print_tokens>:
  407260:	55                   	push   %rbp
  407261:	48 89 e5             	mov    %rsp,%rbp
  407264:	48 83 ec 20          	sub    $0x20,%rsp
  407268:	48 89 7d f8          	mov    %rdi,-0x8(%rbp)
  40726c:	48 8b 45 f8          	mov    -0x8(%rbp),%rax
  407270:	48 89 45 f0          	mov    %rax,-0x10(%rbp)
  407274:	48 83 7d f0 00       	cmpq   $0x0,-0x10(%rbp)
  407279:	0f 84 d0 00 00 00    	je     40734f <print_tokens+0xef>
  40727f:	48 8b 45 f0          	mov    -0x10(%rbp),%rax
  407283:	48 83 78 08 00       	cmpq   $0x0,0x8(%rax)
  407288:	0f 84 24 00 00 00    	je     4072b2 <print_tokens+0x52>
  40728e:	48 8b 45 f0          	mov    -0x10(%rbp),%rax
  407292:	8b 30                	mov    (%rax),%esi
  407294:	48 8b 45 f0          	mov    -0x10(%rbp),%rax
  407298:	48 8b 50 08          	mov    0x8(%rax),%rdx
  40729c:	48 bf 6c c9 40 00 00 	movabs $0x40c96c,%rdi
  4072a3:	00 00 00 
  4072a6:	b0 00                	mov    $0x0,%al
  4072a8:	e8 e3 9d ff ff       	call   401090 <printf@plt>
  4072ad:	e9 17 00 00 00       	jmp    4072c9 <print_tokens+0x69>
  4072b2:	48 8b 45 f0          	mov    -0x10(%rbp),%rax
  4072b6:	8b 30                	mov    (%rax),%esi
  4072b8:	48 bf 86 c9 40 00 00 	movabs $0x40c986,%rdi
  4072bf:	00 00 00 
  4072c2:	b0 00                	mov    $0x0,%al
  4072c4:	e8 c7 9d ff ff       	call   401090 <printf@plt>
  4072c9:	48 8b 45 f0          	mov    -0x10(%rbp),%rax
  4072cd:	48 83 78 10 00       	cmpq   $0x0,0x10(%rax)
  4072d2:	0f 84 66 00 00 00    	je     40733e <print_tokens+0xde>
  4072d8:	48 bf a4 c9 40 00 00 	movabs $0x40c9a4,%rdi
  4072df:	00 00 00 
  4072e2:	b0 00                	mov    $0x0,%al
  4072e4:	e8 a7 9d ff ff       	call   401090 <printf@plt>
  4072e9:	c7 45 ec 00 00 00 00 	movl   $0x0,-0x14(%rbp)
  4072f0:	48 8b 45 f0          	mov    -0x10(%rbp),%rax
  4072f4:	48 8b 40 10          	mov    0x10(%rax),%rax
  4072f8:	48 63 4d ec          	movslq -0x14(%rbp),%rcx
  4072fc:	48 83 3c c8 00       	cmpq   $0x0,(%rax,%rcx,8)
  407301:	0f 84 32 00 00 00    	je     407339 <print_tokens+0xd9>
  407307:	8b 75 ec             	mov    -0x14(%rbp),%esi
  40730a:	48 8b 45 f0          	mov    -0x10(%rbp),%rax
  40730e:	48 8b 40 10          	mov    0x10(%rax),%rax
  407312:	48 63 4d ec          	movslq -0x14(%rbp),%rcx
  407316:	48 8b 14 c8          	mov    (%rax,%rcx,8),%rdx
  40731a:	48 bf b4 c9 40 00 00 	movabs $0x40c9b4,%rdi
  407321:	00 00 00 
  407324:	b0 00                	mov    $0x0,%al
  407326:	e8 65 9d ff ff       	call   401090 <printf@plt>
  40732b:	8b 45 ec             	mov    -0x14(%rbp),%eax
  40732e:	83 c0 01             	add    $0x1,%eax
  407331:	89 45 ec             	mov    %eax,-0x14(%rbp)
  407334:	e9 b7 ff ff ff       	jmp    4072f0 <print_tokens+0x90>
  407339:	e9 00 00 00 00       	jmp    40733e <print_tokens+0xde>
  40733e:	48 8b 45 f0          	mov    -0x10(%rbp),%rax
  407342:	48 8b 40 28          	mov    0x28(%rax),%rax
  407346:	48 89 45 f0          	mov    %rax,-0x10(%rbp)
  40734a:	e9 25 ff ff ff       	jmp    407274 <print_tokens+0x14>
  40734f:	48 83 c4 20          	add    $0x20,%rsp
  407353:	5d                   	pop    %rbp
  407354:	c3                   	ret    
  407355:	66 2e 0f 1f 84 00 00 	cs nopw 0x0(%rax,%rax,1)
  40735c:	00 00 00 
  40735f:	90                   	nop

0000000000407360 <print_envs>:
  407360:	55                   	push   %rbp
  407361:	48 89 e5             	mov    %rsp,%rbp
  407364:	48 83 ec 10          	sub    $0x10,%rsp
  407368:	48 89 7d f8          	mov    %rdi,-0x8(%rbp)
  40736c:	48 8b 45 f8          	mov    -0x8(%rbp),%rax
  407370:	48 89 45 f0          	mov    %rax,-0x10(%rbp)
  407374:	48 bf c2 c9 40 00 00 	movabs $0x40c9c2,%rdi
  40737b:	00 00 00 
  40737e:	b0 00                	mov    $0x0,%al
  407380:	e8 0b 9d ff ff       	call   401090 <printf@plt>
  407385:	48 83 7d f0 00       	cmpq   $0x0,-0x10(%rbp)
  40738a:	0f 84 38 00 00 00    	je     4073c8 <print_envs+0x68>
  407390:	48 8b 45 f0          	mov    -0x10(%rbp),%rax
  407394:	48 8b 30             	mov    (%rax),%rsi
  407397:	48 8b 45 f0          	mov    -0x10(%rbp),%rax
  40739b:	48 8b 50 08          	mov    0x8(%rax),%rdx
  40739f:	48 8b 45 f0          	mov    -0x10(%rbp),%rax
  4073a3:	8b 48 10             	mov    0x10(%rax),%ecx
  4073a6:	48 bf da c9 40 00 00 	movabs $0x40c9da,%rdi
  4073ad:	00 00 00 
  4073b0:	b0 00                	mov    $0x0,%al
  4073b2:	e8 d9 9c ff ff       	call   401090 <printf@plt>
  4073b7:	48 8b 45 f0          	mov    -0x10(%rbp),%rax
  4073bb:	48 8b 40 18          	mov    0x18(%rax),%rax
  4073bf:	48 89 45 f0          	mov    %rax,-0x10(%rbp)
  4073c3:	e9 bd ff ff ff       	jmp    407385 <print_envs+0x25>
  4073c8:	48 83 c4 10          	add    $0x10,%rsp
  4073cc:	5d                   	pop    %rbp
  4073cd:	c3                   	ret    
  4073ce:	66 90                	xchg   %ax,%ax

00000000004073d0 <process_lstclear>:
  4073d0:	55                   	push   %rbp
  4073d1:	48 89 e5             	mov    %rsp,%rbp
  4073d4:	48 83 ec 20          	sub    $0x20,%rsp
  4073d8:	48 89 7d f8          	mov    %rdi,-0x8(%rbp)
  4073dc:	48 83 7d f8 00       	cmpq   $0x0,-0x8(%rbp)
  4073e1:	0f 85 05 00 00 00    	jne    4073ec <process_lstclear+0x1c>
  4073e7:	e9 43 00 00 00       	jmp    40742f <process_lstclear+0x5f>
  4073ec:	48 8b 45 f8          	mov    -0x8(%rbp),%rax
  4073f0:	48 8b 00             	mov    (%rax),%rax
  4073f3:	48 89 45 f0          	mov    %rax,-0x10(%rbp)
  4073f7:	48 83 7d f0 00       	cmpq   $0x0,-0x10(%rbp)
  4073fc:	0f 84 22 00 00 00    	je     407424 <process_lstclear+0x54>
  407402:	48 8b 45 f0          	mov    -0x10(%rbp),%rax
  407406:	48 8b 40 10          	mov    0x10(%rax),%rax
  40740a:	48 89 45 e8          	mov    %rax,-0x18(%rbp)
  40740e:	48 8b 7d f0          	mov    -0x10(%rbp),%rdi
  407412:	e8 19 9c ff ff       	call   401030 <free@plt>
  407417:	48 8b 45 e8          	mov    -0x18(%rbp),%rax
  40741b:	48 89 45 f0          	mov    %rax,-0x10(%rbp)
  40741f:	e9 d3 ff ff ff       	jmp    4073f7 <process_lstclear+0x27>
  407424:	48 8b 45 f8          	mov    -0x8(%rbp),%rax
  407428:	48 c7 00 00 00 00 00 	movq   $0x0,(%rax)
  40742f:	48 83 c4 20          	add    $0x20,%rsp
  407433:	5d                   	pop    %rbp
  407434:	c3                   	ret    
  407435:	66 2e 0f 1f 84 00 00 	cs nopw 0x0(%rax,%rax,1)
  40743c:	00 00 00 
  40743f:	90                   	nop

0000000000407440 <redir_lstclear>:
  407440:	55                   	push   %rbp
  407441:	48 89 e5             	mov    %rsp,%rbp
  407444:	48 83 ec 20          	sub    $0x20,%rsp
  407448:	48 89 7d f8          	mov    %rdi,-0x8(%rbp)
  40744c:	48 83 7d f8 00       	cmpq   $0x0,-0x8(%rbp)
  407451:	0f 85 05 00 00 00    	jne    40745c <redir_lstclear+0x1c>
  407457:	e9 c1 00 00 00       	jmp    40751d <redir_lstclear+0xdd>
  40745c:	48 8b 45 f8          	mov    -0x8(%rbp),%rax
  407460:	48 8b 00             	mov    (%rax),%rax
  407463:	48 89 45 f0          	mov    %rax,-0x10(%rbp)
  407467:	48 83 7d f0 00       	cmpq   $0x0,-0x10(%rbp)
  40746c:	0f 84 a0 00 00 00    	je     407512 <redir_lstclear+0xd2>
  407472:	48 8b 45 f0          	mov    -0x10(%rbp),%rax
  407476:	48 8b 40 28          	mov    0x28(%rax),%rax
  40747a:	48 89 45 e8          	mov    %rax,-0x18(%rbp)
  40747e:	48 8b 45 f0          	mov    -0x10(%rbp),%rax
  407482:	48 83 78 10 00       	cmpq   $0x0,0x10(%rax)
  407487:	0f 84 3a 00 00 00    	je     4074c7 <redir_lstclear+0x87>
  40748d:	48 8b 45 f0          	mov    -0x10(%rbp),%rax
  407491:	48 8b 78 10          	mov    0x10(%rax),%rdi
  407495:	e8 96 9b ff ff       	call   401030 <free@plt>
  40749a:	48 8b 45 f0          	mov    -0x10(%rbp),%rax
  40749e:	48 c7 40 10 00 00 00 	movq   $0x0,0x10(%rax)
  4074a5:	00 
  4074a6:	48 8b 45 f0          	mov    -0x10(%rbp),%rax
  4074aa:	48 83 78 08 00       	cmpq   $0x0,0x8(%rax)
  4074af:	0f 84 0d 00 00 00    	je     4074c2 <redir_lstclear+0x82>
  4074b5:	48 8b 45 f0          	mov    -0x10(%rbp),%rax
  4074b9:	48 8b 78 08          	mov    0x8(%rax),%rdi
  4074bd:	e8 7e 9b ff ff       	call   401040 <unlink@plt>
  4074c2:	e9 00 00 00 00       	jmp    4074c7 <redir_lstclear+0x87>
  4074c7:	48 8b 45 f0          	mov    -0x10(%rbp),%rax
  4074cb:	48 83 78 08 00       	cmpq   $0x0,0x8(%rax)
  4074d0:	0f 84 0d 00 00 00    	je     4074e3 <redir_lstclear+0xa3>
  4074d6:	48 8b 45 f0          	mov    -0x10(%rbp),%rax
  4074da:	48 8b 78 08          	mov    0x8(%rax),%rdi
  4074de:	e8 4d 9b ff ff       	call   401030 <free@plt>
  4074e3:	48 8b 45 f0          	mov    -0x10(%rbp),%rax
  4074e7:	48 c7 40 08 00 00 00 	movq   $0x0,0x8(%rax)
  4074ee:	00 
  4074ef:	48 8b 7d f0          	mov    -0x10(%rbp),%rdi
  4074f3:	48 83 c7 18          	add    $0x18,%rdi
  4074f7:	e8 94 02 00 00       	call   407790 <close_fd_set_minus1>
  4074fc:	48 8b 7d f0          	mov    -0x10(%rbp),%rdi
  407500:	e8 2b 9b ff ff       	call   401030 <free@plt>
  407505:	48 8b 45 e8          	mov    -0x18(%rbp),%rax
  407509:	48 89 45 f0          	mov    %rax,-0x10(%rbp)
  40750d:	e9 55 ff ff ff       	jmp    407467 <redir_lstclear+0x27>
  407512:	48 8b 45 f8          	mov    -0x8(%rbp),%rax
  407516:	48 c7 00 00 00 00 00 	movq   $0x0,(%rax)
  40751d:	48 83 c4 20          	add    $0x20,%rsp
  407521:	5d                   	pop    %rbp
  407522:	c3                   	ret    
  407523:	66 2e 0f 1f 84 00 00 	cs nopw 0x0(%rax,%rax,1)
  40752a:	00 00 00 
  40752d:	0f 1f 00             	nopl   (%rax)

0000000000407530 <redir_lst_close_fds>:
  407530:	55                   	push   %rbp
  407531:	48 89 e5             	mov    %rsp,%rbp
  407534:	48 83 ec 10          	sub    $0x10,%rsp
  407538:	48 89 7d f8          	mov    %rdi,-0x8(%rbp)
  40753c:	48 83 7d f8 00       	cmpq   $0x0,-0x8(%rbp)
  407541:	0f 85 05 00 00 00    	jne    40754c <redir_lst_close_fds+0x1c>
  407547:	e9 9b 00 00 00       	jmp    4075e7 <redir_lst_close_fds+0xb7>
  40754c:	48 8b 45 f8          	mov    -0x8(%rbp),%rax
  407550:	48 8b 00             	mov    (%rax),%rax
  407553:	48 89 45 f0          	mov    %rax,-0x10(%rbp)
  407557:	48 83 7d f0 00       	cmpq   $0x0,-0x10(%rbp)
  40755c:	0f 84 85 00 00 00    	je     4075e7 <redir_lst_close_fds+0xb7>
  407562:	48 8b 45 f0          	mov    -0x10(%rbp),%rax
  407566:	48 83 78 08 00       	cmpq   $0x0,0x8(%rax)
  40756b:	0f 84 0d 00 00 00    	je     40757e <redir_lst_close_fds+0x4e>
  407571:	48 8b 45 f0          	mov    -0x10(%rbp),%rax
  407575:	48 8b 78 08          	mov    0x8(%rax),%rdi
  407579:	e8 b2 9a ff ff       	call   401030 <free@plt>
  40757e:	48 8b 45 f0          	mov    -0x10(%rbp),%rax
  407582:	48 c7 40 08 00 00 00 	movq   $0x0,0x8(%rax)
  407589:	00 
  40758a:	48 8b 45 f0          	mov    -0x10(%rbp),%rax
  40758e:	48 83 78 10 00       	cmpq   $0x0,0x10(%rax)
  407593:	0f 84 0d 00 00 00    	je     4075a6 <redir_lst_close_fds+0x76>
  407599:	48 8b 45 f0          	mov    -0x10(%rbp),%rax
  40759d:	48 8b 78 10          	mov    0x10(%rax),%rdi
  4075a1:	e8 8a 9a ff ff       	call   401030 <free@plt>
  4075a6:	48 8b 45 f0          	mov    -0x10(%rbp),%rax
  4075aa:	48 c7 40 10 00 00 00 	movq   $0x0,0x10(%rax)
  4075b1:	00 
  4075b2:	48 8b 45 f0          	mov    -0x10(%rbp),%rax
  4075b6:	83 78 18 00          	cmpl   $0x0,0x18(%rax)
  4075ba:	0f 8c 0d 00 00 00    	jl     4075cd <redir_lst_close_fds+0x9d>
  4075c0:	48 8b 7d f0          	mov    -0x10(%rbp),%rdi
  4075c4:	48 83 c7 18          	add    $0x18,%rdi
  4075c8:	e8 c3 01 00 00       	call   407790 <close_fd_set_minus1>
  4075cd:	48 8b 7d f0          	mov    -0x10(%rbp),%rdi
  4075d1:	e8 5a 9a ff ff       	call   401030 <free@plt>
  4075d6:	48 8b 45 f0          	mov    -0x10(%rbp),%rax
  4075da:	48 8b 40 28          	mov    0x28(%rax),%rax
  4075de:	48 89 45 f0          	mov    %rax,-0x10(%rbp)
  4075e2:	e9 70 ff ff ff       	jmp    407557 <redir_lst_close_fds+0x27>
  4075e7:	48 83 c4 10          	add    $0x10,%rsp
  4075eb:	5d                   	pop    %rbp
  4075ec:	c3                   	ret    
  4075ed:	0f 1f 00             	nopl   (%rax)

00000000004075f0 <exec_lstclear>:
  4075f0:	55                   	push   %rbp
  4075f1:	48 89 e5             	mov    %rsp,%rbp
  4075f4:	48 83 ec 20          	sub    $0x20,%rsp
  4075f8:	48 89 7d f8          	mov    %rdi,-0x8(%rbp)
  4075fc:	48 83 7d f8 00       	cmpq   $0x0,-0x8(%rbp)
  407601:	0f 85 05 00 00 00    	jne    40760c <exec_lstclear+0x1c>
  407607:	e9 c6 00 00 00       	jmp    4076d2 <exec_lstclear+0xe2>
  40760c:	48 8b 45 f8          	mov    -0x8(%rbp),%rax
  407610:	48 8b 00             	mov    (%rax),%rax
  407613:	48 89 45 f0          	mov    %rax,-0x10(%rbp)
  407617:	48 83 7d f0 00       	cmpq   $0x0,-0x10(%rbp)
  40761c:	0f 84 a5 00 00 00    	je     4076c7 <exec_lstclear+0xd7>
  407622:	48 8b 45 f0          	mov    -0x10(%rbp),%rax
  407626:	48 8b 40 40          	mov    0x40(%rax),%rax
  40762a:	48 89 45 e8          	mov    %rax,-0x18(%rbp)
  40762e:	48 8b 45 f0          	mov    -0x10(%rbp),%rax
  407632:	48 83 38 00          	cmpq   $0x0,(%rax)
  407636:	0f 84 0c 00 00 00    	je     407648 <exec_lstclear+0x58>
  40763c:	48 8b 45 f0          	mov    -0x10(%rbp),%rax
  407640:	48 8b 38             	mov    (%rax),%rdi
  407643:	e8 e8 99 ff ff       	call   401030 <free@plt>
  407648:	48 8b 45 f0          	mov    -0x10(%rbp),%rax
  40764c:	48 c7 00 00 00 00 00 	movq   $0x0,(%rax)
  407653:	48 8b 45 f0          	mov    -0x10(%rbp),%rax
  407657:	48 83 78 08 00       	cmpq   $0x0,0x8(%rax)
  40765c:	0f 84 0d 00 00 00    	je     40766f <exec_lstclear+0x7f>
  407662:	48 8b 45 f0          	mov    -0x10(%rbp),%rax
  407666:	48 8b 78 08          	mov    0x8(%rax),%rdi
  40766a:	e8 c1 99 ff ff       	call   401030 <free@plt>
  40766f:	48 8b 45 f0          	mov    -0x10(%rbp),%rax
  407673:	48 c7 40 08 00 00 00 	movq   $0x0,0x8(%rax)
  40767a:	00 
  40767b:	48 8b 45 f0          	mov    -0x10(%rbp),%rax
  40767f:	48 83 78 10 00       	cmpq   $0x0,0x10(%rax)
  407684:	0f 84 0d 00 00 00    	je     407697 <exec_lstclear+0xa7>
  40768a:	48 8b 45 f0          	mov    -0x10(%rbp),%rax
  40768e:	48 8b 78 10          	mov    0x10(%rax),%rdi
  407692:	e8 69 37 00 00       	call   40ae00 <ft_free_array>
  407697:	48 8b 7d f0          	mov    -0x10(%rbp),%rdi
  40769b:	48 83 c7 20          	add    $0x20,%rdi
  40769f:	e8 9c fd ff ff       	call   407440 <redir_lstclear>
  4076a4:	48 8b 7d f0          	mov    -0x10(%rbp),%rdi
  4076a8:	48 83 c7 28          	add    $0x28,%rdi
  4076ac:	e8 8f fd ff ff       	call   407440 <redir_lstclear>
  4076b1:	48 8b 7d f0          	mov    -0x10(%rbp),%rdi
  4076b5:	e8 76 99 ff ff       	call   401030 <free@plt>
  4076ba:	48 8b 45 e8          	mov    -0x18(%rbp),%rax
  4076be:	48 89 45 f0          	mov    %rax,-0x10(%rbp)
  4076c2:	e9 50 ff ff ff       	jmp    407617 <exec_lstclear+0x27>
  4076c7:	48 8b 45 f8          	mov    -0x8(%rbp),%rax
  4076cb:	48 c7 00 00 00 00 00 	movq   $0x0,(%rax)
  4076d2:	48 83 c4 20          	add    $0x20,%rsp
  4076d6:	5d                   	pop    %rbp
  4076d7:	c3                   	ret    
  4076d8:	0f 1f 84 00 00 00 00 	nopl   0x0(%rax,%rax,1)
  4076df:	00 

00000000004076e0 <token_node_lstclear>:
  4076e0:	55                   	push   %rbp
  4076e1:	48 89 e5             	mov    %rsp,%rbp
  4076e4:	48 83 ec 20          	sub    $0x20,%rsp
  4076e8:	48 89 7d f8          	mov    %rdi,-0x8(%rbp)
  4076ec:	48 83 7d f8 00       	cmpq   $0x0,-0x8(%rbp)
  4076f1:	0f 85 05 00 00 00    	jne    4076fc <token_node_lstclear+0x1c>
  4076f7:	e9 87 00 00 00       	jmp    407783 <token_node_lstclear+0xa3>
  4076fc:	48 8b 45 f8          	mov    -0x8(%rbp),%rax
  407700:	48 8b 00             	mov    (%rax),%rax
  407703:	48 89 45 f0          	mov    %rax,-0x10(%rbp)
  407707:	48 83 7d f0 00       	cmpq   $0x0,-0x10(%rbp)
  40770c:	0f 84 66 00 00 00    	je     407778 <token_node_lstclear+0x98>
  407712:	48 8b 45 f0          	mov    -0x10(%rbp),%rax
  407716:	48 8b 40 28          	mov    0x28(%rax),%rax
  40771a:	48 89 45 e8          	mov    %rax,-0x18(%rbp)
  40771e:	48 8b 45 f0          	mov    -0x10(%rbp),%rax
  407722:	48 83 78 08 00       	cmpq   $0x0,0x8(%rax)
  407727:	0f 84 0d 00 00 00    	je     40773a <token_node_lstclear+0x5a>
  40772d:	48 8b 45 f0          	mov    -0x10(%rbp),%rax
  407731:	48 8b 78 08          	mov    0x8(%rax),%rdi
  407735:	e8 f6 98 ff ff       	call   401030 <free@plt>
  40773a:	48 8b 45 f0          	mov    -0x10(%rbp),%rax
  40773e:	48 c7 40 08 00 00 00 	movq   $0x0,0x8(%rax)
  407745:	00 
  407746:	48 8b 45 f0          	mov    -0x10(%rbp),%rax
  40774a:	48 83 78 10 00       	cmpq   $0x0,0x10(%rax)
  40774f:	0f 84 0d 00 00 00    	je     407762 <token_node_lstclear+0x82>
  407755:	48 8b 45 f0          	mov    -0x10(%rbp),%rax
  407759:	48 8b 78 10          	mov    0x10(%rax),%rdi
  40775d:	e8 9e 36 00 00       	call   40ae00 <ft_free_array>
  407762:	48 8b 7d f0          	mov    -0x10(%rbp),%rdi
  407766:	e8 c5 98 ff ff       	call   401030 <free@plt>
  40776b:	48 8b 45 e8          	mov    -0x18(%rbp),%rax
  40776f:	48 89 45 f0          	mov    %rax,-0x10(%rbp)
  407773:	e9 8f ff ff ff       	jmp    407707 <token_node_lstclear+0x27>
  407778:	48 8b 45 f8          	mov    -0x8(%rbp),%rax
  40777c:	48 c7 00 00 00 00 00 	movq   $0x0,(%rax)
  407783:	48 83 c4 20          	add    $0x20,%rsp
  407787:	5d                   	pop    %rbp
  407788:	c3                   	ret    
  407789:	0f 1f 80 00 00 00 00 	nopl   0x0(%rax)

0000000000407790 <close_fd_set_minus1>:
  407790:	55                   	push   %rbp
  407791:	48 89 e5             	mov    %rsp,%rbp
  407794:	48 83 ec 10          	sub    $0x10,%rsp
  407798:	48 89 7d f8          	mov    %rdi,-0x8(%rbp)
  40779c:	48 83 7d f8 00       	cmpq   $0x0,-0x8(%rbp)
  4077a1:	0f 84 3a 00 00 00    	je     4077e1 <close_fd_set_minus1+0x51>
  4077a7:	48 8b 45 f8          	mov    -0x8(%rbp),%rax
  4077ab:	83 38 ff             	cmpl   $0xffffffff,(%rax)
  4077ae:	0f 84 2d 00 00 00    	je     4077e1 <close_fd_set_minus1+0x51>
  4077b4:	48 8b 45 f8          	mov    -0x8(%rbp),%rax
  4077b8:	8b 38                	mov    (%rax),%edi
  4077ba:	e8 21 99 ff ff       	call   4010e0 <close@plt>
  4077bf:	83 f8 00             	cmp    $0x0,%eax
  4077c2:	0f 8d 0f 00 00 00    	jge    4077d7 <close_fd_set_minus1+0x47>
  4077c8:	48 bf fd c9 40 00 00 	movabs $0x40c9fd,%rdi
  4077cf:	00 00 00 
  4077d2:	e8 b9 99 ff ff       	call   401190 <perror@plt>
  4077d7:	48 8b 45 f8          	mov    -0x8(%rbp),%rax
  4077db:	c7 00 ff ff ff ff    	movl   $0xffffffff,(%rax)
  4077e1:	48 83 c4 10          	add    $0x10,%rsp
  4077e5:	5d                   	pop    %rbp
  4077e6:	c3                   	ret    
  4077e7:	66 0f 1f 84 00 00 00 	nopw   0x0(%rax,%rax,1)
  4077ee:	00 00 

00000000004077f0 <close_all_fds>:
  4077f0:	55                   	push   %rbp
  4077f1:	48 89 e5             	mov    %rsp,%rbp
  4077f4:	48 83 ec 10          	sub    $0x10,%rsp
  4077f8:	48 89 7d f8          	mov    %rdi,-0x8(%rbp)
  4077fc:	48 8b 7d f8          	mov    -0x8(%rbp),%rdi
  407800:	48 83 c7 2c          	add    $0x2c,%rdi
  407804:	e8 87 ff ff ff       	call   407790 <close_fd_set_minus1>
  407809:	48 8b 7d f8          	mov    -0x8(%rbp),%rdi
  40780d:	48 83 c7 48          	add    $0x48,%rdi
  407811:	e8 7a ff ff ff       	call   407790 <close_fd_set_minus1>
  407816:	48 8b 7d f8          	mov    -0x8(%rbp),%rdi
  40781a:	48 83 c7 48          	add    $0x48,%rdi
  40781e:	48 83 c7 04          	add    $0x4,%rdi
  407822:	e8 69 ff ff ff       	call   407790 <close_fd_set_minus1>
  407827:	48 8b 7d f8          	mov    -0x8(%rbp),%rdi
  40782b:	48 83 c7 50          	add    $0x50,%rdi
  40782f:	e8 5c ff ff ff       	call   407790 <close_fd_set_minus1>
  407834:	48 8b 7d f8          	mov    -0x8(%rbp),%rdi
  407838:	48 83 c7 54          	add    $0x54,%rdi
  40783c:	e8 4f ff ff ff       	call   407790 <close_fd_set_minus1>
  407841:	48 8b 7d f8          	mov    -0x8(%rbp),%rdi
  407845:	48 83 c7 58          	add    $0x58,%rdi
  407849:	e8 42 ff ff ff       	call   407790 <close_fd_set_minus1>
  40784e:	48 83 c4 10          	add    $0x10,%rsp
  407852:	5d                   	pop    %rbp
  407853:	c3                   	ret    
  407854:	66 2e 0f 1f 84 00 00 	cs nopw 0x0(%rax,%rax,1)
  40785b:	00 00 00 
  40785e:	66 90                	xchg   %ax,%ax

0000000000407860 <reset_ints>:
  407860:	55                   	push   %rbp
  407861:	48 89 e5             	mov    %rsp,%rbp
  407864:	48 89 7d f8          	mov    %rdi,-0x8(%rbp)
  407868:	48 8b 45 f8          	mov    -0x8(%rbp),%rax
  40786c:	c7 40 18 00 00 00 00 	movl   $0x0,0x18(%rax)
  407873:	48 8b 45 f8          	mov    -0x8(%rbp),%rax
  407877:	c7 40 28 ff ff ff ff 	movl   $0xffffffff,0x28(%rax)
  40787e:	48 8b 45 f8          	mov    -0x8(%rbp),%rax
  407882:	c7 40 2c ff ff ff ff 	movl   $0xffffffff,0x2c(%rax)
  407889:	48 8b 45 f8          	mov    -0x8(%rbp),%rax
  40788d:	c7 40 40 ff ff ff ff 	movl   $0xffffffff,0x40(%rax)
  407894:	48 8b 45 f8          	mov    -0x8(%rbp),%rax
  407898:	c7 40 44 ff ff ff ff 	movl   $0xffffffff,0x44(%rax)
  40789f:	48 8b 45 f8          	mov    -0x8(%rbp),%rax
  4078a3:	c7 40 68 ff ff ff ff 	movl   $0xffffffff,0x68(%rax)
  4078aa:	48 8b 45 f8          	mov    -0x8(%rbp),%rax
  4078ae:	c7 80 94 00 00 00 ff 	movl   $0xffffffff,0x94(%rax)
  4078b5:	ff ff ff 
  4078b8:	48 8b 45 f8          	mov    -0x8(%rbp),%rax
  4078bc:	c7 40 64 ff ff ff ff 	movl   $0xffffffff,0x64(%rax)
  4078c3:	5d                   	pop    %rbp
  4078c4:	c3                   	ret    
  4078c5:	66 2e 0f 1f 84 00 00 	cs nopw 0x0(%rax,%rax,1)
  4078cc:	00 00 00 
  4078cf:	90                   	nop

00000000004078d0 <clean_up_env_vars>:
  4078d0:	55                   	push   %rbp
  4078d1:	48 89 e5             	mov    %rsp,%rbp
  4078d4:	48 83 ec 20          	sub    $0x20,%rsp
  4078d8:	48 89 7d f8          	mov    %rdi,-0x8(%rbp)
  4078dc:	48 8b 45 f8          	mov    -0x8(%rbp),%rax
  4078e0:	48 8b 80 80 00 00 00 	mov    0x80(%rax),%rax
  4078e7:	48 89 45 f0          	mov    %rax,-0x10(%rbp)
  4078eb:	48 83 7d f0 00       	cmpq   $0x0,-0x10(%rbp)
  4078f0:	0f 84 6f 00 00 00    	je     407965 <clean_up_env_vars+0x95>
  4078f6:	48 8b 45 f0          	mov    -0x10(%rbp),%rax
  4078fa:	48 8b 40 18          	mov    0x18(%rax),%rax
  4078fe:	48 89 45 e8          	mov    %rax,-0x18(%rbp)
  407902:	48 8b 45 f0          	mov    -0x10(%rbp),%rax
  407906:	48 83 38 00          	cmpq   $0x0,(%rax)
  40790a:	0f 84 0c 00 00 00    	je     40791c <clean_up_env_vars+0x4c>
  407910:	48 8b 45 f0          	mov    -0x10(%rbp),%rax
  407914:	48 8b 38             	mov    (%rax),%rdi
  407917:	e8 14 97 ff ff       	call   401030 <free@plt>
  40791c:	48 8b 45 f0          	mov    -0x10(%rbp),%rax
  407920:	48 c7 00 00 00 00 00 	movq   $0x0,(%rax)
  407927:	48 8b 45 f0          	mov    -0x10(%rbp),%rax
  40792b:	48 83 78 08 00       	cmpq   $0x0,0x8(%rax)
  407930:	0f 84 0d 00 00 00    	je     407943 <clean_up_env_vars+0x73>
  407936:	48 8b 45 f0          	mov    -0x10(%rbp),%rax
  40793a:	48 8b 78 08          	mov    0x8(%rax),%rdi
  40793e:	e8 ed 96 ff ff       	call   401030 <free@plt>
  407943:	48 8b 45 f0          	mov    -0x10(%rbp),%rax
  407947:	48 c7 40 08 00 00 00 	movq   $0x0,0x8(%rax)
  40794e:	00 
  40794f:	48 8b 7d f0          	mov    -0x10(%rbp),%rdi
  407953:	e8 d8 96 ff ff       	call   401030 <free@plt>
  407958:	48 8b 45 e8          	mov    -0x18(%rbp),%rax
  40795c:	48 89 45 f0          	mov    %rax,-0x10(%rbp)
  407960:	e9 86 ff ff ff       	jmp    4078eb <clean_up_env_vars+0x1b>
  407965:	48 8b 45 f8          	mov    -0x8(%rbp),%rax
  407969:	48 c7 80 80 00 00 00 	movq   $0x0,0x80(%rax)
  407970:	00 00 00 00 
  407974:	48 8b 45 f8          	mov    -0x8(%rbp),%rax
  407978:	48 83 b8 88 00 00 00 	cmpq   $0x0,0x88(%rax)
  40797f:	00 
  407980:	0f 84 10 00 00 00    	je     407996 <clean_up_env_vars+0xc6>
  407986:	48 8b 45 f8          	mov    -0x8(%rbp),%rax
  40798a:	48 8b b8 88 00 00 00 	mov    0x88(%rax),%rdi
  407991:	e8 6a 34 00 00       	call   40ae00 <ft_free_array>
  407996:	48 8b 45 f8          	mov    -0x8(%rbp),%rax
  40799a:	48 c7 80 88 00 00 00 	movq   $0x0,0x88(%rax)
  4079a1:	00 00 00 00 
  4079a5:	48 83 c4 20          	add    $0x20,%rsp
  4079a9:	5d                   	pop    %rbp
  4079aa:	c3                   	ret    
  4079ab:	0f 1f 44 00 00       	nopl   0x0(%rax,%rax,1)

00000000004079b0 <clean_up_data>:
  4079b0:	55                   	push   %rbp
  4079b1:	48 89 e5             	mov    %rsp,%rbp
  4079b4:	48 83 ec 10          	sub    $0x10,%rsp
  4079b8:	48 89 7d f8          	mov    %rdi,-0x8(%rbp)
  4079bc:	48 8b 45 f8          	mov    -0x8(%rbp),%rax
  4079c0:	48 83 38 00          	cmpq   $0x0,(%rax)
  4079c4:	0f 84 09 00 00 00    	je     4079d3 <clean_up_data+0x23>
  4079ca:	48 8b 7d f8          	mov    -0x8(%rbp),%rdi
  4079ce:	e8 1d fc ff ff       	call   4075f0 <exec_lstclear>
  4079d3:	48 8b 45 f8          	mov    -0x8(%rbp),%rax
  4079d7:	48 c7 00 00 00 00 00 	movq   $0x0,(%rax)
  4079de:	48 8b 45 f8          	mov    -0x8(%rbp),%rax
  4079e2:	48 83 78 08 00       	cmpq   $0x0,0x8(%rax)
  4079e7:	0f 84 0d 00 00 00    	je     4079fa <clean_up_data+0x4a>
  4079ed:	48 8b 7d f8          	mov    -0x8(%rbp),%rdi
  4079f1:	48 83 c7 08          	add    $0x8,%rdi
  4079f5:	e8 e6 fc ff ff       	call   4076e0 <token_node_lstclear>
  4079fa:	48 8b 45 f8          	mov    -0x8(%rbp),%rax
  4079fe:	48 c7 40 10 00 00 00 	movq   $0x0,0x10(%rax)
  407a05:	00 
  407a06:	48 8b 45 f8          	mov    -0x8(%rbp),%rax
  407a0a:	48 83 78 20 00       	cmpq   $0x0,0x20(%rax)
  407a0f:	0f 84 0d 00 00 00    	je     407a22 <clean_up_data+0x72>
  407a15:	48 8b 45 f8          	mov    -0x8(%rbp),%rax
  407a19:	48 8b 78 20          	mov    0x20(%rax),%rdi
  407a1d:	e8 0e 96 ff ff       	call   401030 <free@plt>
  407a22:	48 8b 45 f8          	mov    -0x8(%rbp),%rax
  407a26:	48 c7 40 20 00 00 00 	movq   $0x0,0x20(%rax)
  407a2d:	00 
  407a2e:	48 8b 45 f8          	mov    -0x8(%rbp),%rax
  407a32:	48 83 78 30 00       	cmpq   $0x0,0x30(%rax)
  407a37:	0f 84 0d 00 00 00    	je     407a4a <clean_up_data+0x9a>
  407a3d:	48 8b 45 f8          	mov    -0x8(%rbp),%rax
  407a41:	48 8b 78 30          	mov    0x30(%rax),%rdi
  407a45:	e8 b6 33 00 00       	call   40ae00 <ft_free_array>
  407a4a:	48 8b 45 f8          	mov    -0x8(%rbp),%rax
  407a4e:	48 c7 40 30 00 00 00 	movq   $0x0,0x30(%rax)
  407a55:	00 
  407a56:	48 8b 45 f8          	mov    -0x8(%rbp),%rax
  407a5a:	48 83 78 38 00       	cmpq   $0x0,0x38(%rax)
  407a5f:	0f 84 0d 00 00 00    	je     407a72 <clean_up_data+0xc2>
  407a65:	48 8b 45 f8          	mov    -0x8(%rbp),%rax
  407a69:	48 8b 78 38          	mov    0x38(%rax),%rdi
  407a6d:	e8 be 95 ff ff       	call   401030 <free@plt>
  407a72:	48 8b 45 f8          	mov    -0x8(%rbp),%rax
  407a76:	48 c7 40 38 00 00 00 	movq   $0x0,0x38(%rax)
  407a7d:	00 
  407a7e:	48 8b 45 f8          	mov    -0x8(%rbp),%rax
  407a82:	48 83 78 70 00       	cmpq   $0x0,0x70(%rax)
  407a87:	0f 84 0d 00 00 00    	je     407a9a <clean_up_data+0xea>
  407a8d:	48 8b 7d f8          	mov    -0x8(%rbp),%rdi
  407a91:	48 83 c7 70          	add    $0x70,%rdi
  407a95:	e8 36 f9 ff ff       	call   4073d0 <process_lstclear>
  407a9a:	48 8b 45 f8          	mov    -0x8(%rbp),%rax
  407a9e:	48 c7 40 70 00 00 00 	movq   $0x0,0x70(%rax)
  407aa5:	00 
  407aa6:	48 8b 45 f8          	mov    -0x8(%rbp),%rax
  407aaa:	48 c7 40 78 00 00 00 	movq   $0x0,0x78(%rax)
  407ab1:	00 
  407ab2:	48 8b 7d f8          	mov    -0x8(%rbp),%rdi
  407ab6:	e8 35 fd ff ff       	call   4077f0 <close_all_fds>
  407abb:	48 8b 45 f8          	mov    -0x8(%rbp),%rax
  407abf:	48 83 b8 98 00 00 00 	cmpq   $0x0,0x98(%rax)
  407ac6:	00 
  407ac7:	0f 84 09 00 00 00    	je     407ad6 <clean_up_data+0x126>
  407acd:	48 8b 7d f8          	mov    -0x8(%rbp),%rdi
  407ad1:	e8 2a 1d 00 00       	call   409800 <clear_thrash_list>
  407ad6:	48 8b 45 f8          	mov    -0x8(%rbp),%rax
  407ada:	48 c7 80 98 00 00 00 	movq   $0x0,0x98(%rax)
  407ae1:	00 00 00 00 
  407ae5:	48 8b 7d f8          	mov    -0x8(%rbp),%rdi
  407ae9:	e8 72 fd ff ff       	call   407860 <reset_ints>
  407aee:	48 83 c4 10          	add    $0x10,%rsp
  407af2:	5d                   	pop    %rbp
  407af3:	c3                   	ret    
  407af4:	66 2e 0f 1f 84 00 00 	cs nopw 0x0(%rax,%rax,1)
  407afb:	00 00 00 
  407afe:	66 90                	xchg   %ax,%ax

0000000000407b00 <snuff_it>:
  407b00:	55                   	push   %rbp
  407b01:	48 89 e5             	mov    %rsp,%rbp
  407b04:	48 83 ec 30          	sub    $0x30,%rsp
  407b08:	48 89 7d f8          	mov    %rdi,-0x8(%rbp)
  407b0c:	48 89 75 f0          	mov    %rsi,-0x10(%rbp)
  407b10:	48 89 55 e8          	mov    %rdx,-0x18(%rbp)
  407b14:	89 4d e4             	mov    %ecx,-0x1c(%rbp)
  407b17:	48 83 7d e8 00       	cmpq   $0x0,-0x18(%rbp)
  407b1c:	0f 84 3b 00 00 00    	je     407b5d <snuff_it+0x5d>
  407b22:	48 8b 45 e8          	mov    -0x18(%rbp),%rax
  407b26:	48 89 45 d8          	mov    %rax,-0x28(%rbp)
  407b2a:	48 8b 7d e8          	mov    -0x18(%rbp),%rdi
  407b2e:	e8 7d 28 00 00       	call   40a3b0 <ft_strlen>
  407b33:	48 8b 75 d8          	mov    -0x28(%rbp),%rsi
  407b37:	48 63 d0             	movslq %eax,%rdx
  407b3a:	bf 02 00 00 00       	mov    $0x2,%edi
  407b3f:	e8 1c 95 ff ff       	call   401060 <write@plt>
  407b44:	bf 02 00 00 00       	mov    $0x2,%edi
  407b49:	48 be 5a c0 40 00 00 	movabs $0x40c05a,%rsi
  407b50:	00 00 00 
  407b53:	ba 02 00 00 00       	mov    $0x2,%edx
  407b58:	e8 03 95 ff ff       	call   401060 <write@plt>
  407b5d:	48 8b 45 f0          	mov    -0x10(%rbp),%rax
  407b61:	48 89 45 d0          	mov    %rax,-0x30(%rbp)
  407b65:	48 8b 7d f0          	mov    -0x10(%rbp),%rdi
  407b69:	e8 42 28 00 00       	call   40a3b0 <ft_strlen>
  407b6e:	48 8b 75 d0          	mov    -0x30(%rbp),%rsi
  407b72:	48 63 d0             	movslq %eax,%rdx
  407b75:	bf 02 00 00 00       	mov    $0x2,%edi
  407b7a:	e8 e1 94 ff ff       	call   401060 <write@plt>
  407b7f:	48 8b 7d f8          	mov    -0x8(%rbp),%rdi
  407b83:	e8 28 fe ff ff       	call   4079b0 <clean_up_data>
  407b88:	48 8b 7d f8          	mov    -0x8(%rbp),%rdi
  407b8c:	e8 3f fd ff ff       	call   4078d0 <clean_up_env_vars>
  407b91:	48 8b 45 f8          	mov    -0x8(%rbp),%rax
  407b95:	48 8b b8 a0 00 00 00 	mov    0xa0(%rax),%rdi
  407b9c:	be 01 00 00 00       	mov    $0x1,%esi
  407ba1:	e8 1a 21 00 00       	call   409cc0 <free_hashtable>
  407ba6:	8b 7d e4             	mov    -0x1c(%rbp),%edi
  407ba9:	e8 02 96 ff ff       	call   4011b0 <exit@plt>
  407bae:	66 90                	xchg   %ax,%ax

0000000000407bb0 <exit_like_a_boss>:
  407bb0:	55                   	push   %rbp
  407bb1:	48 89 e5             	mov    %rsp,%rbp
  407bb4:	48 83 ec 10          	sub    $0x10,%rsp
  407bb8:	48 89 7d f8          	mov    %rdi,-0x8(%rbp)
  407bbc:	89 75 f4             	mov    %esi,-0xc(%rbp)
  407bbf:	48 8b 7d f8          	mov    -0x8(%rbp),%rdi
  407bc3:	e8 e8 fd ff ff       	call   4079b0 <clean_up_data>
  407bc8:	48 8b 7d f8          	mov    -0x8(%rbp),%rdi
  407bcc:	e8 ff fc ff ff       	call   4078d0 <clean_up_env_vars>
  407bd1:	48 8b 45 f8          	mov    -0x8(%rbp),%rax
  407bd5:	48 8b b8 a0 00 00 00 	mov    0xa0(%rax),%rdi
  407bdc:	be 01 00 00 00       	mov    $0x1,%esi
  407be1:	e8 da 20 00 00       	call   409cc0 <free_hashtable>
  407be6:	8b 7d f4             	mov    -0xc(%rbp),%edi
  407be9:	e8 c2 95 ff ff       	call   4011b0 <exit@plt>
  407bee:	66 90                	xchg   %ax,%ax

0000000000407bf0 <is_builtin>:
  407bf0:	55                   	push   %rbp
  407bf1:	48 89 e5             	mov    %rsp,%rbp
  407bf4:	48 83 ec 10          	sub    $0x10,%rsp
  407bf8:	48 89 7d f0          	mov    %rdi,-0x10(%rbp)
  407bfc:	48 8b 7d f0          	mov    -0x10(%rbp),%rdi
  407c00:	48 be 0d ca 40 00 00 	movabs $0x40ca0d,%rsi
  407c07:	00 00 00 
  407c0a:	e8 31 2b 00 00       	call   40a740 <ft_strcmp>
  407c0f:	83 f8 00             	cmp    $0x0,%eax
  407c12:	0f 84 a8 00 00 00    	je     407cc0 <is_builtin+0xd0>
  407c18:	48 8b 7d f0          	mov    -0x10(%rbp),%rdi
  407c1c:	48 be 10 ca 40 00 00 	movabs $0x40ca10,%rsi
  407c23:	00 00 00 
  407c26:	e8 15 2b 00 00       	call   40a740 <ft_strcmp>
  407c2b:	83 f8 00             	cmp    $0x0,%eax
  407c2e:	0f 84 8c 00 00 00    	je     407cc0 <is_builtin+0xd0>
  407c34:	48 8b 7d f0          	mov    -0x10(%rbp),%rdi
  407c38:	48 be 15 ca 40 00 00 	movabs $0x40ca15,%rsi
  407c3f:	00 00 00 
  407c42:	e8 f9 2a 00 00       	call   40a740 <ft_strcmp>
  407c47:	83 f8 00             	cmp    $0x0,%eax
  407c4a:	0f 84 70 00 00 00    	je     407cc0 <is_builtin+0xd0>
  407c50:	48 8b 7d f0          	mov    -0x10(%rbp),%rdi
  407c54:	48 be 73 c8 40 00 00 	movabs $0x40c873,%rsi
  407c5b:	00 00 00 
  407c5e:	e8 dd 2a 00 00       	call   40a740 <ft_strcmp>
  407c63:	83 f8 00             	cmp    $0x0,%eax
  407c66:	0f 84 54 00 00 00    	je     407cc0 <is_builtin+0xd0>
  407c6c:	48 8b 7d f0          	mov    -0x10(%rbp),%rdi
  407c70:	48 be 5a c1 40 00 00 	movabs $0x40c15a,%rsi
  407c77:	00 00 00 
  407c7a:	e8 c1 2a 00 00       	call   40a740 <ft_strcmp>
  407c7f:	83 f8 00             	cmp    $0x0,%eax
  407c82:	0f 84 38 00 00 00    	je     407cc0 <is_builtin+0xd0>
  407c88:	48 8b 7d f0          	mov    -0x10(%rbp),%rdi
  407c8c:	48 be 19 ca 40 00 00 	movabs $0x40ca19,%rsi
  407c93:	00 00 00 
  407c96:	e8 a5 2a 00 00       	call   40a740 <ft_strcmp>
  407c9b:	83 f8 00             	cmp    $0x0,%eax
  407c9e:	0f 84 1c 00 00 00    	je     407cc0 <is_builtin+0xd0>
  407ca4:	48 8b 7d f0          	mov    -0x10(%rbp),%rdi
  407ca8:	48 be 1d ca 40 00 00 	movabs $0x40ca1d,%rsi
  407caf:	00 00 00 
  407cb2:	e8 89 2a 00 00       	call   40a740 <ft_strcmp>
  407cb7:	83 f8 00             	cmp    $0x0,%eax
  407cba:	0f 85 0c 00 00 00    	jne    407ccc <is_builtin+0xdc>
  407cc0:	c7 45 fc 01 00 00 00 	movl   $0x1,-0x4(%rbp)
  407cc7:	e9 07 00 00 00       	jmp    407cd3 <is_builtin+0xe3>
  407ccc:	c7 45 fc 00 00 00 00 	movl   $0x0,-0x4(%rbp)
  407cd3:	8b 45 fc             	mov    -0x4(%rbp),%eax
  407cd6:	48 83 c4 10          	add    $0x10,%rsp
  407cda:	5d                   	pop    %rbp
  407cdb:	c3                   	ret    
  407cdc:	0f 1f 40 00          	nopl   0x0(%rax)

0000000000407ce0 <execute_builtin>:
  407ce0:	55                   	push   %rbp
  407ce1:	48 89 e5             	mov    %rsp,%rbp
  407ce4:	48 83 ec 30          	sub    $0x30,%rsp
  407ce8:	48 89 7d f0          	mov    %rdi,-0x10(%rbp)
  407cec:	48 89 75 e8          	mov    %rsi,-0x18(%rbp)
  407cf0:	48 89 55 e0          	mov    %rdx,-0x20(%rbp)
  407cf4:	48 8b 7d e0          	mov    -0x20(%rbp),%rdi
  407cf8:	48 be 0d ca 40 00 00 	movabs $0x40ca0d,%rsi
  407cff:	00 00 00 
  407d02:	e8 39 2a 00 00       	call   40a740 <ft_strcmp>
  407d07:	83 f8 00             	cmp    $0x0,%eax
  407d0a:	0f 85 1d 00 00 00    	jne    407d2d <execute_builtin+0x4d>
  407d10:	48 8b 7d f0          	mov    -0x10(%rbp),%rdi
  407d14:	48 8b 45 e8          	mov    -0x18(%rbp),%rax
  407d18:	48 8b 00             	mov    (%rax),%rax
  407d1b:	48 8b 40 10          	mov    0x10(%rax),%rax
  407d1f:	48 8b 70 08          	mov    0x8(%rax),%rsi
  407d23:	e8 58 05 00 00       	call   408280 <execute_cd>
  407d28:	e9 65 01 00 00       	jmp    407e92 <execute_builtin+0x1b2>
  407d2d:	48 8b 7d e0          	mov    -0x20(%rbp),%rdi
  407d31:	48 be 10 ca 40 00 00 	movabs $0x40ca10,%rsi
  407d38:	00 00 00 
  407d3b:	e8 00 2a 00 00       	call   40a740 <ft_strcmp>
  407d40:	83 f8 00             	cmp    $0x0,%eax
  407d43:	0f 85 19 00 00 00    	jne    407d62 <execute_builtin+0x82>
  407d49:	48 8b 7d e8          	mov    -0x18(%rbp),%rdi
  407d4d:	e8 0e 10 00 00       	call   408d60 <execute_echo>
  407d52:	48 8b 45 f0          	mov    -0x10(%rbp),%rax
  407d56:	c7 40 6c 00 00 00 00 	movl   $0x0,0x6c(%rax)
  407d5d:	e9 2b 01 00 00       	jmp    407e8d <execute_builtin+0x1ad>
  407d62:	48 8b 7d e0          	mov    -0x20(%rbp),%rdi
  407d66:	48 be 15 ca 40 00 00 	movabs $0x40ca15,%rsi
  407d6d:	00 00 00 
  407d70:	e8 cb 29 00 00       	call   40a740 <ft_strcmp>
  407d75:	83 f8 00             	cmp    $0x0,%eax
  407d78:	0f 85 19 00 00 00    	jne    407d97 <execute_builtin+0xb7>
  407d7e:	48 8b 7d f0          	mov    -0x10(%rbp),%rdi
  407d82:	48 8b 45 e8          	mov    -0x18(%rbp),%rax
  407d86:	48 8b 00             	mov    (%rax),%rax
  407d89:	48 8b 70 10          	mov    0x10(%rax),%rsi
  407d8d:	e8 6e 11 00 00       	call   408f00 <execute_env>
  407d92:	e9 f1 00 00 00       	jmp    407e88 <execute_builtin+0x1a8>
  407d97:	48 8b 7d e0          	mov    -0x20(%rbp),%rdi
  407d9b:	48 be 73 c8 40 00 00 	movabs $0x40c873,%rsi
  407da2:	00 00 00 
  407da5:	e8 96 29 00 00       	call   40a740 <ft_strcmp>
  407daa:	83 f8 00             	cmp    $0x0,%eax
  407dad:	0f 85 19 00 00 00    	jne    407dcc <execute_builtin+0xec>
  407db3:	48 8b 7d f0          	mov    -0x10(%rbp),%rdi
  407db7:	48 8b 45 e8          	mov    -0x18(%rbp),%rax
  407dbb:	48 8b 00             	mov    (%rax),%rax
  407dbe:	48 8b 70 10          	mov    0x10(%rax),%rsi
  407dc2:	e8 19 12 00 00       	call   408fe0 <execute_exit>
  407dc7:	e9 b7 00 00 00       	jmp    407e83 <execute_builtin+0x1a3>
  407dcc:	48 8b 7d e0          	mov    -0x20(%rbp),%rdi
  407dd0:	48 be 5a c1 40 00 00 	movabs $0x40c15a,%rsi
  407dd7:	00 00 00 
  407dda:	e8 61 29 00 00       	call   40a740 <ft_strcmp>
  407ddf:	83 f8 00             	cmp    $0x0,%eax
  407de2:	0f 85 19 00 00 00    	jne    407e01 <execute_builtin+0x121>
  407de8:	48 8b 7d f0          	mov    -0x10(%rbp),%rdi
  407dec:	48 8b 45 e8          	mov    -0x18(%rbp),%rax
  407df0:	48 8b 00             	mov    (%rax),%rax
  407df3:	48 8b 70 10          	mov    0x10(%rax),%rsi
  407df7:	e8 84 07 00 00       	call   408580 <execute_export>
  407dfc:	e9 7d 00 00 00       	jmp    407e7e <execute_builtin+0x19e>
  407e01:	48 8b 7d e0          	mov    -0x20(%rbp),%rdi
  407e05:	48 be 19 ca 40 00 00 	movabs $0x40ca19,%rsi
  407e0c:	00 00 00 
  407e0f:	e8 2c 29 00 00       	call   40a740 <ft_strcmp>
  407e14:	83 f8 00             	cmp    $0x0,%eax
  407e17:	0f 85 0e 00 00 00    	jne    407e2b <execute_builtin+0x14b>
  407e1d:	48 8b 7d f0          	mov    -0x10(%rbp),%rdi
  407e21:	e8 1a 13 00 00       	call   409140 <execute_pwd>
  407e26:	e9 4e 00 00 00       	jmp    407e79 <execute_builtin+0x199>
  407e2b:	48 8b 7d e0          	mov    -0x20(%rbp),%rdi
  407e2f:	48 be 1d ca 40 00 00 	movabs $0x40ca1d,%rsi
  407e36:	00 00 00 
  407e39:	e8 02 29 00 00       	call   40a740 <ft_strcmp>
  407e3e:	83 f8 00             	cmp    $0x0,%eax
  407e41:	0f 85 21 00 00 00    	jne    407e68 <execute_builtin+0x188>
  407e47:	48 8b 45 e8          	mov    -0x18(%rbp),%rax
  407e4b:	48 8b 00             	mov    (%rax),%rax
  407e4e:	48 8b 40 10          	mov    0x10(%rax),%rax
  407e52:	48 89 45 d8          	mov    %rax,-0x28(%rbp)
  407e56:	48 8b 7d f0          	mov    -0x10(%rbp),%rdi
  407e5a:	48 8b 75 d8          	mov    -0x28(%rbp),%rsi
  407e5e:	e8 4d 00 00 00       	call   407eb0 <execute_unset>
  407e63:	e9 0c 00 00 00       	jmp    407e74 <execute_builtin+0x194>
  407e68:	c7 45 fc 01 00 00 00 	movl   $0x1,-0x4(%rbp)
  407e6f:	e9 25 00 00 00       	jmp    407e99 <execute_builtin+0x1b9>
  407e74:	e9 00 00 00 00       	jmp    407e79 <execute_builtin+0x199>
  407e79:	e9 00 00 00 00       	jmp    407e7e <execute_builtin+0x19e>
  407e7e:	e9 00 00 00 00       	jmp    407e83 <execute_builtin+0x1a3>
  407e83:	e9 00 00 00 00       	jmp    407e88 <execute_builtin+0x1a8>
  407e88:	e9 00 00 00 00       	jmp    407e8d <execute_builtin+0x1ad>
  407e8d:	e9 00 00 00 00       	jmp    407e92 <execute_builtin+0x1b2>
  407e92:	c7 45 fc 00 00 00 00 	movl   $0x0,-0x4(%rbp)
  407e99:	8b 45 fc             	mov    -0x4(%rbp),%eax
  407e9c:	48 83 c4 30          	add    $0x30,%rsp
  407ea0:	5d                   	pop    %rbp
  407ea1:	c3                   	ret    
  407ea2:	66 2e 0f 1f 84 00 00 	cs nopw 0x0(%rax,%rax,1)
  407ea9:	00 00 00 
  407eac:	0f 1f 40 00          	nopl   0x0(%rax)

0000000000407eb0 <execute_unset>:
  407eb0:	55                   	push   %rbp
  407eb1:	48 89 e5             	mov    %rsp,%rbp
  407eb4:	48 83 ec 20          	sub    $0x20,%rsp
  407eb8:	48 89 7d f8          	mov    %rdi,-0x8(%rbp)
  407ebc:	48 89 75 f0          	mov    %rsi,-0x10(%rbp)
  407ec0:	c7 45 ec 00 00 00 00 	movl   $0x0,-0x14(%rbp)
  407ec7:	48 8b 45 f0          	mov    -0x10(%rbp),%rax
  407ecb:	48 83 78 08 00       	cmpq   $0x0,0x8(%rax)
  407ed0:	0f 85 21 00 00 00    	jne    407ef7 <execute_unset+0x47>
  407ed6:	48 8b 7d f8          	mov    -0x8(%rbp),%rdi
  407eda:	48 be 23 ca 40 00 00 	movabs $0x40ca23,%rsi
  407ee1:	00 00 00 
  407ee4:	31 c0                	xor    %eax,%eax
  407ee6:	89 c2                	mov    %eax,%edx
  407ee8:	b9 01 00 00 00       	mov    $0x1,%ecx
  407eed:	e8 be 96 ff ff       	call   4015b0 <boo>
  407ef2:	e9 7c 00 00 00       	jmp    407f73 <execute_unset+0xc3>
  407ef7:	e9 00 00 00 00       	jmp    407efc <execute_unset+0x4c>
  407efc:	48 8b 45 f0          	mov    -0x10(%rbp),%rax
  407f00:	48 63 4d ec          	movslq -0x14(%rbp),%rcx
  407f04:	48 83 3c c8 00       	cmpq   $0x0,(%rax,%rcx,8)
  407f09:	0f 84 59 00 00 00    	je     407f68 <execute_unset+0xb8>
  407f0f:	48 8b 45 f0          	mov    -0x10(%rbp),%rax
  407f13:	48 63 4d ec          	movslq -0x14(%rbp),%rcx
  407f17:	48 8b 3c c8          	mov    (%rax,%rcx,8),%rdi
  407f1b:	48 be 40 ca 40 00 00 	movabs $0x40ca40,%rsi
  407f22:	00 00 00 
  407f25:	e8 16 28 00 00       	call   40a740 <ft_strcmp>
  407f2a:	83 f8 00             	cmp    $0x0,%eax
  407f2d:	0f 85 12 00 00 00    	jne    407f45 <execute_unset+0x95>
  407f33:	48 8b 45 f8          	mov    -0x8(%rbp),%rax
  407f37:	48 8b b8 a0 00 00 00 	mov    0xa0(%rax),%rdi
  407f3e:	31 f6                	xor    %esi,%esi
  407f40:	e8 7b 1d 00 00       	call   409cc0 <free_hashtable>
  407f45:	48 8b 7d f8          	mov    -0x8(%rbp),%rdi
  407f49:	48 8b 45 f0          	mov    -0x10(%rbp),%rax
  407f4d:	48 63 4d ec          	movslq -0x14(%rbp),%rcx
  407f51:	48 8b 34 c8          	mov    (%rax,%rcx,8),%rsi
  407f55:	e8 26 00 00 00       	call   407f80 <remove_from_env>
  407f5a:	8b 45 ec             	mov    -0x14(%rbp),%eax
  407f5d:	83 c0 01             	add    $0x1,%eax
  407f60:	89 45 ec             	mov    %eax,-0x14(%rbp)
  407f63:	e9 94 ff ff ff       	jmp    407efc <execute_unset+0x4c>
  407f68:	48 8b 45 f8          	mov    -0x8(%rbp),%rax
  407f6c:	c7 40 6c 00 00 00 00 	movl   $0x0,0x6c(%rax)
  407f73:	48 83 c4 20          	add    $0x20,%rsp
  407f77:	5d                   	pop    %rbp
  407f78:	c3                   	ret    
  407f79:	0f 1f 80 00 00 00 00 	nopl   0x0(%rax)

0000000000407f80 <remove_from_env>:
  407f80:	55                   	push   %rbp
  407f81:	48 89 e5             	mov    %rsp,%rbp
  407f84:	48 83 ec 40          	sub    $0x40,%rsp
  407f88:	48 89 7d f8          	mov    %rdi,-0x8(%rbp)
  407f8c:	48 89 75 f0          	mov    %rsi,-0x10(%rbp)
  407f90:	c7 45 ec 00 00 00 00 	movl   $0x0,-0x14(%rbp)
  407f97:	48 8b 4d f8          	mov    -0x8(%rbp),%rcx
  407f9b:	31 c0                	xor    %eax,%eax
  407f9d:	48 83 b9 88 00 00 00 	cmpq   $0x0,0x88(%rcx)
  407fa4:	00 
  407fa5:	88 45 eb             	mov    %al,-0x15(%rbp)
  407fa8:	0f 84 1a 00 00 00    	je     407fc8 <remove_from_env+0x48>
  407fae:	48 8b 45 f8          	mov    -0x8(%rbp),%rax
  407fb2:	48 8b 80 88 00 00 00 	mov    0x88(%rax),%rax
  407fb9:	48 63 4d ec          	movslq -0x14(%rbp),%rcx
  407fbd:	48 83 3c c8 00       	cmpq   $0x0,(%rax,%rcx,8)
  407fc2:	0f 95 c0             	setne  %al
  407fc5:	88 45 eb             	mov    %al,-0x15(%rbp)
  407fc8:	8a 45 eb             	mov    -0x15(%rbp),%al
  407fcb:	a8 01                	test   $0x1,%al
  407fcd:	0f 85 05 00 00 00    	jne    407fd8 <remove_from_env+0x58>
  407fd3:	e9 37 01 00 00       	jmp    40810f <remove_from_env+0x18f>
  407fd8:	48 8b 45 f8          	mov    -0x8(%rbp),%rax
  407fdc:	48 8b 80 88 00 00 00 	mov    0x88(%rax),%rax
  407fe3:	48 63 4d ec          	movslq -0x14(%rbp),%rcx
  407fe7:	48 8b 04 c8          	mov    (%rax,%rcx,8),%rax
  407feb:	48 89 45 d8          	mov    %rax,-0x28(%rbp)
  407fef:	48 8b 45 f0          	mov    -0x10(%rbp),%rax
  407ff3:	48 89 45 e0          	mov    %rax,-0x20(%rbp)
  407ff7:	48 8b 7d f0          	mov    -0x10(%rbp),%rdi
  407ffb:	e8 b0 23 00 00       	call   40a3b0 <ft_strlen>
  408000:	48 8b 7d d8          	mov    -0x28(%rbp),%rdi
  408004:	48 8b 75 e0          	mov    -0x20(%rbp),%rsi
  408008:	89 c2                	mov    %eax,%edx
  40800a:	e8 f1 27 00 00       	call   40a800 <ft_strncmp>
  40800f:	83 f8 00             	cmp    $0x0,%eax
  408012:	0f 85 e9 00 00 00    	jne    408101 <remove_from_env+0x181>
  408018:	48 8b 45 f8          	mov    -0x8(%rbp),%rax
  40801c:	48 8b 80 88 00 00 00 	mov    0x88(%rax),%rax
  408023:	48 63 4d ec          	movslq -0x14(%rbp),%rcx
  408027:	48 8b 04 c8          	mov    (%rax,%rcx,8),%rax
  40802b:	48 89 45 d0          	mov    %rax,-0x30(%rbp)
  40802f:	48 8b 7d f0          	mov    -0x10(%rbp),%rdi
  408033:	e8 78 23 00 00       	call   40a3b0 <ft_strlen>
  408038:	89 c1                	mov    %eax,%ecx
  40803a:	48 8b 45 d0          	mov    -0x30(%rbp),%rax
  40803e:	48 63 c9             	movslq %ecx,%rcx
  408041:	0f be 04 08          	movsbl (%rax,%rcx,1),%eax
  408045:	83 f8 3d             	cmp    $0x3d,%eax
  408048:	0f 85 b3 00 00 00    	jne    408101 <remove_from_env+0x181>
  40804e:	48 8b 45 f8          	mov    -0x8(%rbp),%rax
  408052:	48 8b 80 88 00 00 00 	mov    0x88(%rax),%rax
  408059:	48 63 4d ec          	movslq -0x14(%rbp),%rcx
  40805d:	48 8b 3c c8          	mov    (%rax,%rcx,8),%rdi
  408061:	e8 ca 8f ff ff       	call   401030 <free@plt>
  408066:	48 8b 4d f8          	mov    -0x8(%rbp),%rcx
  40806a:	31 c0                	xor    %eax,%eax
  40806c:	48 83 b9 88 00 00 00 	cmpq   $0x0,0x88(%rcx)
  408073:	00 
  408074:	88 45 cf             	mov    %al,-0x31(%rbp)
  408077:	0f 84 1f 00 00 00    	je     40809c <remove_from_env+0x11c>
  40807d:	48 8b 45 f8          	mov    -0x8(%rbp),%rax
  408081:	48 8b 80 88 00 00 00 	mov    0x88(%rax),%rax
  408088:	8b 4d ec             	mov    -0x14(%rbp),%ecx
  40808b:	83 c1 01             	add    $0x1,%ecx
  40808e:	48 63 c9             	movslq %ecx,%rcx
  408091:	48 83 3c c8 00       	cmpq   $0x0,(%rax,%rcx,8)
  408096:	0f 95 c0             	setne  %al
  408099:	88 45 cf             	mov    %al,-0x31(%rbp)
  40809c:	8a 45 cf             	mov    -0x31(%rbp),%al
  40809f:	a8 01                	test   $0x1,%al
  4080a1:	0f 85 05 00 00 00    	jne    4080ac <remove_from_env+0x12c>
  4080a7:	e9 39 00 00 00       	jmp    4080e5 <remove_from_env+0x165>
  4080ac:	48 8b 45 f8          	mov    -0x8(%rbp),%rax
  4080b0:	48 8b 80 88 00 00 00 	mov    0x88(%rax),%rax
  4080b7:	8b 4d ec             	mov    -0x14(%rbp),%ecx
  4080ba:	83 c1 01             	add    $0x1,%ecx
  4080bd:	48 63 c9             	movslq %ecx,%rcx
  4080c0:	48 8b 14 c8          	mov    (%rax,%rcx,8),%rdx
  4080c4:	48 8b 45 f8          	mov    -0x8(%rbp),%rax
  4080c8:	48 8b 80 88 00 00 00 	mov    0x88(%rax),%rax
  4080cf:	48 63 4d ec          	movslq -0x14(%rbp),%rcx
  4080d3:	48 89 14 c8          	mov    %rdx,(%rax,%rcx,8)
  4080d7:	8b 45 ec             	mov    -0x14(%rbp),%eax
  4080da:	83 c0 01             	add    $0x1,%eax
  4080dd:	89 45 ec             	mov    %eax,-0x14(%rbp)
  4080e0:	e9 81 ff ff ff       	jmp    408066 <remove_from_env+0xe6>
  4080e5:	48 8b 45 f8          	mov    -0x8(%rbp),%rax
  4080e9:	48 8b 80 88 00 00 00 	mov    0x88(%rax),%rax
  4080f0:	48 63 4d ec          	movslq -0x14(%rbp),%rcx
  4080f4:	48 c7 04 c8 00 00 00 	movq   $0x0,(%rax,%rcx,8)
  4080fb:	00 
  4080fc:	e9 0e 00 00 00       	jmp    40810f <remove_from_env+0x18f>
  408101:	8b 45 ec             	mov    -0x14(%rbp),%eax
  408104:	83 c0 01             	add    $0x1,%eax
  408107:	89 45 ec             	mov    %eax,-0x14(%rbp)
  40810a:	e9 88 fe ff ff       	jmp    407f97 <remove_from_env+0x17>
  40810f:	48 83 c4 40          	add    $0x40,%rsp
  408113:	5d                   	pop    %rbp
  408114:	c3                   	ret    
  408115:	66 2e 0f 1f 84 00 00 	cs nopw 0x0(%rax,%rax,1)
  40811c:	00 00 00 
  40811f:	90                   	nop

0000000000408120 <update_env_vars>:
  408120:	55                   	push   %rbp
  408121:	48 89 e5             	mov    %rsp,%rbp
  408124:	48 81 ec 50 10 00 00 	sub    $0x1050,%rsp
  40812b:	48 89 7d f8          	mov    %rdi,-0x8(%rbp)
  40812f:	48 89 75 f0          	mov    %rsi,-0x10(%rbp)
  408133:	48 8b 75 f0          	mov    -0x10(%rbp),%rsi
  408137:	48 bf 45 ca 40 00 00 	movabs $0x40ca45,%rdi
  40813e:	00 00 00 
  408141:	e8 6a 2e 00 00       	call   40afb0 <ft_strjoin>
  408146:	48 89 85 e8 ef ff ff 	mov    %rax,-0x1018(%rbp)
  40814d:	48 83 bd e8 ef ff ff 	cmpq   $0x0,-0x1018(%rbp)
  408154:	00 
  408155:	0f 85 1c 00 00 00    	jne    408177 <update_env_vars+0x57>
  40815b:	48 8b 7d f8          	mov    -0x8(%rbp),%rdi
  40815f:	48 be 4d ca 40 00 00 	movabs $0x40ca4d,%rsi
  408166:	00 00 00 
  408169:	31 c0                	xor    %eax,%eax
  40816b:	89 c2                	mov    %eax,%edx
  40816d:	b9 ff 00 00 00       	mov    $0xff,%ecx
  408172:	e8 89 f9 ff ff       	call   407b00 <snuff_it>
  408177:	48 8b 7d f8          	mov    -0x8(%rbp),%rdi
  40817b:	48 b8 5a c1 40 00 00 	movabs $0x40c15a,%rax
  408182:	00 00 00 
  408185:	48 89 85 d0 ef ff ff 	mov    %rax,-0x1030(%rbp)
  40818c:	48 8b 85 e8 ef ff ff 	mov    -0x1018(%rbp),%rax
  408193:	48 89 85 d8 ef ff ff 	mov    %rax,-0x1028(%rbp)
  40819a:	48 c7 85 e0 ef ff ff 	movq   $0x0,-0x1020(%rbp)
  4081a1:	00 00 00 00 
  4081a5:	48 8d b5 d0 ef ff ff 	lea    -0x1030(%rbp),%rsi
  4081ac:	e8 cf 03 00 00       	call   408580 <execute_export>
  4081b1:	48 8d bd f0 ef ff ff 	lea    -0x1010(%rbp),%rdi
  4081b8:	be 00 10 00 00       	mov    $0x1000,%esi
  4081bd:	e8 fe 8e ff ff       	call   4010c0 <getcwd@plt>
  4081c2:	48 83 f8 00          	cmp    $0x0,%rax
  4081c6:	0f 84 91 00 00 00    	je     40825d <update_env_vars+0x13d>
  4081cc:	48 8d b5 f0 ef ff ff 	lea    -0x1010(%rbp),%rsi
  4081d3:	48 bf 48 ca 40 00 00 	movabs $0x40ca48,%rdi
  4081da:	00 00 00 
  4081dd:	e8 ce 2d 00 00       	call   40afb0 <ft_strjoin>
  4081e2:	48 89 85 e8 ef ff ff 	mov    %rax,-0x1018(%rbp)
  4081e9:	48 83 bd e8 ef ff ff 	cmpq   $0x0,-0x1018(%rbp)
  4081f0:	00 
  4081f1:	0f 85 1c 00 00 00    	jne    408213 <update_env_vars+0xf3>
  4081f7:	48 8b 7d f8          	mov    -0x8(%rbp),%rdi
  4081fb:	48 be 4d ca 40 00 00 	movabs $0x40ca4d,%rsi
  408202:	00 00 00 
  408205:	31 c0                	xor    %eax,%eax
  408207:	89 c2                	mov    %eax,%edx
  408209:	b9 ff 00 00 00       	mov    $0xff,%ecx
  40820e:	e8 ed f8 ff ff       	call   407b00 <snuff_it>
  408213:	48 8b 7d f8          	mov    -0x8(%rbp),%rdi
  408217:	48 b8 5a c1 40 00 00 	movabs $0x40c15a,%rax
  40821e:	00 00 00 
  408221:	48 89 85 b8 ef ff ff 	mov    %rax,-0x1048(%rbp)
  408228:	48 8b 85 e8 ef ff ff 	mov    -0x1018(%rbp),%rax
  40822f:	48 89 85 c0 ef ff ff 	mov    %rax,-0x1040(%rbp)
  408236:	48 c7 85 c8 ef ff ff 	movq   $0x0,-0x1038(%rbp)
  40823d:	00 00 00 00 
  408241:	48 8d b5 b8 ef ff ff 	lea    -0x1048(%rbp),%rsi
  408248:	e8 33 03 00 00       	call   408580 <execute_export>
  40824d:	48 8b 45 f8          	mov    -0x8(%rbp),%rax
  408251:	c7 40 6c 00 00 00 00 	movl   $0x0,0x6c(%rax)
  408258:	e9 1a 00 00 00       	jmp    408277 <update_env_vars+0x157>
  40825d:	48 bf 0d ca 40 00 00 	movabs $0x40ca0d,%rdi
  408264:	00 00 00 
  408267:	e8 24 8f ff ff       	call   401190 <perror@plt>
  40826c:	48 8b 45 f8          	mov    -0x8(%rbp),%rax
  408270:	c7 40 6c 01 00 00 00 	movl   $0x1,0x6c(%rax)
  408277:	48 81 c4 50 10 00 00 	add    $0x1050,%rsp
  40827e:	5d                   	pop    %rbp
  40827f:	c3                   	ret    

0000000000408280 <execute_cd>:
  408280:	55                   	push   %rbp
  408281:	48 89 e5             	mov    %rsp,%rbp
  408284:	48 83 ec 20          	sub    $0x20,%rsp
  408288:	48 89 7d f8          	mov    %rdi,-0x8(%rbp)
  40828c:	48 89 75 f0          	mov    %rsi,-0x10(%rbp)
  408290:	48 83 7d f0 00       	cmpq   $0x0,-0x10(%rbp)
  408295:	0f 84 38 00 00 00    	je     4082d3 <execute_cd+0x53>
  40829b:	48 8b 7d f0          	mov    -0x10(%rbp),%rdi
  40829f:	48 be d6 c1 40 00 00 	movabs $0x40c1d6,%rsi
  4082a6:	00 00 00 
  4082a9:	e8 92 24 00 00       	call   40a740 <ft_strcmp>
  4082ae:	83 f8 00             	cmp    $0x0,%eax
  4082b1:	0f 84 1c 00 00 00    	je     4082d3 <execute_cd+0x53>
  4082b7:	48 8b 7d f0          	mov    -0x10(%rbp),%rdi
  4082bb:	48 be 6c ca 40 00 00 	movabs $0x40ca6c,%rsi
  4082c2:	00 00 00 
  4082c5:	e8 76 24 00 00       	call   40a740 <ft_strcmp>
  4082ca:	83 f8 00             	cmp    $0x0,%eax
  4082cd:	0f 85 61 00 00 00    	jne    408334 <execute_cd+0xb4>
  4082d3:	48 8b 7d f8          	mov    -0x8(%rbp),%rdi
  4082d7:	48 be 6c ca 40 00 00 	movabs $0x40ca6c,%rsi
  4082de:	00 00 00 
  4082e1:	e8 9a 93 ff ff       	call   401680 <ft_getenv>
  4082e6:	48 89 45 e8          	mov    %rax,-0x18(%rbp)
  4082ea:	48 83 7d e8 00       	cmpq   $0x0,-0x18(%rbp)
  4082ef:	0f 85 2c 00 00 00    	jne    408321 <execute_cd+0xa1>
  4082f5:	48 8b 7d f8          	mov    -0x8(%rbp),%rdi
  4082f9:	48 be 71 ca 40 00 00 	movabs $0x40ca71,%rsi
  408300:	00 00 00 
  408303:	31 c0                	xor    %eax,%eax
  408305:	89 c2                	mov    %eax,%edx
  408307:	b9 01 00 00 00       	mov    $0x1,%ecx
  40830c:	e8 9f 92 ff ff       	call   4015b0 <boo>
  408311:	48 8b 45 f8          	mov    -0x8(%rbp),%rax
  408315:	c7 40 6c 01 00 00 00 	movl   $0x1,0x6c(%rax)
  40831c:	e9 51 00 00 00       	jmp    408372 <execute_cd+0xf2>
  408321:	48 8b 45 e8          	mov    -0x18(%rbp),%rax
  408325:	48 89 45 f0          	mov    %rax,-0x10(%rbp)
  408329:	48 8b 45 f8          	mov    -0x8(%rbp),%rax
  40832d:	c7 40 6c 00 00 00 00 	movl   $0x0,0x6c(%rax)
  408334:	48 8b 7d f0          	mov    -0x10(%rbp),%rdi
  408338:	e8 33 8d ff ff       	call   401070 <chdir@plt>
  40833d:	83 f8 ff             	cmp    $0xffffffff,%eax
  408340:	0f 85 1f 00 00 00    	jne    408365 <execute_cd+0xe5>
  408346:	48 bf 0d ca 40 00 00 	movabs $0x40ca0d,%rdi
  40834d:	00 00 00 
  408350:	e8 3b 8e ff ff       	call   401190 <perror@plt>
  408355:	48 8b 45 f8          	mov    -0x8(%rbp),%rax
  408359:	c7 40 6c 01 00 00 00 	movl   $0x1,0x6c(%rax)
  408360:	e9 0d 00 00 00       	jmp    408372 <execute_cd+0xf2>
  408365:	48 8b 7d f8          	mov    -0x8(%rbp),%rdi
  408369:	48 8b 75 f0          	mov    -0x10(%rbp),%rsi
  40836d:	e8 ae fd ff ff       	call   408120 <update_env_vars>
  408372:	48 83 c4 20          	add    $0x20,%rsp
  408376:	5d                   	pop    %rbp
  408377:	c3                   	ret    
  408378:	0f 1f 84 00 00 00 00 	nopl   0x0(%rax,%rax,1)
  40837f:	00 

0000000000408380 <get_or_duplicate_value>:
  408380:	55                   	push   %rbp
  408381:	48 89 e5             	mov    %rsp,%rbp
  408384:	48 83 ec 30          	sub    $0x30,%rsp
  408388:	48 89 7d f0          	mov    %rdi,-0x10(%rbp)
  40838c:	48 89 75 e8          	mov    %rsi,-0x18(%rbp)
  408390:	48 89 55 e0          	mov    %rdx,-0x20(%rbp)
  408394:	48 83 7d e0 00       	cmpq   $0x0,-0x20(%rbp)
  408399:	0f 85 2e 00 00 00    	jne    4083cd <get_or_duplicate_value+0x4d>
  40839f:	48 8b 7d f0          	mov    -0x10(%rbp),%rdi
  4083a3:	48 8b 75 e8          	mov    -0x18(%rbp),%rsi
  4083a7:	e8 74 00 00 00       	call   408420 <get_value_from_list>
  4083ac:	48 89 45 d8          	mov    %rax,-0x28(%rbp)
  4083b0:	48 83 7d d8 00       	cmpq   $0x0,-0x28(%rbp)
  4083b5:	0f 85 0d 00 00 00    	jne    4083c8 <get_or_duplicate_value+0x48>
  4083bb:	48 c7 45 f8 00 00 00 	movq   $0x0,-0x8(%rbp)
  4083c2:	00 
  4083c3:	e9 46 00 00 00       	jmp    40840e <get_or_duplicate_value+0x8e>
  4083c8:	e9 39 00 00 00       	jmp    408406 <get_or_duplicate_value+0x86>
  4083cd:	48 8b 7d e0          	mov    -0x20(%rbp),%rdi
  4083d1:	e8 6a 28 00 00       	call   40ac40 <ft_strdup>
  4083d6:	48 89 45 d8          	mov    %rax,-0x28(%rbp)
  4083da:	48 83 7d d8 00       	cmpq   $0x0,-0x28(%rbp)
  4083df:	0f 85 1c 00 00 00    	jne    408401 <get_or_duplicate_value+0x81>
  4083e5:	48 8b 7d f0          	mov    -0x10(%rbp),%rdi
  4083e9:	48 be fe c0 40 00 00 	movabs $0x40c0fe,%rsi
  4083f0:	00 00 00 
  4083f3:	31 c0                	xor    %eax,%eax
  4083f5:	89 c2                	mov    %eax,%edx
  4083f7:	b9 ff 00 00 00       	mov    $0xff,%ecx
  4083fc:	e8 ff f6 ff ff       	call   407b00 <snuff_it>
  408401:	e9 00 00 00 00       	jmp    408406 <get_or_duplicate_value+0x86>
  408406:	48 8b 45 d8          	mov    -0x28(%rbp),%rax
  40840a:	48 89 45 f8          	mov    %rax,-0x8(%rbp)
  40840e:	48 8b 45 f8          	mov    -0x8(%rbp),%rax
  408412:	48 83 c4 30          	add    $0x30,%rsp
  408416:	5d                   	pop    %rbp
  408417:	c3                   	ret    
  408418:	0f 1f 84 00 00 00 00 	nopl   0x0(%rax,%rax,1)
  40841f:	00 

0000000000408420 <get_value_from_list>:
  408420:	55                   	push   %rbp
  408421:	48 89 e5             	mov    %rsp,%rbp
  408424:	48 83 ec 20          	sub    $0x20,%rsp
  408428:	48 89 7d f8          	mov    %rdi,-0x8(%rbp)
  40842c:	48 89 75 f0          	mov    %rsi,-0x10(%rbp)
  408430:	48 c7 45 e0 00 00 00 	movq   $0x0,-0x20(%rbp)
  408437:	00 
  408438:	48 8b 45 f8          	mov    -0x8(%rbp),%rax
  40843c:	48 8b 80 80 00 00 00 	mov    0x80(%rax),%rax
  408443:	48 89 45 e8          	mov    %rax,-0x18(%rbp)
  408447:	48 83 7d e8 00       	cmpq   $0x0,-0x18(%rbp)
  40844c:	0f 84 89 00 00 00    	je     4084db <get_value_from_list+0xbb>
  408452:	48 8b 45 e8          	mov    -0x18(%rbp),%rax
  408456:	48 83 38 00          	cmpq   $0x0,(%rax)
  40845a:	0f 84 6a 00 00 00    	je     4084ca <get_value_from_list+0xaa>
  408460:	48 8b 45 e8          	mov    -0x18(%rbp),%rax
  408464:	48 8b 38             	mov    (%rax),%rdi
  408467:	48 8b 75 f0          	mov    -0x10(%rbp),%rsi
  40846b:	e8 d0 22 00 00       	call   40a740 <ft_strcmp>
  408470:	83 f8 00             	cmp    $0x0,%eax
  408473:	0f 85 51 00 00 00    	jne    4084ca <get_value_from_list+0xaa>
  408479:	48 8b 45 e8          	mov    -0x18(%rbp),%rax
  40847d:	48 83 78 08 00       	cmpq   $0x0,0x8(%rax)
  408482:	0f 84 3d 00 00 00    	je     4084c5 <get_value_from_list+0xa5>
  408488:	48 8b 45 e8          	mov    -0x18(%rbp),%rax
  40848c:	48 8b 78 08          	mov    0x8(%rax),%rdi
  408490:	e8 ab 27 00 00       	call   40ac40 <ft_strdup>
  408495:	48 89 45 e0          	mov    %rax,-0x20(%rbp)
  408499:	48 83 7d e0 00       	cmpq   $0x0,-0x20(%rbp)
  40849e:	0f 85 1c 00 00 00    	jne    4084c0 <get_value_from_list+0xa0>
  4084a4:	48 8b 7d f8          	mov    -0x8(%rbp),%rdi
  4084a8:	48 be fe c0 40 00 00 	movabs $0x40c0fe,%rsi
  4084af:	00 00 00 
  4084b2:	31 c0                	xor    %eax,%eax
  4084b4:	89 c2                	mov    %eax,%edx
  4084b6:	b9 ff 00 00 00       	mov    $0xff,%ecx
  4084bb:	e8 40 f6 ff ff       	call   407b00 <snuff_it>
  4084c0:	e9 00 00 00 00       	jmp    4084c5 <get_value_from_list+0xa5>
  4084c5:	e9 11 00 00 00       	jmp    4084db <get_value_from_list+0xbb>
  4084ca:	48 8b 45 e8          	mov    -0x18(%rbp),%rax
  4084ce:	48 8b 40 18          	mov    0x18(%rax),%rax
  4084d2:	48 89 45 e8          	mov    %rax,-0x18(%rbp)
  4084d6:	e9 6c ff ff ff       	jmp    408447 <get_value_from_list+0x27>
  4084db:	48 8b 45 e0          	mov    -0x20(%rbp),%rax
  4084df:	48 83 c4 20          	add    $0x20,%rsp
  4084e3:	5d                   	pop    %rbp
  4084e4:	c3                   	ret    
  4084e5:	66 2e 0f 1f 84 00 00 	cs nopw 0x0(%rax,%rax,1)
  4084ec:	00 00 00 
  4084ef:	90                   	nop

00000000004084f0 <separate_name_and_value>:
  4084f0:	55                   	push   %rbp
  4084f1:	48 89 e5             	mov    %rsp,%rbp
  4084f4:	48 83 ec 20          	sub    $0x20,%rsp
  4084f8:	48 89 7d f8          	mov    %rdi,-0x8(%rbp)
  4084fc:	48 89 75 f0          	mov    %rsi,-0x10(%rbp)
  408500:	48 89 55 e8          	mov    %rdx,-0x18(%rbp)
  408504:	48 89 4d e0          	mov    %rcx,-0x20(%rbp)
  408508:	48 8b 45 e8          	mov    -0x18(%rbp),%rax
  40850c:	48 8b 38             	mov    (%rax),%rdi
  40850f:	e8 2c 27 00 00       	call   40ac40 <ft_strdup>
  408514:	48 89 c1             	mov    %rax,%rcx
  408517:	48 8b 45 f0          	mov    -0x10(%rbp),%rax
  40851b:	48 89 08             	mov    %rcx,(%rax)
  40851e:	48 8b 45 f0          	mov    -0x10(%rbp),%rax
  408522:	48 83 38 00          	cmpq   $0x0,(%rax)
  408526:	0f 85 1c 00 00 00    	jne    408548 <separate_name_and_value+0x58>
  40852c:	48 8b 7d f8          	mov    -0x8(%rbp),%rdi
  408530:	48 be fe c0 40 00 00 	movabs $0x40c0fe,%rsi
  408537:	00 00 00 
  40853a:	31 c0                	xor    %eax,%eax
  40853c:	89 c2                	mov    %eax,%edx
  40853e:	b9 ff 00 00 00       	mov    $0xff,%ecx
  408543:	e8 b8 f5 ff ff       	call   407b00 <snuff_it>
  408548:	48 8b 7d f8          	mov    -0x8(%rbp),%rdi
  40854c:	48 8b 45 f0          	mov    -0x10(%rbp),%rax
  408550:	48 8b 30             	mov    (%rax),%rsi
  408553:	e8 38 13 00 00       	call   409890 <add_string_to_thrash_list>
  408558:	48 8b 45 e8          	mov    -0x18(%rbp),%rax
  40855c:	48 8b 00             	mov    (%rax),%rax
  40855f:	c6 00 00             	movb   $0x0,(%rax)
  408562:	48 8b 45 e8          	mov    -0x18(%rbp),%rax
  408566:	48 8b 08             	mov    (%rax),%rcx
  408569:	48 83 c1 01          	add    $0x1,%rcx
  40856d:	48 8b 45 e0          	mov    -0x20(%rbp),%rax
  408571:	48 89 08             	mov    %rcx,(%rax)
  408574:	48 83 c4 20          	add    $0x20,%rsp
  408578:	5d                   	pop    %rbp
  408579:	c3                   	ret    
  40857a:	66 0f 1f 44 00 00    	nopw   0x0(%rax,%rax,1)

0000000000408580 <execute_export>:
  408580:	55                   	push   %rbp
  408581:	48 89 e5             	mov    %rsp,%rbp
  408584:	48 83 ec 40          	sub    $0x40,%rsp
  408588:	48 89 7d f8          	mov    %rdi,-0x8(%rbp)
  40858c:	48 89 75 f0          	mov    %rsi,-0x10(%rbp)
  408590:	48 8b 45 f0          	mov    -0x10(%rbp),%rax
  408594:	48 83 78 08 00       	cmpq   $0x0,0x8(%rax)
  408599:	0f 85 0e 00 00 00    	jne    4085ad <execute_export+0x2d>
  40859f:	48 8b 7d f8          	mov    -0x8(%rbp),%rdi
  4085a3:	e8 08 06 00 00       	call   408bb0 <print_export_strings>
  4085a8:	e9 c9 00 00 00       	jmp    408676 <execute_export+0xf6>
  4085ad:	c7 45 ec 00 00 00 00 	movl   $0x0,-0x14(%rbp)
  4085b4:	48 8b 45 f0          	mov    -0x10(%rbp),%rax
  4085b8:	8b 4d ec             	mov    -0x14(%rbp),%ecx
  4085bb:	83 c1 01             	add    $0x1,%ecx
  4085be:	89 4d ec             	mov    %ecx,-0x14(%rbp)
  4085c1:	48 63 c9             	movslq %ecx,%rcx
  4085c4:	48 83 3c c8 00       	cmpq   $0x0,(%rax,%rcx,8)
  4085c9:	0f 84 a7 00 00 00    	je     408676 <execute_export+0xf6>
  4085cf:	48 c7 45 d0 00 00 00 	movq   $0x0,-0x30(%rbp)
  4085d6:	00 
  4085d7:	48 c7 45 c8 00 00 00 	movq   $0x0,-0x38(%rbp)
  4085de:	00 
  4085df:	48 8b 45 f0          	mov    -0x10(%rbp),%rax
  4085e3:	48 63 4d ec          	movslq -0x14(%rbp),%rcx
  4085e7:	48 8b 3c c8          	mov    (%rax,%rcx,8),%rdi
  4085eb:	be 3d 00 00 00       	mov    $0x3d,%esi
  4085f0:	e8 fb 1f 00 00       	call   40a5f0 <ft_strchr>
  4085f5:	48 89 45 e0          	mov    %rax,-0x20(%rbp)
  4085f9:	48 83 7d e0 00       	cmpq   $0x0,-0x20(%rbp)
  4085fe:	0f 84 15 00 00 00    	je     408619 <execute_export+0x99>
  408604:	48 8b 7d f8          	mov    -0x8(%rbp),%rdi
  408608:	48 8d 75 c8          	lea    -0x38(%rbp),%rsi
  40860c:	48 8d 55 e0          	lea    -0x20(%rbp),%rdx
  408610:	48 8d 4d d0          	lea    -0x30(%rbp),%rcx
  408614:	e8 d7 fe ff ff       	call   4084f0 <separate_name_and_value>
  408619:	48 8b 45 f0          	mov    -0x10(%rbp),%rax
  40861d:	48 63 4d ec          	movslq -0x14(%rbp),%rcx
  408621:	48 8b 04 c8          	mov    (%rax,%rcx,8),%rax
  408625:	48 89 45 d8          	mov    %rax,-0x28(%rbp)
  408629:	48 8b 7d f8          	mov    -0x8(%rbp),%rdi
  40862d:	48 8b 75 d8          	mov    -0x28(%rbp),%rsi
  408631:	48 8b 55 c8          	mov    -0x38(%rbp),%rdx
  408635:	e8 06 06 00 00       	call   408c40 <check_env_var_name>
  40863a:	83 f8 00             	cmp    $0x0,%eax
  40863d:	0f 85 1c 00 00 00    	jne    40865f <execute_export+0xdf>
  408643:	48 8b 7d f8          	mov    -0x8(%rbp),%rdi
  408647:	48 8b 75 d8          	mov    -0x28(%rbp),%rsi
  40864b:	48 8b 55 d0          	mov    -0x30(%rbp),%rdx
  40864f:	e8 2c 00 00 00       	call   408680 <set_env_var>
  408654:	48 8b 45 f8          	mov    -0x8(%rbp),%rax
  408658:	c7 40 6c 00 00 00 00 	movl   $0x0,0x6c(%rax)
  40865f:	48 83 7d e0 00       	cmpq   $0x0,-0x20(%rbp)
  408664:	0f 84 07 00 00 00    	je     408671 <execute_export+0xf1>
  40866a:	48 8b 45 e0          	mov    -0x20(%rbp),%rax
  40866e:	c6 00 3d             	movb   $0x3d,(%rax)
  408671:	e9 3e ff ff ff       	jmp    4085b4 <execute_export+0x34>
  408676:	48 83 c4 40          	add    $0x40,%rsp
  40867a:	5d                   	pop    %rbp
  40867b:	c3                   	ret    
  40867c:	0f 1f 40 00          	nopl   0x0(%rax)

0000000000408680 <set_env_var>:
  408680:	55                   	push   %rbp
  408681:	48 89 e5             	mov    %rsp,%rbp
  408684:	48 83 ec 30          	sub    $0x30,%rsp
  408688:	48 89 7d f8          	mov    %rdi,-0x8(%rbp)
  40868c:	48 89 75 f0          	mov    %rsi,-0x10(%rbp)
  408690:	48 89 55 e8          	mov    %rdx,-0x18(%rbp)
  408694:	48 c7 45 e0 00 00 00 	movq   $0x0,-0x20(%rbp)
  40869b:	00 
  40869c:	48 8b 7d f0          	mov    -0x10(%rbp),%rdi
  4086a0:	48 be 40 ca 40 00 00 	movabs $0x40ca40,%rsi
  4086a7:	00 00 00 
  4086aa:	e8 91 20 00 00       	call   40a740 <ft_strcmp>
  4086af:	83 f8 00             	cmp    $0x0,%eax
  4086b2:	0f 85 12 00 00 00    	jne    4086ca <set_env_var+0x4a>
  4086b8:	48 8b 45 f8          	mov    -0x8(%rbp),%rax
  4086bc:	48 8b b8 a0 00 00 00 	mov    0xa0(%rax),%rdi
  4086c3:	31 f6                	xor    %esi,%esi
  4086c5:	e8 f6 15 00 00       	call   409cc0 <free_hashtable>
  4086ca:	48 8b 7d f8          	mov    -0x8(%rbp),%rdi
  4086ce:	48 8b 75 f0          	mov    -0x10(%rbp),%rsi
  4086d2:	48 8b 55 e8          	mov    -0x18(%rbp),%rdx
  4086d6:	e8 a5 fc ff ff       	call   408380 <get_or_duplicate_value>
  4086db:	48 89 45 d8          	mov    %rax,-0x28(%rbp)
  4086df:	48 83 7d d8 00       	cmpq   $0x0,-0x28(%rbp)
  4086e4:	0f 85 05 00 00 00    	jne    4086ef <set_env_var+0x6f>
  4086ea:	e9 8b 00 00 00       	jmp    40877a <set_env_var+0xfa>
  4086ef:	48 8b 7d f8          	mov    -0x8(%rbp),%rdi
  4086f3:	48 8b 75 d8          	mov    -0x28(%rbp),%rsi
  4086f7:	e8 94 11 00 00       	call   409890 <add_string_to_thrash_list>
  4086fc:	48 8b 7d d8          	mov    -0x28(%rbp),%rdi
  408700:	e8 3b 25 00 00       	call   40ac40 <ft_strdup>
  408705:	48 89 45 e0          	mov    %rax,-0x20(%rbp)
  408709:	48 83 7d e0 00       	cmpq   $0x0,-0x20(%rbp)
  40870e:	0f 85 1c 00 00 00    	jne    408730 <set_env_var+0xb0>
  408714:	48 8b 7d f8          	mov    -0x8(%rbp),%rdi
  408718:	48 be 5a c4 40 00 00 	movabs $0x40c45a,%rsi
  40871f:	00 00 00 
  408722:	31 c0                	xor    %eax,%eax
  408724:	89 c2                	mov    %eax,%edx
  408726:	b9 ff 00 00 00       	mov    $0xff,%ecx
  40872b:	e8 d0 f3 ff ff       	call   407b00 <snuff_it>
  408730:	48 8b 7d f8          	mov    -0x8(%rbp),%rdi
  408734:	48 8b 75 e0          	mov    -0x20(%rbp),%rsi
  408738:	e8 53 11 00 00       	call   409890 <add_string_to_thrash_list>
  40873d:	48 8b 7d f8          	mov    -0x8(%rbp),%rdi
  408741:	48 8b 75 f0          	mov    -0x10(%rbp),%rsi
  408745:	e8 36 00 00 00       	call   408780 <is_var_in_env>
  40874a:	83 f8 00             	cmp    $0x0,%eax
  40874d:	0f 84 16 00 00 00    	je     408769 <set_env_var+0xe9>
  408753:	48 8b 7d f8          	mov    -0x8(%rbp),%rdi
  408757:	48 8b 75 f0          	mov    -0x10(%rbp),%rsi
  40875b:	48 8b 55 e0          	mov    -0x20(%rbp),%rdx
  40875f:	e8 1c 01 00 00       	call   408880 <update_var_in_env>
  408764:	e9 11 00 00 00       	jmp    40877a <set_env_var+0xfa>
  408769:	48 8b 7d f8          	mov    -0x8(%rbp),%rdi
  40876d:	48 8b 75 f0          	mov    -0x10(%rbp),%rsi
  408771:	48 8b 55 e0          	mov    -0x20(%rbp),%rdx
  408775:	e8 c6 02 00 00       	call   408a40 <add_var_to_env>
  40877a:	48 83 c4 30          	add    $0x30,%rsp
  40877e:	5d                   	pop    %rbp
  40877f:	c3                   	ret    

0000000000408780 <is_var_in_env>:
  408780:	55                   	push   %rbp
  408781:	48 89 e5             	mov    %rsp,%rbp
  408784:	48 83 ec 40          	sub    $0x40,%rsp
  408788:	48 89 7d f0          	mov    %rdi,-0x10(%rbp)
  40878c:	48 89 75 e8          	mov    %rsi,-0x18(%rbp)
  408790:	c7 45 e4 00 00 00 00 	movl   $0x0,-0x1c(%rbp)
  408797:	48 8b 4d f0          	mov    -0x10(%rbp),%rcx
  40879b:	31 c0                	xor    %eax,%eax
  40879d:	48 83 b9 88 00 00 00 	cmpq   $0x0,0x88(%rcx)
  4087a4:	00 
  4087a5:	88 45 e3             	mov    %al,-0x1d(%rbp)
  4087a8:	0f 84 1a 00 00 00    	je     4087c8 <is_var_in_env+0x48>
  4087ae:	48 8b 45 f0          	mov    -0x10(%rbp),%rax
  4087b2:	48 8b 80 88 00 00 00 	mov    0x88(%rax),%rax
  4087b9:	48 63 4d e4          	movslq -0x1c(%rbp),%rcx
  4087bd:	48 83 3c c8 00       	cmpq   $0x0,(%rax,%rcx,8)
  4087c2:	0f 95 c0             	setne  %al
  4087c5:	88 45 e3             	mov    %al,-0x1d(%rbp)
  4087c8:	8a 45 e3             	mov    -0x1d(%rbp),%al
  4087cb:	a8 01                	test   $0x1,%al
  4087cd:	0f 85 05 00 00 00    	jne    4087d8 <is_var_in_env+0x58>
  4087d3:	e9 90 00 00 00       	jmp    408868 <is_var_in_env+0xe8>
  4087d8:	48 8b 45 f0          	mov    -0x10(%rbp),%rax
  4087dc:	48 8b 80 88 00 00 00 	mov    0x88(%rax),%rax
  4087e3:	48 63 4d e4          	movslq -0x1c(%rbp),%rcx
  4087e7:	48 8b 04 c8          	mov    (%rax,%rcx,8),%rax
  4087eb:	48 89 45 d0          	mov    %rax,-0x30(%rbp)
  4087ef:	48 8b 45 e8          	mov    -0x18(%rbp),%rax
  4087f3:	48 89 45 d8          	mov    %rax,-0x28(%rbp)
  4087f7:	48 8b 7d e8          	mov    -0x18(%rbp),%rdi
  4087fb:	e8 b0 1b 00 00       	call   40a3b0 <ft_strlen>
  408800:	48 8b 7d d0          	mov    -0x30(%rbp),%rdi
  408804:	48 8b 75 d8          	mov    -0x28(%rbp),%rsi
  408808:	89 c2                	mov    %eax,%edx
  40880a:	e8 f1 1f 00 00       	call   40a800 <ft_strncmp>
  40880f:	83 f8 00             	cmp    $0x0,%eax
  408812:	0f 85 42 00 00 00    	jne    40885a <is_var_in_env+0xda>
  408818:	48 8b 45 f0          	mov    -0x10(%rbp),%rax
  40881c:	48 8b 80 88 00 00 00 	mov    0x88(%rax),%rax
  408823:	48 63 4d e4          	movslq -0x1c(%rbp),%rcx
  408827:	48 8b 04 c8          	mov    (%rax,%rcx,8),%rax
  40882b:	48 89 45 c8          	mov    %rax,-0x38(%rbp)
  40882f:	48 8b 7d e8          	mov    -0x18(%rbp),%rdi
  408833:	e8 78 1b 00 00       	call   40a3b0 <ft_strlen>
  408838:	89 c1                	mov    %eax,%ecx
  40883a:	48 8b 45 c8          	mov    -0x38(%rbp),%rax
  40883e:	48 63 c9             	movslq %ecx,%rcx
  408841:	0f be 04 08          	movsbl (%rax,%rcx,1),%eax
  408845:	83 f8 3d             	cmp    $0x3d,%eax
  408848:	0f 85 0c 00 00 00    	jne    40885a <is_var_in_env+0xda>
  40884e:	c7 45 fc 01 00 00 00 	movl   $0x1,-0x4(%rbp)
  408855:	e9 15 00 00 00       	jmp    40886f <is_var_in_env+0xef>
  40885a:	8b 45 e4             	mov    -0x1c(%rbp),%eax
  40885d:	83 c0 01             	add    $0x1,%eax
  408860:	89 45 e4             	mov    %eax,-0x1c(%rbp)
  408863:	e9 2f ff ff ff       	jmp    408797 <is_var_in_env+0x17>
  408868:	c7 45 fc 00 00 00 00 	movl   $0x0,-0x4(%rbp)
  40886f:	8b 45 fc             	mov    -0x4(%rbp),%eax
  408872:	48 83 c4 40          	add    $0x40,%rsp
  408876:	5d                   	pop    %rbp
  408877:	c3                   	ret    
  408878:	0f 1f 84 00 00 00 00 	nopl   0x0(%rax,%rax,1)
  40887f:	00 

0000000000408880 <update_var_in_env>:
  408880:	55                   	push   %rbp
  408881:	48 89 e5             	mov    %rsp,%rbp
  408884:	48 83 ec 50          	sub    $0x50,%rsp
  408888:	48 89 7d f8          	mov    %rdi,-0x8(%rbp)
  40888c:	48 89 75 f0          	mov    %rsi,-0x10(%rbp)
  408890:	48 89 55 e8          	mov    %rdx,-0x18(%rbp)
  408894:	c7 45 e4 ff ff ff ff 	movl   $0xffffffff,-0x1c(%rbp)
  40889b:	48 8b 7d f0          	mov    -0x10(%rbp),%rdi
  40889f:	48 be 4b ca 40 00 00 	movabs $0x40ca4b,%rsi
  4088a6:	00 00 00 
  4088a9:	e8 02 27 00 00       	call   40afb0 <ft_strjoin>
  4088ae:	48 89 45 d8          	mov    %rax,-0x28(%rbp)
  4088b2:	48 83 7d d8 00       	cmpq   $0x0,-0x28(%rbp)
  4088b7:	0f 85 1c 00 00 00    	jne    4088d9 <update_var_in_env+0x59>
  4088bd:	48 8b 7d f8          	mov    -0x8(%rbp),%rdi
  4088c1:	48 be 5a c4 40 00 00 	movabs $0x40c45a,%rsi
  4088c8:	00 00 00 
  4088cb:	31 c0                	xor    %eax,%eax
  4088cd:	89 c2                	mov    %eax,%edx
  4088cf:	b9 ff 00 00 00       	mov    $0xff,%ecx
  4088d4:	e8 27 f2 ff ff       	call   407b00 <snuff_it>
  4088d9:	48 8b 7d f8          	mov    -0x8(%rbp),%rdi
  4088dd:	48 8b 75 d8          	mov    -0x28(%rbp),%rsi
  4088e1:	e8 aa 0f 00 00       	call   409890 <add_string_to_thrash_list>
  4088e6:	48 8b 7d d8          	mov    -0x28(%rbp),%rdi
  4088ea:	48 8b 75 e8          	mov    -0x18(%rbp),%rsi
  4088ee:	e8 bd 26 00 00       	call   40afb0 <ft_strjoin>
  4088f3:	48 89 45 d0          	mov    %rax,-0x30(%rbp)
  4088f7:	48 83 7d d0 00       	cmpq   $0x0,-0x30(%rbp)
  4088fc:	0f 85 1c 00 00 00    	jne    40891e <update_var_in_env+0x9e>
  408902:	48 8b 7d f8          	mov    -0x8(%rbp),%rdi
  408906:	48 be 5a c4 40 00 00 	movabs $0x40c45a,%rsi
  40890d:	00 00 00 
  408910:	31 c0                	xor    %eax,%eax
  408912:	89 c2                	mov    %eax,%edx
  408914:	b9 ff 00 00 00       	mov    $0xff,%ecx
  408919:	e8 e2 f1 ff ff       	call   407b00 <snuff_it>
  40891e:	e9 00 00 00 00       	jmp    408923 <update_var_in_env+0xa3>
  408923:	48 8b 4d f8          	mov    -0x8(%rbp),%rcx
  408927:	31 c0                	xor    %eax,%eax
  408929:	48 83 b9 88 00 00 00 	cmpq   $0x0,0x88(%rcx)
  408930:	00 
  408931:	88 45 cf             	mov    %al,-0x31(%rbp)
  408934:	0f 84 22 00 00 00    	je     40895c <update_var_in_env+0xdc>
  40893a:	48 8b 45 f8          	mov    -0x8(%rbp),%rax
  40893e:	48 8b 80 88 00 00 00 	mov    0x88(%rax),%rax
  408945:	8b 4d e4             	mov    -0x1c(%rbp),%ecx
  408948:	83 c1 01             	add    $0x1,%ecx
  40894b:	89 4d e4             	mov    %ecx,-0x1c(%rbp)
  40894e:	48 63 c9             	movslq %ecx,%rcx
  408951:	48 83 3c c8 00       	cmpq   $0x0,(%rax,%rcx,8)
  408956:	0f 95 c0             	setne  %al
  408959:	88 45 cf             	mov    %al,-0x31(%rbp)
  40895c:	8a 45 cf             	mov    -0x31(%rbp),%al
  40895f:	a8 01                	test   $0x1,%al
  408961:	0f 85 05 00 00 00    	jne    40896c <update_var_in_env+0xec>
  408967:	e9 af 00 00 00       	jmp    408a1b <update_var_in_env+0x19b>
  40896c:	48 8b 45 f8          	mov    -0x8(%rbp),%rax
  408970:	48 8b 80 88 00 00 00 	mov    0x88(%rax),%rax
  408977:	48 63 4d e4          	movslq -0x1c(%rbp),%rcx
  40897b:	48 8b 04 c8          	mov    (%rax,%rcx,8),%rax
  40897f:	48 89 45 b8          	mov    %rax,-0x48(%rbp)
  408983:	48 8b 45 f0          	mov    -0x10(%rbp),%rax
  408987:	48 89 45 c0          	mov    %rax,-0x40(%rbp)
  40898b:	48 8b 7d f0          	mov    -0x10(%rbp),%rdi
  40898f:	e8 1c 1a 00 00       	call   40a3b0 <ft_strlen>
  408994:	48 8b 7d b8          	mov    -0x48(%rbp),%rdi
  408998:	48 8b 75 c0          	mov    -0x40(%rbp),%rsi
  40899c:	89 c2                	mov    %eax,%edx
  40899e:	e8 5d 1e 00 00       	call   40a800 <ft_strncmp>
  4089a3:	83 f8 00             	cmp    $0x0,%eax
  4089a6:	0f 85 6a 00 00 00    	jne    408a16 <update_var_in_env+0x196>
  4089ac:	48 8b 45 f8          	mov    -0x8(%rbp),%rax
  4089b0:	48 8b 80 88 00 00 00 	mov    0x88(%rax),%rax
  4089b7:	48 63 4d e4          	movslq -0x1c(%rbp),%rcx
  4089bb:	48 8b 04 c8          	mov    (%rax,%rcx,8),%rax
  4089bf:	48 89 45 b0          	mov    %rax,-0x50(%rbp)
  4089c3:	48 8b 7d f0          	mov    -0x10(%rbp),%rdi
  4089c7:	e8 e4 19 00 00       	call   40a3b0 <ft_strlen>
  4089cc:	89 c1                	mov    %eax,%ecx
  4089ce:	48 8b 45 b0          	mov    -0x50(%rbp),%rax
  4089d2:	48 63 c9             	movslq %ecx,%rcx
  4089d5:	0f be 04 08          	movsbl (%rax,%rcx,1),%eax
  4089d9:	83 f8 3d             	cmp    $0x3d,%eax
  4089dc:	0f 85 34 00 00 00    	jne    408a16 <update_var_in_env+0x196>
  4089e2:	48 8b 45 f8          	mov    -0x8(%rbp),%rax
  4089e6:	48 8b 80 88 00 00 00 	mov    0x88(%rax),%rax
  4089ed:	48 63 4d e4          	movslq -0x1c(%rbp),%rcx
  4089f1:	48 8b 3c c8          	mov    (%rax,%rcx,8),%rdi
  4089f5:	e8 36 86 ff ff       	call   401030 <free@plt>
  4089fa:	48 8b 55 d0          	mov    -0x30(%rbp),%rdx
  4089fe:	48 8b 45 f8          	mov    -0x8(%rbp),%rax
  408a02:	48 8b 80 88 00 00 00 	mov    0x88(%rax),%rax
  408a09:	48 63 4d e4          	movslq -0x1c(%rbp),%rcx
  408a0d:	48 89 14 c8          	mov    %rdx,(%rax,%rcx,8)
  408a11:	e9 16 00 00 00       	jmp    408a2c <update_var_in_env+0x1ac>
  408a16:	e9 08 ff ff ff       	jmp    408923 <update_var_in_env+0xa3>
  408a1b:	48 8b 7d d0          	mov    -0x30(%rbp),%rdi
  408a1f:	e8 0c 86 ff ff       	call   401030 <free@plt>
  408a24:	48 c7 45 d0 00 00 00 	movq   $0x0,-0x30(%rbp)
  408a2b:	00 
  408a2c:	48 83 c4 50          	add    $0x50,%rsp
  408a30:	5d                   	pop    %rbp
  408a31:	c3                   	ret    
  408a32:	66 2e 0f 1f 84 00 00 	cs nopw 0x0(%rax,%rax,1)
  408a39:	00 00 00 
  408a3c:	0f 1f 40 00          	nopl   0x0(%rax)

0000000000408a40 <add_var_to_env>:
  408a40:	55                   	push   %rbp
  408a41:	48 89 e5             	mov    %rsp,%rbp
  408a44:	48 83 ec 40          	sub    $0x40,%rsp
  408a48:	48 89 7d f8          	mov    %rdi,-0x8(%rbp)
  408a4c:	48 89 75 f0          	mov    %rsi,-0x10(%rbp)
  408a50:	48 89 55 e8          	mov    %rdx,-0x18(%rbp)
  408a54:	c7 45 e4 00 00 00 00 	movl   $0x0,-0x1c(%rbp)
  408a5b:	48 c7 45 d8 00 00 00 	movq   $0x0,-0x28(%rbp)
  408a62:	00 
  408a63:	48 c7 45 d0 00 00 00 	movq   $0x0,-0x30(%rbp)
  408a6a:	00 
  408a6b:	48 8b 7d f0          	mov    -0x10(%rbp),%rdi
  408a6f:	48 be 4b ca 40 00 00 	movabs $0x40ca4b,%rsi
  408a76:	00 00 00 
  408a79:	e8 32 25 00 00       	call   40afb0 <ft_strjoin>
  408a7e:	48 89 45 d8          	mov    %rax,-0x28(%rbp)
  408a82:	48 83 7d d8 00       	cmpq   $0x0,-0x28(%rbp)
  408a87:	0f 85 1c 00 00 00    	jne    408aa9 <add_var_to_env+0x69>
  408a8d:	48 8b 7d f8          	mov    -0x8(%rbp),%rdi
  408a91:	48 be 83 ca 40 00 00 	movabs $0x40ca83,%rsi
  408a98:	00 00 00 
  408a9b:	31 c0                	xor    %eax,%eax
  408a9d:	89 c2                	mov    %eax,%edx
  408a9f:	b9 ff 00 00 00       	mov    $0xff,%ecx
  408aa4:	e8 57 f0 ff ff       	call   407b00 <snuff_it>
  408aa9:	48 8b 7d f8          	mov    -0x8(%rbp),%rdi
  408aad:	48 8b 75 d8          	mov    -0x28(%rbp),%rsi
  408ab1:	e8 da 0d 00 00       	call   409890 <add_string_to_thrash_list>
  408ab6:	48 8b 7d d8          	mov    -0x28(%rbp),%rdi
  408aba:	48 8b 75 e8          	mov    -0x18(%rbp),%rsi
  408abe:	e8 ed 24 00 00       	call   40afb0 <ft_strjoin>
  408ac3:	48 89 45 d0          	mov    %rax,-0x30(%rbp)
  408ac7:	48 83 7d d0 00       	cmpq   $0x0,-0x30(%rbp)
  408acc:	0f 85 1c 00 00 00    	jne    408aee <add_var_to_env+0xae>
  408ad2:	48 8b 7d f8          	mov    -0x8(%rbp),%rdi
  408ad6:	48 be 83 ca 40 00 00 	movabs $0x40ca83,%rsi
  408add:	00 00 00 
  408ae0:	31 c0                	xor    %eax,%eax
  408ae2:	89 c2                	mov    %eax,%edx
  408ae4:	b9 ff 00 00 00       	mov    $0xff,%ecx
  408ae9:	e8 12 f0 ff ff       	call   407b00 <snuff_it>
  408aee:	48 8b 7d f8          	mov    -0x8(%rbp),%rdi
  408af2:	48 8b 75 d0          	mov    -0x30(%rbp),%rsi
  408af6:	e8 95 0d 00 00       	call   409890 <add_string_to_thrash_list>
  408afb:	48 8b 4d f8          	mov    -0x8(%rbp),%rcx
  408aff:	31 c0                	xor    %eax,%eax
  408b01:	48 83 b9 88 00 00 00 	cmpq   $0x0,0x88(%rcx)
  408b08:	00 
  408b09:	88 45 c7             	mov    %al,-0x39(%rbp)
  408b0c:	0f 84 1a 00 00 00    	je     408b2c <add_var_to_env+0xec>
  408b12:	48 8b 45 f8          	mov    -0x8(%rbp),%rax
  408b16:	48 8b 80 88 00 00 00 	mov    0x88(%rax),%rax
  408b1d:	48 63 4d e4          	movslq -0x1c(%rbp),%rcx
  408b21:	48 83 3c c8 00       	cmpq   $0x0,(%rax,%rcx,8)
  408b26:	0f 95 c0             	setne  %al
  408b29:	88 45 c7             	mov    %al,-0x39(%rbp)
  408b2c:	8a 45 c7             	mov    -0x39(%rbp),%al
  408b2f:	a8 01                	test   $0x1,%al
  408b31:	0f 85 05 00 00 00    	jne    408b3c <add_var_to_env+0xfc>
  408b37:	e9 0e 00 00 00       	jmp    408b4a <add_var_to_env+0x10a>
  408b3c:	8b 45 e4             	mov    -0x1c(%rbp),%eax
  408b3f:	83 c0 01             	add    $0x1,%eax
  408b42:	89 45 e4             	mov    %eax,-0x1c(%rbp)
  408b45:	e9 b1 ff ff ff       	jmp    408afb <add_var_to_env+0xbb>
  408b4a:	48 8b 45 f8          	mov    -0x8(%rbp),%rax
  408b4e:	48 8b b8 88 00 00 00 	mov    0x88(%rax),%rdi
  408b55:	48 8b 75 d0          	mov    -0x30(%rbp),%rsi
  408b59:	e8 92 26 00 00       	call   40b1f0 <ft_str_arr_join>
  408b5e:	48 89 45 c8          	mov    %rax,-0x38(%rbp)
  408b62:	48 83 7d c8 00       	cmpq   $0x0,-0x38(%rbp)
  408b67:	0f 85 1c 00 00 00    	jne    408b89 <add_var_to_env+0x149>
  408b6d:	48 8b 7d f8          	mov    -0x8(%rbp),%rdi
  408b71:	48 be 83 ca 40 00 00 	movabs $0x40ca83,%rsi
  408b78:	00 00 00 
  408b7b:	31 c0                	xor    %eax,%eax
  408b7d:	89 c2                	mov    %eax,%edx
  408b7f:	b9 ff 00 00 00       	mov    $0xff,%ecx
  408b84:	e8 77 ef ff ff       	call   407b00 <snuff_it>
  408b89:	48 8b 45 f8          	mov    -0x8(%rbp),%rax
  408b8d:	48 8b b8 88 00 00 00 	mov    0x88(%rax),%rdi
  408b94:	e8 67 22 00 00       	call   40ae00 <ft_free_array>
  408b99:	48 8b 4d c8          	mov    -0x38(%rbp),%rcx
  408b9d:	48 8b 45 f8          	mov    -0x8(%rbp),%rax
  408ba1:	48 89 88 88 00 00 00 	mov    %rcx,0x88(%rax)
  408ba8:	48 83 c4 40          	add    $0x40,%rsp
  408bac:	5d                   	pop    %rbp
  408bad:	c3                   	ret    
  408bae:	66 90                	xchg   %ax,%ax

0000000000408bb0 <print_export_strings>:
  408bb0:	55                   	push   %rbp
  408bb1:	48 89 e5             	mov    %rsp,%rbp
  408bb4:	48 83 ec 10          	sub    $0x10,%rsp
  408bb8:	48 89 7d f8          	mov    %rdi,-0x8(%rbp)
  408bbc:	c7 45 f4 00 00 00 00 	movl   $0x0,-0xc(%rbp)
  408bc3:	48 8b 4d f8          	mov    -0x8(%rbp),%rcx
  408bc7:	31 c0                	xor    %eax,%eax
  408bc9:	48 83 b9 88 00 00 00 	cmpq   $0x0,0x88(%rcx)
  408bd0:	00 
  408bd1:	88 45 f3             	mov    %al,-0xd(%rbp)
  408bd4:	0f 84 1a 00 00 00    	je     408bf4 <print_export_strings+0x44>
  408bda:	48 8b 45 f8          	mov    -0x8(%rbp),%rax
  408bde:	48 8b 80 88 00 00 00 	mov    0x88(%rax),%rax
  408be5:	48 63 4d f4          	movslq -0xc(%rbp),%rcx
  408be9:	48 83 3c c8 00       	cmpq   $0x0,(%rax,%rcx,8)
  408bee:	0f 95 c0             	setne  %al
  408bf1:	88 45 f3             	mov    %al,-0xd(%rbp)
  408bf4:	8a 45 f3             	mov    -0xd(%rbp),%al
  408bf7:	a8 01                	test   $0x1,%al
  408bf9:	0f 85 05 00 00 00    	jne    408c04 <print_export_strings+0x54>
  408bff:	e9 32 00 00 00       	jmp    408c36 <print_export_strings+0x86>
  408c04:	48 8b 45 f8          	mov    -0x8(%rbp),%rax
  408c08:	48 8b 80 88 00 00 00 	mov    0x88(%rax),%rax
  408c0f:	48 63 4d f4          	movslq -0xc(%rbp),%rcx
  408c13:	48 8b 34 c8          	mov    (%rax,%rcx,8),%rsi
  408c17:	48 bf a7 ca 40 00 00 	movabs $0x40caa7,%rdi
  408c1e:	00 00 00 
  408c21:	b0 00                	mov    $0x0,%al
  408c23:	e8 68 84 ff ff       	call   401090 <printf@plt>
  408c28:	8b 45 f4             	mov    -0xc(%rbp),%eax
  408c2b:	83 c0 01             	add    $0x1,%eax
  408c2e:	89 45 f4             	mov    %eax,-0xc(%rbp)
  408c31:	e9 8d ff ff ff       	jmp    408bc3 <print_export_strings+0x13>
  408c36:	48 83 c4 10          	add    $0x10,%rsp
  408c3a:	5d                   	pop    %rbp
  408c3b:	c3                   	ret    
  408c3c:	0f 1f 40 00          	nopl   0x0(%rax)

0000000000408c40 <check_env_var_name>:
  408c40:	55                   	push   %rbp
  408c41:	48 89 e5             	mov    %rsp,%rbp
  408c44:	48 83 ec 30          	sub    $0x30,%rsp
  408c48:	48 89 7d f0          	mov    %rdi,-0x10(%rbp)
  408c4c:	48 89 75 e8          	mov    %rsi,-0x18(%rbp)
  408c50:	48 89 55 e0          	mov    %rdx,-0x20(%rbp)
  408c54:	c7 45 dc ff ff ff ff 	movl   $0xffffffff,-0x24(%rbp)
  408c5b:	48 83 7d e8 00       	cmpq   $0x0,-0x18(%rbp)
  408c60:	0f 84 0d 00 00 00    	je     408c73 <check_env_var_name+0x33>
  408c66:	48 8b 45 e8          	mov    -0x18(%rbp),%rax
  408c6a:	80 38 00             	cmpb   $0x0,(%rax)
  408c6d:	0f 85 28 00 00 00    	jne    408c9b <check_env_var_name+0x5b>
  408c73:	48 8b 7d f0          	mov    -0x10(%rbp),%rdi
  408c77:	48 8b 55 e8          	mov    -0x18(%rbp),%rdx
  408c7b:	48 be b2 ca 40 00 00 	movabs $0x40cab2,%rsi
  408c82:	00 00 00 
  408c85:	b9 01 00 00 00       	mov    $0x1,%ecx
  408c8a:	e8 21 89 ff ff       	call   4015b0 <boo>
  408c8f:	c7 45 fc 01 00 00 00 	movl   $0x1,-0x4(%rbp)
  408c96:	e9 ba 00 00 00       	jmp    408d55 <check_env_var_name+0x115>
  408c9b:	48 8b 45 e8          	mov    -0x18(%rbp),%rax
  408c9f:	0f be 38             	movsbl (%rax),%edi
  408ca2:	e8 d9 15 00 00       	call   40a280 <ft_isalpha>
  408ca7:	83 f8 00             	cmp    $0x0,%eax
  408caa:	0f 85 38 00 00 00    	jne    408ce8 <check_env_var_name+0xa8>
  408cb0:	48 8b 45 e8          	mov    -0x18(%rbp),%rax
  408cb4:	0f be 00             	movsbl (%rax),%eax
  408cb7:	83 f8 5f             	cmp    $0x5f,%eax
  408cba:	0f 84 28 00 00 00    	je     408ce8 <check_env_var_name+0xa8>
  408cc0:	48 8b 7d f0          	mov    -0x10(%rbp),%rdi
  408cc4:	48 8b 55 e8          	mov    -0x18(%rbp),%rdx
  408cc8:	48 be b2 ca 40 00 00 	movabs $0x40cab2,%rsi
  408ccf:	00 00 00 
  408cd2:	b9 01 00 00 00       	mov    $0x1,%ecx
  408cd7:	e8 d4 88 ff ff       	call   4015b0 <boo>
  408cdc:	c7 45 fc 01 00 00 00 	movl   $0x1,-0x4(%rbp)
  408ce3:	e9 6d 00 00 00       	jmp    408d55 <check_env_var_name+0x115>
  408ce8:	e9 00 00 00 00       	jmp    408ced <check_env_var_name+0xad>
  408ced:	48 8b 45 e8          	mov    -0x18(%rbp),%rax
  408cf1:	8b 4d dc             	mov    -0x24(%rbp),%ecx
  408cf4:	83 c1 01             	add    $0x1,%ecx
  408cf7:	89 4d dc             	mov    %ecx,-0x24(%rbp)
  408cfa:	48 63 c9             	movslq %ecx,%rcx
  408cfd:	80 3c 08 00          	cmpb   $0x0,(%rax,%rcx,1)
  408d01:	0f 84 47 00 00 00    	je     408d4e <check_env_var_name+0x10e>
  408d07:	48 8b 45 e8          	mov    -0x18(%rbp),%rax
  408d0b:	48 63 4d dc          	movslq -0x24(%rbp),%rcx
  408d0f:	0f be 3c 08          	movsbl (%rax,%rcx,1),%edi
  408d13:	e8 b8 15 00 00       	call   40a2d0 <ft_isalnum_or_>
  408d18:	83 f8 00             	cmp    $0x0,%eax
  408d1b:	0f 85 28 00 00 00    	jne    408d49 <check_env_var_name+0x109>
  408d21:	48 8b 7d f0          	mov    -0x10(%rbp),%rdi
  408d25:	48 8b 55 e8          	mov    -0x18(%rbp),%rdx
  408d29:	48 be b2 ca 40 00 00 	movabs $0x40cab2,%rsi
  408d30:	00 00 00 
  408d33:	b9 01 00 00 00       	mov    $0x1,%ecx
  408d38:	e8 73 88 ff ff       	call   4015b0 <boo>
  408d3d:	c7 45 fc 01 00 00 00 	movl   $0x1,-0x4(%rbp)
  408d44:	e9 0c 00 00 00       	jmp    408d55 <check_env_var_name+0x115>
  408d49:	e9 9f ff ff ff       	jmp    408ced <check_env_var_name+0xad>
  408d4e:	c7 45 fc 00 00 00 00 	movl   $0x0,-0x4(%rbp)
  408d55:	8b 45 fc             	mov    -0x4(%rbp),%eax
  408d58:	48 83 c4 30          	add    $0x30,%rsp
  408d5c:	5d                   	pop    %rbp
  408d5d:	c3                   	ret    
  408d5e:	66 90                	xchg   %ax,%ax

0000000000408d60 <execute_echo>:
  408d60:	55                   	push   %rbp
  408d61:	48 89 e5             	mov    %rsp,%rbp
  408d64:	48 83 ec 20          	sub    $0x20,%rsp
  408d68:	48 89 7d f8          	mov    %rdi,-0x8(%rbp)
  408d6c:	c7 45 f4 00 00 00 00 	movl   $0x0,-0xc(%rbp)
  408d73:	c7 45 f0 00 00 00 00 	movl   $0x0,-0x10(%rbp)
  408d7a:	48 8b 45 f8          	mov    -0x8(%rbp),%rax
  408d7e:	48 8b 00             	mov    (%rax),%rax
  408d81:	48 8b 48 10          	mov    0x10(%rax),%rcx
  408d85:	8b 45 f0             	mov    -0x10(%rbp),%eax
  408d88:	83 c0 01             	add    $0x1,%eax
  408d8b:	89 45 f0             	mov    %eax,-0x10(%rbp)
  408d8e:	48 63 d0             	movslq %eax,%rdx
  408d91:	31 c0                	xor    %eax,%eax
  408d93:	48 83 3c d1 00       	cmpq   $0x0,(%rcx,%rdx,8)
  408d98:	88 45 eb             	mov    %al,-0x15(%rbp)
  408d9b:	0f 84 30 00 00 00    	je     408dd1 <execute_echo+0x71>
  408da1:	48 8b 45 f8          	mov    -0x8(%rbp),%rax
  408da5:	48 8b 00             	mov    (%rax),%rax
  408da8:	48 8b 40 10          	mov    0x10(%rax),%rax
  408dac:	48 63 4d f0          	movslq -0x10(%rbp),%rcx
  408db0:	48 8b 3c c8          	mov    (%rax,%rcx,8),%rdi
  408db4:	48 be cc ca 40 00 00 	movabs $0x40cacc,%rsi
  408dbb:	00 00 00 
  408dbe:	ba 02 00 00 00       	mov    $0x2,%edx
  408dc3:	e8 38 1a 00 00       	call   40a800 <ft_strncmp>
  408dc8:	83 f8 00             	cmp    $0x0,%eax
  408dcb:	0f 94 c0             	sete   %al
  408dce:	88 45 eb             	mov    %al,-0x15(%rbp)
  408dd1:	8a 45 eb             	mov    -0x15(%rbp),%al
  408dd4:	a8 01                	test   $0x1,%al
  408dd6:	0f 85 05 00 00 00    	jne    408de1 <execute_echo+0x81>
  408ddc:	e9 6e 00 00 00       	jmp    408e4f <execute_echo+0xef>
  408de1:	c7 45 ec 02 00 00 00 	movl   $0x2,-0x14(%rbp)
  408de8:	48 8b 45 f8          	mov    -0x8(%rbp),%rax
  408dec:	48 8b 00             	mov    (%rax),%rax
  408def:	48 8b 40 10          	mov    0x10(%rax),%rax
  408df3:	48 63 4d f0          	movslq -0x10(%rbp),%rcx
  408df7:	48 8b 04 c8          	mov    (%rax,%rcx,8),%rax
  408dfb:	48 63 4d ec          	movslq -0x14(%rbp),%rcx
  408dff:	0f be 04 08          	movsbl (%rax,%rcx,1),%eax
  408e03:	83 f8 6e             	cmp    $0x6e,%eax
  408e06:	0f 85 0e 00 00 00    	jne    408e1a <execute_echo+0xba>
  408e0c:	8b 45 ec             	mov    -0x14(%rbp),%eax
  408e0f:	83 c0 01             	add    $0x1,%eax
  408e12:	89 45 ec             	mov    %eax,-0x14(%rbp)
  408e15:	e9 ce ff ff ff       	jmp    408de8 <execute_echo+0x88>
  408e1a:	48 8b 45 f8          	mov    -0x8(%rbp),%rax
  408e1e:	48 8b 00             	mov    (%rax),%rax
  408e21:	48 8b 40 10          	mov    0x10(%rax),%rax
  408e25:	48 63 4d f0          	movslq -0x10(%rbp),%rcx
  408e29:	48 8b 04 c8          	mov    (%rax,%rcx,8),%rax
  408e2d:	48 63 4d ec          	movslq -0x14(%rbp),%rcx
  408e31:	0f be 04 08          	movsbl (%rax,%rcx,1),%eax
  408e35:	83 f8 00             	cmp    $0x0,%eax
  408e38:	0f 84 05 00 00 00    	je     408e43 <execute_echo+0xe3>
  408e3e:	e9 0c 00 00 00       	jmp    408e4f <execute_echo+0xef>
  408e43:	c7 45 f4 01 00 00 00 	movl   $0x1,-0xc(%rbp)
  408e4a:	e9 2b ff ff ff       	jmp    408d7a <execute_echo+0x1a>
  408e4f:	e9 00 00 00 00       	jmp    408e54 <execute_echo+0xf4>
  408e54:	48 8b 45 f8          	mov    -0x8(%rbp),%rax
  408e58:	48 8b 00             	mov    (%rax),%rax
  408e5b:	48 8b 40 10          	mov    0x10(%rax),%rax
  408e5f:	48 63 4d f0          	movslq -0x10(%rbp),%rcx
  408e63:	48 83 3c c8 00       	cmpq   $0x0,(%rax,%rcx,8)
  408e68:	0f 84 62 00 00 00    	je     408ed0 <execute_echo+0x170>
  408e6e:	48 8b 45 f8          	mov    -0x8(%rbp),%rax
  408e72:	48 8b 00             	mov    (%rax),%rax
  408e75:	48 8b 40 10          	mov    0x10(%rax),%rax
  408e79:	48 63 4d f0          	movslq -0x10(%rbp),%rcx
  408e7d:	48 8b 34 c8          	mov    (%rax,%rcx,8),%rsi
  408e81:	48 bf cf ca 40 00 00 	movabs $0x40cacf,%rdi
  408e88:	00 00 00 
  408e8b:	b0 00                	mov    $0x0,%al
  408e8d:	e8 fe 81 ff ff       	call   401090 <printf@plt>
  408e92:	48 8b 45 f8          	mov    -0x8(%rbp),%rax
  408e96:	48 8b 00             	mov    (%rax),%rax
  408e99:	48 8b 40 10          	mov    0x10(%rax),%rax
  408e9d:	8b 4d f0             	mov    -0x10(%rbp),%ecx
  408ea0:	83 c1 01             	add    $0x1,%ecx
  408ea3:	48 63 c9             	movslq %ecx,%rcx
  408ea6:	48 83 3c c8 00       	cmpq   $0x0,(%rax,%rcx,8)
  408eab:	0f 84 11 00 00 00    	je     408ec2 <execute_echo+0x162>
  408eb1:	48 bf 5b c0 40 00 00 	movabs $0x40c05b,%rdi
  408eb8:	00 00 00 
  408ebb:	b0 00                	mov    $0x0,%al
  408ebd:	e8 ce 81 ff ff       	call   401090 <printf@plt>
  408ec2:	8b 45 f0             	mov    -0x10(%rbp),%eax
  408ec5:	83 c0 01             	add    $0x1,%eax
  408ec8:	89 45 f0             	mov    %eax,-0x10(%rbp)
  408ecb:	e9 84 ff ff ff       	jmp    408e54 <execute_echo+0xf4>
  408ed0:	83 7d f4 00          	cmpl   $0x0,-0xc(%rbp)
  408ed4:	0f 85 11 00 00 00    	jne    408eeb <execute_echo+0x18b>
  408eda:	48 bf d5 c1 40 00 00 	movabs $0x40c1d5,%rdi
  408ee1:	00 00 00 
  408ee4:	b0 00                	mov    $0x0,%al
  408ee6:	e8 a5 81 ff ff       	call   401090 <printf@plt>
  408eeb:	48 83 c4 20          	add    $0x20,%rsp
  408eef:	5d                   	pop    %rbp
  408ef0:	c3                   	ret    
  408ef1:	66 2e 0f 1f 84 00 00 	cs nopw 0x0(%rax,%rax,1)
  408ef8:	00 00 00 
  408efb:	0f 1f 44 00 00       	nopl   0x0(%rax,%rax,1)

0000000000408f00 <execute_env>:
  408f00:	55                   	push   %rbp
  408f01:	48 89 e5             	mov    %rsp,%rbp
  408f04:	48 83 ec 20          	sub    $0x20,%rsp
  408f08:	48 89 7d f8          	mov    %rdi,-0x8(%rbp)
  408f0c:	48 89 75 f0          	mov    %rsi,-0x10(%rbp)
  408f10:	c7 45 ec 00 00 00 00 	movl   $0x0,-0x14(%rbp)
  408f17:	48 83 7d f0 00       	cmpq   $0x0,-0x10(%rbp)
  408f1c:	0f 84 34 00 00 00    	je     408f56 <execute_env+0x56>
  408f22:	48 8b 45 f0          	mov    -0x10(%rbp),%rax
  408f26:	48 83 78 08 00       	cmpq   $0x0,0x8(%rax)
  408f2b:	0f 84 25 00 00 00    	je     408f56 <execute_env+0x56>
  408f31:	48 8b 7d f8          	mov    -0x8(%rbp),%rdi
  408f35:	48 8b 45 f0          	mov    -0x10(%rbp),%rax
  408f39:	48 8b 50 08          	mov    0x8(%rax),%rdx
  408f3d:	48 be d2 ca 40 00 00 	movabs $0x40cad2,%rsi
  408f44:	00 00 00 
  408f47:	b9 7f 00 00 00       	mov    $0x7f,%ecx
  408f4c:	e8 5f 86 ff ff       	call   4015b0 <boo>
  408f51:	e9 83 00 00 00       	jmp    408fd9 <execute_env+0xd9>
  408f56:	e9 00 00 00 00       	jmp    408f5b <execute_env+0x5b>
  408f5b:	48 8b 4d f8          	mov    -0x8(%rbp),%rcx
  408f5f:	31 c0                	xor    %eax,%eax
  408f61:	48 83 b9 88 00 00 00 	cmpq   $0x0,0x88(%rcx)
  408f68:	00 
  408f69:	88 45 eb             	mov    %al,-0x15(%rbp)
  408f6c:	0f 84 1a 00 00 00    	je     408f8c <execute_env+0x8c>
  408f72:	48 8b 45 f8          	mov    -0x8(%rbp),%rax
  408f76:	48 8b 80 88 00 00 00 	mov    0x88(%rax),%rax
  408f7d:	48 63 4d ec          	movslq -0x14(%rbp),%rcx
  408f81:	48 83 3c c8 00       	cmpq   $0x0,(%rax,%rcx,8)
  408f86:	0f 95 c0             	setne  %al
  408f89:	88 45 eb             	mov    %al,-0x15(%rbp)
  408f8c:	8a 45 eb             	mov    -0x15(%rbp),%al
  408f8f:	a8 01                	test   $0x1,%al
  408f91:	0f 85 05 00 00 00    	jne    408f9c <execute_env+0x9c>
  408f97:	e9 32 00 00 00       	jmp    408fce <execute_env+0xce>
  408f9c:	48 8b 45 f8          	mov    -0x8(%rbp),%rax
  408fa0:	48 8b 80 88 00 00 00 	mov    0x88(%rax),%rax
  408fa7:	48 63 4d ec          	movslq -0x14(%rbp),%rcx
  408fab:	48 8b 34 c8          	mov    (%rax,%rcx,8),%rsi
  408faf:	48 bf 59 c9 40 00 00 	movabs $0x40c959,%rdi
  408fb6:	00 00 00 
  408fb9:	b0 00                	mov    $0x0,%al
  408fbb:	e8 d0 80 ff ff       	call   401090 <printf@plt>
  408fc0:	8b 45 ec             	mov    -0x14(%rbp),%eax
  408fc3:	83 c0 01             	add    $0x1,%eax
  408fc6:	89 45 ec             	mov    %eax,-0x14(%rbp)
  408fc9:	e9 8d ff ff ff       	jmp    408f5b <execute_env+0x5b>
  408fce:	48 8b 45 f8          	mov    -0x8(%rbp),%rax
  408fd2:	c7 40 6c 00 00 00 00 	movl   $0x0,0x6c(%rax)
  408fd9:	48 83 c4 20          	add    $0x20,%rsp
  408fdd:	5d                   	pop    %rbp
  408fde:	c3                   	ret    
  408fdf:	90                   	nop

0000000000408fe0 <execute_exit>:
  408fe0:	55                   	push   %rbp
  408fe1:	48 89 e5             	mov    %rsp,%rbp
  408fe4:	48 83 ec 10          	sub    $0x10,%rsp
  408fe8:	48 89 7d f8          	mov    %rdi,-0x8(%rbp)
  408fec:	48 89 75 f0          	mov    %rsi,-0x10(%rbp)
  408ff0:	48 83 7d f0 00       	cmpq   $0x0,-0x10(%rbp)
  408ff5:	0f 84 2d 01 00 00    	je     409128 <execute_exit+0x148>
  408ffb:	48 8b 45 f0          	mov    -0x10(%rbp),%rax
  408fff:	48 83 78 08 00       	cmpq   $0x0,0x8(%rax)
  409004:	0f 84 1e 01 00 00    	je     409128 <execute_exit+0x148>
  40900a:	48 8b 45 f0          	mov    -0x10(%rbp),%rax
  40900e:	48 8b 78 08          	mov    0x8(%rax),%rdi
  409012:	e8 39 04 00 00       	call   409450 <get_input_num>
  409017:	89 c1                	mov    %eax,%ecx
  409019:	48 8b 45 f8          	mov    -0x8(%rbp),%rax
  40901d:	89 48 6c             	mov    %ecx,0x6c(%rax)
  409020:	48 8b 45 f8          	mov    -0x8(%rbp),%rax
  409024:	81 78 6c f8 fe ff ff 	cmpl   $0xfffffef8,0x6c(%rax)
  40902b:	0f 84 11 00 00 00    	je     409042 <execute_exit+0x62>
  409031:	48 8b 45 f8          	mov    -0x8(%rbp),%rax
  409035:	81 78 6c f7 fe ff ff 	cmpl   $0xfffffef7,0x6c(%rax)
  40903c:	0f 85 27 00 00 00    	jne    409069 <execute_exit+0x89>
  409042:	48 8b 7d f8          	mov    -0x8(%rbp),%rdi
  409046:	48 be ed ca 40 00 00 	movabs $0x40caed,%rsi
  40904d:	00 00 00 
  409050:	48 ba 73 c8 40 00 00 	movabs $0x40c873,%rdx
  409057:	00 00 00 
  40905a:	b9 02 00 00 00       	mov    $0x2,%ecx
  40905f:	e8 4c 85 ff ff       	call   4015b0 <boo>
  409064:	e9 ba 00 00 00       	jmp    409123 <execute_exit+0x143>
  409069:	48 83 7d f0 00       	cmpq   $0x0,-0x10(%rbp)
  40906e:	0f 84 64 00 00 00    	je     4090d8 <execute_exit+0xf8>
  409074:	48 8b 45 f0          	mov    -0x10(%rbp),%rax
  409078:	48 83 78 08 00       	cmpq   $0x0,0x8(%rax)
  40907d:	0f 84 55 00 00 00    	je     4090d8 <execute_exit+0xf8>
  409083:	48 8b 45 f0          	mov    -0x10(%rbp),%rax
  409087:	48 8b 40 08          	mov    0x8(%rax),%rax
  40908b:	0f be 00             	movsbl (%rax),%eax
  40908e:	83 f8 00             	cmp    $0x0,%eax
  409091:	0f 84 41 00 00 00    	je     4090d8 <execute_exit+0xf8>
  409097:	48 8b 45 f0          	mov    -0x10(%rbp),%rax
  40909b:	48 83 78 10 00       	cmpq   $0x0,0x10(%rax)
  4090a0:	0f 84 32 00 00 00    	je     4090d8 <execute_exit+0xf8>
  4090a6:	48 8b 7d f8          	mov    -0x8(%rbp),%rdi
  4090aa:	48 be 08 cb 40 00 00 	movabs $0x40cb08,%rsi
  4090b1:	00 00 00 
  4090b4:	48 ba 73 c8 40 00 00 	movabs $0x40c873,%rdx
  4090bb:	00 00 00 
  4090be:	b9 01 00 00 00       	mov    $0x1,%ecx
  4090c3:	e8 e8 84 ff ff       	call   4015b0 <boo>
  4090c8:	48 8b 45 f8          	mov    -0x8(%rbp),%rax
  4090cc:	c7 40 6c 01 00 00 00 	movl   $0x1,0x6c(%rax)
  4090d3:	e9 60 00 00 00       	jmp    409138 <execute_exit+0x158>
  4090d8:	48 8b 45 f8          	mov    -0x8(%rbp),%rax
  4090dc:	83 78 6c 00          	cmpl   $0x0,0x6c(%rax)
  4090e0:	0f 8c 11 00 00 00    	jl     4090f7 <execute_exit+0x117>
  4090e6:	48 8b 45 f8          	mov    -0x8(%rbp),%rax
  4090ea:	81 78 6c ff 00 00 00 	cmpl   $0xff,0x6c(%rax)
  4090f1:	0f 8e 22 00 00 00    	jle    409119 <execute_exit+0x139>
  4090f7:	48 8b 7d f8          	mov    -0x8(%rbp),%rdi
  4090fb:	48 be 1c cb 40 00 00 	movabs $0x40cb1c,%rsi
  409102:	00 00 00 
  409105:	48 ba 73 c8 40 00 00 	movabs $0x40c873,%rdx
  40910c:	00 00 00 
  40910f:	b9 45 00 00 00       	mov    $0x45,%ecx
  409114:	e8 97 84 ff ff       	call   4015b0 <boo>
  409119:	e9 00 00 00 00       	jmp    40911e <execute_exit+0x13e>
  40911e:	e9 00 00 00 00       	jmp    409123 <execute_exit+0x143>
  409123:	e9 00 00 00 00       	jmp    409128 <execute_exit+0x148>
  409128:	48 8b 7d f8          	mov    -0x8(%rbp),%rdi
  40912c:	48 8b 45 f8          	mov    -0x8(%rbp),%rax
  409130:	8b 70 6c             	mov    0x6c(%rax),%esi
  409133:	e8 78 ea ff ff       	call   407bb0 <exit_like_a_boss>
  409138:	48 83 c4 10          	add    $0x10,%rsp
  40913c:	5d                   	pop    %rbp
  40913d:	c3                   	ret    
  40913e:	66 90                	xchg   %ax,%ax

0000000000409140 <execute_pwd>:
  409140:	55                   	push   %rbp
  409141:	48 89 e5             	mov    %rsp,%rbp
  409144:	48 81 ec 10 10 00 00 	sub    $0x1010,%rsp
  40914b:	48 89 7d f8          	mov    %rdi,-0x8(%rbp)
  40914f:	48 8d bd f0 ef ff ff 	lea    -0x1010(%rbp),%rdi
  409156:	be 00 10 00 00       	mov    $0x1000,%esi
  40915b:	e8 60 7f ff ff       	call   4010c0 <getcwd@plt>
  409160:	48 83 f8 00          	cmp    $0x0,%rax
  409164:	0f 84 28 00 00 00    	je     409192 <execute_pwd+0x52>
  40916a:	48 8d b5 f0 ef ff ff 	lea    -0x1010(%rbp),%rsi
  409171:	48 bf 59 c9 40 00 00 	movabs $0x40c959,%rdi
  409178:	00 00 00 
  40917b:	b0 00                	mov    $0x0,%al
  40917d:	e8 0e 7f ff ff       	call   401090 <printf@plt>
  409182:	48 8b 45 f8          	mov    -0x8(%rbp),%rax
  409186:	c7 40 6c 00 00 00 00 	movl   $0x0,0x6c(%rax)
  40918d:	e9 1a 00 00 00       	jmp    4091ac <execute_pwd+0x6c>
  409192:	48 8b 45 f8          	mov    -0x8(%rbp),%rax
  409196:	c7 40 6c 01 00 00 00 	movl   $0x1,0x6c(%rax)
  40919d:	48 bf 19 ca 40 00 00 	movabs $0x40ca19,%rdi
  4091a4:	00 00 00 
  4091a7:	e8 e4 7f ff ff       	call   401190 <perror@plt>
  4091ac:	48 81 c4 10 10 00 00 	add    $0x1010,%rsp
  4091b3:	5d                   	pop    %rbp
  4091b4:	c3                   	ret    
  4091b5:	66 2e 0f 1f 84 00 00 	cs nopw 0x0(%rax,%rax,1)
  4091bc:	00 00 00 
  4091bf:	90                   	nop

00000000004091c0 <set_signal_controls>:
  4091c0:	55                   	push   %rbp
  4091c1:	48 89 e5             	mov    %rsp,%rbp
  4091c4:	48 83 ec 10          	sub    $0x10,%rsp
  4091c8:	48 89 7d f8          	mov    %rdi,-0x8(%rbp)
  4091cc:	48 8b 45 f8          	mov    -0x8(%rbp),%rax
  4091d0:	83 b8 90 00 00 00 00 	cmpl   $0x0,0x90(%rax)
  4091d7:	0f 85 19 00 00 00    	jne    4091f6 <set_signal_controls+0x36>
  4091dd:	bf 02 00 00 00       	mov    $0x2,%edi
  4091e2:	48 be 20 93 40 00 00 	movabs $0x409320,%rsi
  4091e9:	00 00 00 
  4091ec:	e8 2f 7f ff ff       	call   401120 <signal@plt>
  4091f1:	e9 82 00 00 00       	jmp    409278 <set_signal_controls+0xb8>
  4091f6:	48 8b 45 f8          	mov    -0x8(%rbp),%rax
  4091fa:	83 b8 90 00 00 00 02 	cmpl   $0x2,0x90(%rax)
  409201:	0f 85 13 00 00 00    	jne    40921a <set_signal_controls+0x5a>
  409207:	bf 02 00 00 00       	mov    $0x2,%edi
  40920c:	31 c0                	xor    %eax,%eax
  40920e:	89 c6                	mov    %eax,%esi
  409210:	e8 0b 7f ff ff       	call   401120 <signal@plt>
  409215:	e9 59 00 00 00       	jmp    409273 <set_signal_controls+0xb3>
  40921a:	48 8b 45 f8          	mov    -0x8(%rbp),%rax
  40921e:	83 b8 90 00 00 00 01 	cmpl   $0x1,0x90(%rax)
  409225:	0f 85 19 00 00 00    	jne    409244 <set_signal_controls+0x84>
  40922b:	bf 02 00 00 00       	mov    $0x2,%edi
  409230:	48 be 70 93 40 00 00 	movabs $0x409370,%rsi
  409237:	00 00 00 
  40923a:	e8 e1 7e ff ff       	call   401120 <signal@plt>
  40923f:	e9 2a 00 00 00       	jmp    40926e <set_signal_controls+0xae>
  409244:	48 8b 45 f8          	mov    -0x8(%rbp),%rax
  409248:	83 b8 90 00 00 00 03 	cmpl   $0x3,0x90(%rax)
  40924f:	0f 85 14 00 00 00    	jne    409269 <set_signal_controls+0xa9>
  409255:	bf 02 00 00 00       	mov    $0x2,%edi
  40925a:	48 be b0 93 40 00 00 	movabs $0x4093b0,%rsi
  409261:	00 00 00 
  409264:	e8 b7 7e ff ff       	call   401120 <signal@plt>
  409269:	e9 00 00 00 00       	jmp    40926e <set_signal_controls+0xae>
  40926e:	e9 00 00 00 00       	jmp    409273 <set_signal_controls+0xb3>
  409273:	e9 00 00 00 00       	jmp    409278 <set_signal_controls+0xb8>
  409278:	48 8b 45 f8          	mov    -0x8(%rbp),%rax
  40927c:	83 b8 90 00 00 00 00 	cmpl   $0x0,0x90(%rax)
  409283:	0f 85 14 00 00 00    	jne    40929d <set_signal_controls+0xdd>
  409289:	bf 03 00 00 00       	mov    $0x3,%edi
  40928e:	be 01 00 00 00       	mov    $0x1,%esi
  409293:	e8 88 7e ff ff       	call   401120 <signal@plt>
  409298:	e9 7d 00 00 00       	jmp    40931a <set_signal_controls+0x15a>
  40929d:	48 8b 45 f8          	mov    -0x8(%rbp),%rax
  4092a1:	83 b8 90 00 00 00 02 	cmpl   $0x2,0x90(%rax)
  4092a8:	0f 85 13 00 00 00    	jne    4092c1 <set_signal_controls+0x101>
  4092ae:	bf 03 00 00 00       	mov    $0x3,%edi
  4092b3:	31 c0                	xor    %eax,%eax
  4092b5:	89 c6                	mov    %eax,%esi
  4092b7:	e8 64 7e ff ff       	call   401120 <signal@plt>
  4092bc:	e9 54 00 00 00       	jmp    409315 <set_signal_controls+0x155>
  4092c1:	48 8b 45 f8          	mov    -0x8(%rbp),%rax
  4092c5:	83 b8 90 00 00 00 01 	cmpl   $0x1,0x90(%rax)
  4092cc:	0f 85 19 00 00 00    	jne    4092eb <set_signal_controls+0x12b>
  4092d2:	bf 03 00 00 00       	mov    $0x3,%edi
  4092d7:	48 be f0 93 40 00 00 	movabs $0x4093f0,%rsi
  4092de:	00 00 00 
  4092e1:	e8 3a 7e ff ff       	call   401120 <signal@plt>
  4092e6:	e9 25 00 00 00       	jmp    409310 <set_signal_controls+0x150>
  4092eb:	48 8b 45 f8          	mov    -0x8(%rbp),%rax
  4092ef:	83 b8 90 00 00 00 03 	cmpl   $0x3,0x90(%rax)
  4092f6:	0f 85 0f 00 00 00    	jne    40930b <set_signal_controls+0x14b>
  4092fc:	bf 03 00 00 00       	mov    $0x3,%edi
  409301:	be 01 00 00 00       	mov    $0x1,%esi
  409306:	e8 15 7e ff ff       	call   401120 <signal@plt>
  40930b:	e9 00 00 00 00       	jmp    409310 <set_signal_controls+0x150>
  409310:	e9 00 00 00 00       	jmp    409315 <set_signal_controls+0x155>
  409315:	e9 00 00 00 00       	jmp    40931a <set_signal_controls+0x15a>
  40931a:	48 83 c4 10          	add    $0x10,%rsp
  40931e:	5d                   	pop    %rbp
  40931f:	c3                   	ret    

0000000000409320 <handle_sigint>:
  409320:	55                   	push   %rbp
  409321:	48 89 e5             	mov    %rsp,%rbp
  409324:	48 83 ec 10          	sub    $0x10,%rsp
  409328:	89 7d fc             	mov    %edi,-0x4(%rbp)
  40932b:	8b 45 fc             	mov    -0x4(%rbp),%eax
  40932e:	89 04 25 0c 01 41 00 	mov    %eax,0x41010c
  409335:	bf 01 00 00 00       	mov    $0x1,%edi
  40933a:	48 be d5 c1 40 00 00 	movabs $0x40c1d5,%rsi
  409341:	00 00 00 
  409344:	ba 01 00 00 00       	mov    $0x1,%edx
  409349:	e8 12 7d ff ff       	call   401060 <write@plt>
  40934e:	e8 fd 7d ff ff       	call   401150 <rl_on_new_line@plt>
  409353:	48 bf d6 c1 40 00 00 	movabs $0x40c1d6,%rdi
  40935a:	00 00 00 
  40935d:	31 f6                	xor    %esi,%esi
  40935f:	e8 3c 7e ff ff       	call   4011a0 <rl_replace_line@plt>
  409364:	e8 d7 7d ff ff       	call   401140 <rl_redisplay@plt>
  409369:	48 83 c4 10          	add    $0x10,%rsp
  40936d:	5d                   	pop    %rbp
  40936e:	c3                   	ret    
  40936f:	90                   	nop

0000000000409370 <handle_sigint_non_interactive>:
  409370:	55                   	push   %rbp
  409371:	48 89 e5             	mov    %rsp,%rbp
  409374:	48 83 ec 10          	sub    $0x10,%rsp
  409378:	89 7d fc             	mov    %edi,-0x4(%rbp)
  40937b:	8b 45 fc             	mov    -0x4(%rbp),%eax
  40937e:	89 04 25 0c 01 41 00 	mov    %eax,0x41010c
  409385:	bf 01 00 00 00       	mov    $0x1,%edi
  40938a:	48 be d5 c1 40 00 00 	movabs $0x40c1d5,%rsi
  409391:	00 00 00 
  409394:	ba 01 00 00 00       	mov    $0x1,%edx
  409399:	e8 c2 7c ff ff       	call   401060 <write@plt>
  40939e:	48 83 c4 10          	add    $0x10,%rsp
  4093a2:	5d                   	pop    %rbp
  4093a3:	c3                   	ret    
  4093a4:	66 2e 0f 1f 84 00 00 	cs nopw 0x0(%rax,%rax,1)
  4093ab:	00 00 00 
  4093ae:	66 90                	xchg   %ax,%ax

00000000004093b0 <heredoc_sigint>:
  4093b0:	55                   	push   %rbp
  4093b1:	48 89 e5             	mov    %rsp,%rbp
  4093b4:	48 83 ec 10          	sub    $0x10,%rsp
  4093b8:	89 7d fc             	mov    %edi,-0x4(%rbp)
  4093bb:	31 ff                	xor    %edi,%edi
  4093bd:	be 12 54 00 00       	mov    $0x5412,%esi
  4093c2:	48 ba d5 c1 40 00 00 	movabs $0x40c1d5,%rdx
  4093c9:	00 00 00 
  4093cc:	b0 00                	mov    $0x0,%al
  4093ce:	e8 dd 7c ff ff       	call   4010b0 <ioctl@plt>
  4093d3:	8b 45 fc             	mov    -0x4(%rbp),%eax
  4093d6:	89 04 25 0c 01 41 00 	mov    %eax,0x41010c
  4093dd:	48 83 c4 10          	add    $0x10,%rsp
  4093e1:	5d                   	pop    %rbp
  4093e2:	c3                   	ret    
  4093e3:	66 2e 0f 1f 84 00 00 	cs nopw 0x0(%rax,%rax,1)
  4093ea:	00 00 00 
  4093ed:	0f 1f 00             	nopl   (%rax)

00000000004093f0 <handle_sigquit>:
  4093f0:	55                   	push   %rbp
  4093f1:	48 89 e5             	mov    %rsp,%rbp
  4093f4:	48 83 ec 10          	sub    $0x10,%rsp
  4093f8:	89 7d fc             	mov    %edi,-0x4(%rbp)
  4093fb:	bf 01 00 00 00       	mov    $0x1,%edi
  409400:	48 be 3d cb 40 00 00 	movabs $0x40cb3d,%rsi
  409407:	00 00 00 
  40940a:	ba 13 00 00 00       	mov    $0x13,%edx
  40940f:	e8 4c 7c ff ff       	call   401060 <write@plt>
  409414:	48 83 c4 10          	add    $0x10,%rsp
  409418:	5d                   	pop    %rbp
  409419:	c3                   	ret    
  40941a:	66 0f 1f 44 00 00    	nopw   0x0(%rax,%rax,1)

0000000000409420 <set_mode>:
  409420:	55                   	push   %rbp
  409421:	48 89 e5             	mov    %rsp,%rbp
  409424:	48 83 ec 10          	sub    $0x10,%rsp
  409428:	48 89 7d f8          	mov    %rdi,-0x8(%rbp)
  40942c:	89 75 f4             	mov    %esi,-0xc(%rbp)
  40942f:	8b 4d f4             	mov    -0xc(%rbp),%ecx
  409432:	48 8b 45 f8          	mov    -0x8(%rbp),%rax
  409436:	89 88 90 00 00 00    	mov    %ecx,0x90(%rax)
  40943c:	48 8b 7d f8          	mov    -0x8(%rbp),%rdi
  409440:	e8 7b fd ff ff       	call   4091c0 <set_signal_controls>
  409445:	48 83 c4 10          	add    $0x10,%rsp
  409449:	5d                   	pop    %rbp
  40944a:	c3                   	ret    
  40944b:	0f 1f 44 00 00       	nopl   0x0(%rax,%rax,1)

0000000000409450 <get_input_num>:
  409450:	55                   	push   %rbp
  409451:	48 89 e5             	mov    %rsp,%rbp
  409454:	48 83 ec 20          	sub    $0x20,%rsp
  409458:	48 89 7d f0          	mov    %rdi,-0x10(%rbp)
  40945c:	c7 45 ec 00 00 00 00 	movl   $0x0,-0x14(%rbp)
  409463:	48 83 7d f0 00       	cmpq   $0x0,-0x10(%rbp)
  409468:	0f 84 22 00 00 00    	je     409490 <get_input_num+0x40>
  40946e:	48 8b 45 f0          	mov    -0x10(%rbp),%rax
  409472:	0f be 00             	movsbl (%rax),%eax
  409475:	83 f8 00             	cmp    $0x0,%eax
  409478:	0f 84 12 00 00 00    	je     409490 <get_input_num+0x40>
  40947e:	48 8b 7d f0          	mov    -0x10(%rbp),%rdi
  409482:	e8 59 00 00 00       	call   4094e0 <is_not_numeric>
  409487:	83 f8 00             	cmp    $0x0,%eax
  40948a:	0f 84 0c 00 00 00    	je     40949c <get_input_num+0x4c>
  409490:	c7 45 fc f8 fe ff ff 	movl   $0xfffffef8,-0x4(%rbp)
  409497:	e9 30 00 00 00       	jmp    4094cc <get_input_num+0x7c>
  40949c:	48 8b 7d f0          	mov    -0x10(%rbp),%rdi
  4094a0:	e8 fb 01 00 00       	call   4096a0 <is_overflow>
  4094a5:	83 f8 00             	cmp    $0x0,%eax
  4094a8:	0f 84 0c 00 00 00    	je     4094ba <get_input_num+0x6a>
  4094ae:	c7 45 fc f7 fe ff ff 	movl   $0xfffffef7,-0x4(%rbp)
  4094b5:	e9 12 00 00 00       	jmp    4094cc <get_input_num+0x7c>
  4094ba:	48 8b 7d f0          	mov    -0x10(%rbp),%rdi
  4094be:	e8 7d 15 00 00       	call   40aa40 <ft_atoi>
  4094c3:	89 45 ec             	mov    %eax,-0x14(%rbp)
  4094c6:	8b 45 ec             	mov    -0x14(%rbp),%eax
  4094c9:	89 45 fc             	mov    %eax,-0x4(%rbp)
  4094cc:	8b 45 fc             	mov    -0x4(%rbp),%eax
  4094cf:	48 83 c4 20          	add    $0x20,%rsp
  4094d3:	5d                   	pop    %rbp
  4094d4:	c3                   	ret    
  4094d5:	66 2e 0f 1f 84 00 00 	cs nopw 0x0(%rax,%rax,1)
  4094dc:	00 00 00 
  4094df:	90                   	nop

00000000004094e0 <is_not_numeric>:
  4094e0:	55                   	push   %rbp
  4094e1:	48 89 e5             	mov    %rsp,%rbp
  4094e4:	48 83 ec 20          	sub    $0x20,%rsp
  4094e8:	48 89 7d f0          	mov    %rdi,-0x10(%rbp)
  4094ec:	c7 45 ec 01 00 00 00 	movl   $0x1,-0x14(%rbp)
  4094f3:	c7 45 e8 00 00 00 00 	movl   $0x0,-0x18(%rbp)
  4094fa:	48 8b 45 f0          	mov    -0x10(%rbp),%rax
  4094fe:	48 63 4d e8          	movslq -0x18(%rbp),%rcx
  409502:	0f be 0c 08          	movsbl (%rax,%rcx,1),%ecx
  409506:	31 c0                	xor    %eax,%eax
  409508:	83 f9 00             	cmp    $0x0,%ecx
  40950b:	88 45 e7             	mov    %al,-0x19(%rbp)
  40950e:	0f 84 1a 00 00 00    	je     40952e <is_not_numeric+0x4e>
  409514:	48 8b 45 f0          	mov    -0x10(%rbp),%rax
  409518:	48 63 4d e8          	movslq -0x18(%rbp),%rcx
  40951c:	0f be 3c 08          	movsbl (%rax,%rcx,1),%edi
  409520:	e8 2b 0e 00 00       	call   40a350 <ft_iswhitespace>
  409525:	83 f8 00             	cmp    $0x0,%eax
  409528:	0f 95 c0             	setne  %al
  40952b:	88 45 e7             	mov    %al,-0x19(%rbp)
  40952e:	8a 45 e7             	mov    -0x19(%rbp),%al
  409531:	a8 01                	test   $0x1,%al
  409533:	0f 85 05 00 00 00    	jne    40953e <is_not_numeric+0x5e>
  409539:	e9 0e 00 00 00       	jmp    40954c <is_not_numeric+0x6c>
  40953e:	8b 45 e8             	mov    -0x18(%rbp),%eax
  409541:	83 c0 01             	add    $0x1,%eax
  409544:	89 45 e8             	mov    %eax,-0x18(%rbp)
  409547:	e9 ae ff ff ff       	jmp    4094fa <is_not_numeric+0x1a>
  40954c:	48 8b 45 f0          	mov    -0x10(%rbp),%rax
  409550:	48 63 4d e8          	movslq -0x18(%rbp),%rcx
  409554:	0f be 04 08          	movsbl (%rax,%rcx,1),%eax
  409558:	83 f8 00             	cmp    $0x0,%eax
  40955b:	0f 85 0c 00 00 00    	jne    40956d <is_not_numeric+0x8d>
  409561:	c7 45 fc 01 00 00 00 	movl   $0x1,-0x4(%rbp)
  409568:	e9 27 01 00 00       	jmp    409694 <is_not_numeric+0x1b4>
  40956d:	48 8b 45 f0          	mov    -0x10(%rbp),%rax
  409571:	48 63 4d e8          	movslq -0x18(%rbp),%rcx
  409575:	0f be 04 08          	movsbl (%rax,%rcx,1),%eax
  409579:	83 f8 2d             	cmp    $0x2d,%eax
  40957c:	0f 84 15 00 00 00    	je     409597 <is_not_numeric+0xb7>
  409582:	48 8b 45 f0          	mov    -0x10(%rbp),%rax
  409586:	48 63 4d e8          	movslq -0x18(%rbp),%rcx
  40958a:	0f be 04 08          	movsbl (%rax,%rcx,1),%eax
  40958e:	83 f8 2b             	cmp    $0x2b,%eax
  409591:	0f 85 25 00 00 00    	jne    4095bc <is_not_numeric+0xdc>
  409597:	48 8b 45 f0          	mov    -0x10(%rbp),%rax
  40959b:	48 63 4d e8          	movslq -0x18(%rbp),%rcx
  40959f:	0f be 04 08          	movsbl (%rax,%rcx,1),%eax
  4095a3:	83 f8 2d             	cmp    $0x2d,%eax
  4095a6:	0f 85 07 00 00 00    	jne    4095b3 <is_not_numeric+0xd3>
  4095ac:	c7 45 ec ff ff ff ff 	movl   $0xffffffff,-0x14(%rbp)
  4095b3:	8b 45 e8             	mov    -0x18(%rbp),%eax
  4095b6:	83 c0 01             	add    $0x1,%eax
  4095b9:	89 45 e8             	mov    %eax,-0x18(%rbp)
  4095bc:	48 8b 45 f0          	mov    -0x10(%rbp),%rax
  4095c0:	48 63 4d e8          	movslq -0x18(%rbp),%rcx
  4095c4:	0f be 04 08          	movsbl (%rax,%rcx,1),%eax
  4095c8:	83 f8 30             	cmp    $0x30,%eax
  4095cb:	0f 8c 15 00 00 00    	jl     4095e6 <is_not_numeric+0x106>
  4095d1:	48 8b 45 f0          	mov    -0x10(%rbp),%rax
  4095d5:	48 63 4d e8          	movslq -0x18(%rbp),%rcx
  4095d9:	0f be 04 08          	movsbl (%rax,%rcx,1),%eax
  4095dd:	83 f8 39             	cmp    $0x39,%eax
  4095e0:	0f 8e 0c 00 00 00    	jle    4095f2 <is_not_numeric+0x112>
  4095e6:	c7 45 fc 01 00 00 00 	movl   $0x1,-0x4(%rbp)
  4095ed:	e9 a2 00 00 00       	jmp    409694 <is_not_numeric+0x1b4>
  4095f2:	e9 00 00 00 00       	jmp    4095f7 <is_not_numeric+0x117>
  4095f7:	48 8b 45 f0          	mov    -0x10(%rbp),%rax
  4095fb:	48 63 4d e8          	movslq -0x18(%rbp),%rcx
  4095ff:	0f be 04 08          	movsbl (%rax,%rcx,1),%eax
  409603:	83 f8 30             	cmp    $0x30,%eax
  409606:	0f 85 0e 00 00 00    	jne    40961a <is_not_numeric+0x13a>
  40960c:	8b 45 e8             	mov    -0x18(%rbp),%eax
  40960f:	83 c0 01             	add    $0x1,%eax
  409612:	89 45 e8             	mov    %eax,-0x18(%rbp)
  409615:	e9 dd ff ff ff       	jmp    4095f7 <is_not_numeric+0x117>
  40961a:	e9 00 00 00 00       	jmp    40961f <is_not_numeric+0x13f>
  40961f:	48 8b 45 f0          	mov    -0x10(%rbp),%rax
  409623:	48 63 4d e8          	movslq -0x18(%rbp),%rcx
  409627:	0f be 0c 08          	movsbl (%rax,%rcx,1),%ecx
  40962b:	31 c0                	xor    %eax,%eax
  40962d:	83 f9 30             	cmp    $0x30,%ecx
  409630:	88 45 e6             	mov    %al,-0x1a(%rbp)
  409633:	0f 8c 15 00 00 00    	jl     40964e <is_not_numeric+0x16e>
  409639:	48 8b 45 f0          	mov    -0x10(%rbp),%rax
  40963d:	48 63 4d e8          	movslq -0x18(%rbp),%rcx
  409641:	0f be 04 08          	movsbl (%rax,%rcx,1),%eax
  409645:	83 f8 39             	cmp    $0x39,%eax
  409648:	0f 9e c0             	setle  %al
  40964b:	88 45 e6             	mov    %al,-0x1a(%rbp)
  40964e:	8a 45 e6             	mov    -0x1a(%rbp),%al
  409651:	a8 01                	test   $0x1,%al
  409653:	0f 85 05 00 00 00    	jne    40965e <is_not_numeric+0x17e>
  409659:	e9 0e 00 00 00       	jmp    40966c <is_not_numeric+0x18c>
  40965e:	8b 45 e8             	mov    -0x18(%rbp),%eax
  409661:	83 c0 01             	add    $0x1,%eax
  409664:	89 45 e8             	mov    %eax,-0x18(%rbp)
  409667:	e9 b3 ff ff ff       	jmp    40961f <is_not_numeric+0x13f>
  40966c:	48 8b 45 f0          	mov    -0x10(%rbp),%rax
  409670:	48 63 4d e8          	movslq -0x18(%rbp),%rcx
  409674:	0f be 04 08          	movsbl (%rax,%rcx,1),%eax
  409678:	83 f8 00             	cmp    $0x0,%eax
  40967b:	0f 84 0c 00 00 00    	je     40968d <is_not_numeric+0x1ad>
  409681:	c7 45 fc 01 00 00 00 	movl   $0x1,-0x4(%rbp)
  409688:	e9 07 00 00 00       	jmp    409694 <is_not_numeric+0x1b4>
  40968d:	c7 45 fc 00 00 00 00 	movl   $0x0,-0x4(%rbp)
  409694:	8b 45 fc             	mov    -0x4(%rbp),%eax
  409697:	48 83 c4 20          	add    $0x20,%rsp
  40969b:	5d                   	pop    %rbp
  40969c:	c3                   	ret    
  40969d:	0f 1f 00             	nopl   (%rax)

00000000004096a0 <is_overflow>:
  4096a0:	55                   	push   %rbp
  4096a1:	48 89 e5             	mov    %rsp,%rbp
  4096a4:	48 89 7d f0          	mov    %rdi,-0x10(%rbp)
  4096a8:	c7 45 ec 00 00 00 00 	movl   $0x0,-0x14(%rbp)
  4096af:	c7 45 e4 01 00 00 00 	movl   $0x1,-0x1c(%rbp)
  4096b6:	48 83 7d f0 00       	cmpq   $0x0,-0x10(%rbp)
  4096bb:	0f 84 10 00 00 00    	je     4096d1 <is_overflow+0x31>
  4096c1:	48 8b 45 f0          	mov    -0x10(%rbp),%rax
  4096c5:	0f be 00             	movsbl (%rax),%eax
  4096c8:	83 f8 00             	cmp    $0x0,%eax
  4096cb:	0f 85 0c 00 00 00    	jne    4096dd <is_overflow+0x3d>
  4096d1:	c7 45 fc 01 00 00 00 	movl   $0x1,-0x4(%rbp)
  4096d8:	e9 10 01 00 00       	jmp    4097ed <is_overflow+0x14d>
  4096dd:	48 8b 45 f0          	mov    -0x10(%rbp),%rax
  4096e1:	0f be 00             	movsbl (%rax),%eax
  4096e4:	83 f8 2d             	cmp    $0x2d,%eax
  4096e7:	0f 85 07 00 00 00    	jne    4096f4 <is_overflow+0x54>
  4096ed:	c7 45 e4 ff ff ff ff 	movl   $0xffffffff,-0x1c(%rbp)
  4096f4:	48 8b 45 f0          	mov    -0x10(%rbp),%rax
  4096f8:	0f be 00             	movsbl (%rax),%eax
  4096fb:	83 f8 2b             	cmp    $0x2b,%eax
  4096fe:	0f 84 10 00 00 00    	je     409714 <is_overflow+0x74>
  409704:	48 8b 45 f0          	mov    -0x10(%rbp),%rax
  409708:	0f be 00             	movsbl (%rax),%eax
  40970b:	83 f8 2d             	cmp    $0x2d,%eax
  40970e:	0f 85 0c 00 00 00    	jne    409720 <is_overflow+0x80>
  409714:	48 8b 45 f0          	mov    -0x10(%rbp),%rax
  409718:	48 83 c0 01          	add    $0x1,%rax
  40971c:	48 89 45 f0          	mov    %rax,-0x10(%rbp)
  409720:	e9 00 00 00 00       	jmp    409725 <is_overflow+0x85>
  409725:	48 8b 45 f0          	mov    -0x10(%rbp),%rax
  409729:	0f be 00             	movsbl (%rax),%eax
  40972c:	83 f8 00             	cmp    $0x0,%eax
  40972f:	0f 84 b1 00 00 00    	je     4097e6 <is_overflow+0x146>
  409735:	48 8b 45 f0          	mov    -0x10(%rbp),%rax
  409739:	0f be 00             	movsbl (%rax),%eax
  40973c:	83 e8 30             	sub    $0x30,%eax
  40973f:	89 45 e8             	mov    %eax,-0x18(%rbp)
  409742:	83 7d e4 01          	cmpl   $0x1,-0x1c(%rbp)
  409746:	0f 85 30 00 00 00    	jne    40977c <is_overflow+0xdc>
  40974c:	81 7d ec cc cc cc 0c 	cmpl   $0xccccccc,-0x14(%rbp)
  409753:	0f 8f 17 00 00 00    	jg     409770 <is_overflow+0xd0>
  409759:	81 7d ec cc cc cc 0c 	cmpl   $0xccccccc,-0x14(%rbp)
  409760:	0f 8c 16 00 00 00    	jl     40977c <is_overflow+0xdc>
  409766:	83 7d e8 07          	cmpl   $0x7,-0x18(%rbp)
  40976a:	0f 8e 0c 00 00 00    	jle    40977c <is_overflow+0xdc>
  409770:	c7 45 fc 01 00 00 00 	movl   $0x1,-0x4(%rbp)
  409777:	e9 71 00 00 00       	jmp    4097ed <is_overflow+0x14d>
  40977c:	83 7d e4 ff          	cmpl   $0xffffffff,-0x1c(%rbp)
  409780:	0f 85 3a 00 00 00    	jne    4097c0 <is_overflow+0x120>
  409786:	48 63 45 ec          	movslq -0x14(%rbp),%rax
  40978a:	48 3d 34 33 33 f3    	cmp    $0xfffffffff3333334,%rax
  409790:	0f 8c 1e 00 00 00    	jl     4097b4 <is_overflow+0x114>
  409796:	48 63 45 ec          	movslq -0x14(%rbp),%rax
  40979a:	48 3d 34 33 33 f3    	cmp    $0xfffffffff3333334,%rax
  4097a0:	0f 8f 1a 00 00 00    	jg     4097c0 <is_overflow+0x120>
  4097a6:	48 63 45 e8          	movslq -0x18(%rbp),%rax
  4097aa:	48 83 f8 08          	cmp    $0x8,%rax
  4097ae:	0f 8e 0c 00 00 00    	jle    4097c0 <is_overflow+0x120>
  4097b4:	c7 45 fc 01 00 00 00 	movl   $0x1,-0x4(%rbp)
  4097bb:	e9 2d 00 00 00       	jmp    4097ed <is_overflow+0x14d>
  4097c0:	e9 00 00 00 00       	jmp    4097c5 <is_overflow+0x125>
  4097c5:	6b 45 ec 0a          	imul   $0xa,-0x14(%rbp),%eax
  4097c9:	8b 4d e4             	mov    -0x1c(%rbp),%ecx
  4097cc:	0f af 4d e8          	imul   -0x18(%rbp),%ecx
  4097d0:	01 c8                	add    %ecx,%eax
  4097d2:	89 45 ec             	mov    %eax,-0x14(%rbp)
  4097d5:	48 8b 45 f0          	mov    -0x10(%rbp),%rax
  4097d9:	48 83 c0 01          	add    $0x1,%rax
  4097dd:	48 89 45 f0          	mov    %rax,-0x10(%rbp)
  4097e1:	e9 3f ff ff ff       	jmp    409725 <is_overflow+0x85>
  4097e6:	c7 45 fc 00 00 00 00 	movl   $0x0,-0x4(%rbp)
  4097ed:	8b 45 fc             	mov    -0x4(%rbp),%eax
  4097f0:	5d                   	pop    %rbp
  4097f1:	c3                   	ret    
  4097f2:	66 2e 0f 1f 84 00 00 	cs nopw 0x0(%rax,%rax,1)
  4097f9:	00 00 00 
  4097fc:	0f 1f 40 00          	nopl   0x0(%rax)

0000000000409800 <clear_thrash_list>:
  409800:	55                   	push   %rbp
  409801:	48 89 e5             	mov    %rsp,%rbp
  409804:	48 83 ec 20          	sub    $0x20,%rsp
  409808:	48 89 7d f8          	mov    %rdi,-0x8(%rbp)
  40980c:	48 8b 45 f8          	mov    -0x8(%rbp),%rax
  409810:	48 8b 80 98 00 00 00 	mov    0x98(%rax),%rax
  409817:	48 89 45 f0          	mov    %rax,-0x10(%rbp)
  40981b:	48 83 7d f0 00       	cmpq   $0x0,-0x10(%rbp)
  409820:	0f 84 47 00 00 00    	je     40986d <clear_thrash_list+0x6d>
  409826:	48 8b 45 f0          	mov    -0x10(%rbp),%rax
  40982a:	48 8b 40 10          	mov    0x10(%rax),%rax
  40982e:	48 89 45 e8          	mov    %rax,-0x18(%rbp)
  409832:	48 8b 45 f0          	mov    -0x10(%rbp),%rax
  409836:	48 83 38 00          	cmpq   $0x0,(%rax)
  40983a:	0f 84 17 00 00 00    	je     409857 <clear_thrash_list+0x57>
  409840:	48 8b 45 f0          	mov    -0x10(%rbp),%rax
  409844:	48 8b 38             	mov    (%rax),%rdi
  409847:	e8 e4 77 ff ff       	call   401030 <free@plt>
  40984c:	48 8b 45 f0          	mov    -0x10(%rbp),%rax
  409850:	48 c7 00 00 00 00 00 	movq   $0x0,(%rax)
  409857:	48 8b 7d f0          	mov    -0x10(%rbp),%rdi
  40985b:	e8 d0 77 ff ff       	call   401030 <free@plt>
  409860:	48 8b 45 e8          	mov    -0x18(%rbp),%rax
  409864:	48 89 45 f0          	mov    %rax,-0x10(%rbp)
  409868:	e9 ae ff ff ff       	jmp    40981b <clear_thrash_list+0x1b>
  40986d:	48 8b 45 f8          	mov    -0x8(%rbp),%rax
  409871:	48 c7 80 98 00 00 00 	movq   $0x0,0x98(%rax)
  409878:	00 00 00 00 
  40987c:	48 83 c4 20          	add    $0x20,%rsp
  409880:	5d                   	pop    %rbp
  409881:	c3                   	ret    
  409882:	66 2e 0f 1f 84 00 00 	cs nopw 0x0(%rax,%rax,1)
  409889:	00 00 00 
  40988c:	0f 1f 40 00          	nopl   0x0(%rax)

0000000000409890 <add_string_to_thrash_list>:
  409890:	55                   	push   %rbp
  409891:	48 89 e5             	mov    %rsp,%rbp
  409894:	48 83 ec 20          	sub    $0x20,%rsp
  409898:	48 89 7d f8          	mov    %rdi,-0x8(%rbp)
  40989c:	48 89 75 f0          	mov    %rsi,-0x10(%rbp)
  4098a0:	48 8b 7d f8          	mov    -0x8(%rbp),%rdi
  4098a4:	48 8b 75 f0          	mov    -0x10(%rbp),%rsi
  4098a8:	e8 23 00 00 00       	call   4098d0 <create_thrash_node>
  4098ad:	48 89 45 e8          	mov    %rax,-0x18(%rbp)
  4098b1:	48 8b 7d f8          	mov    -0x8(%rbp),%rdi
  4098b5:	48 8b 75 e8          	mov    -0x18(%rbp),%rsi
  4098b9:	e8 b2 00 00 00       	call   409970 <add_thrash_node_to_list>
  4098be:	48 83 c4 20          	add    $0x20,%rsp
  4098c2:	5d                   	pop    %rbp
  4098c3:	c3                   	ret    
  4098c4:	66 2e 0f 1f 84 00 00 	cs nopw 0x0(%rax,%rax,1)
  4098cb:	00 00 00 
  4098ce:	66 90                	xchg   %ax,%ax

00000000004098d0 <create_thrash_node>:
  4098d0:	55                   	push   %rbp
  4098d1:	48 89 e5             	mov    %rsp,%rbp
  4098d4:	48 83 ec 20          	sub    $0x20,%rsp
  4098d8:	48 89 7d f0          	mov    %rdi,-0x10(%rbp)
  4098dc:	48 89 75 e8          	mov    %rsi,-0x18(%rbp)
  4098e0:	48 83 7d e8 00       	cmpq   $0x0,-0x18(%rbp)
  4098e5:	0f 85 0d 00 00 00    	jne    4098f8 <create_thrash_node+0x28>
  4098eb:	48 c7 45 f8 00 00 00 	movq   $0x0,-0x8(%rbp)
  4098f2:	00 
  4098f3:	e9 6b 00 00 00       	jmp    409963 <create_thrash_node+0x93>
  4098f8:	bf 18 00 00 00       	mov    $0x18,%edi
  4098fd:	e8 2e 78 ff ff       	call   401130 <malloc@plt>
  409902:	48 89 45 e0          	mov    %rax,-0x20(%rbp)
  409906:	48 83 7d e0 00       	cmpq   $0x0,-0x20(%rbp)
  40990b:	0f 85 1c 00 00 00    	jne    40992d <create_thrash_node+0x5d>
  409911:	48 8b 7d f0          	mov    -0x10(%rbp),%rdi
  409915:	48 be 51 cb 40 00 00 	movabs $0x40cb51,%rsi
  40991c:	00 00 00 
  40991f:	31 c0                	xor    %eax,%eax
  409921:	89 c2                	mov    %eax,%edx
  409923:	b9 ff 00 00 00       	mov    $0xff,%ecx
  409928:	e8 d3 e1 ff ff       	call   407b00 <snuff_it>
  40992d:	48 8b 45 e0          	mov    -0x20(%rbp),%rax
  409931:	48 c7 00 00 00 00 00 	movq   $0x0,(%rax)
  409938:	48 8b 4d e8          	mov    -0x18(%rbp),%rcx
  40993c:	48 8b 45 e0          	mov    -0x20(%rbp),%rax
  409940:	48 89 08             	mov    %rcx,(%rax)
  409943:	48 8b 45 e0          	mov    -0x20(%rbp),%rax
  409947:	48 c7 40 08 00 00 00 	movq   $0x0,0x8(%rax)
  40994e:	00 
  40994f:	48 8b 45 e0          	mov    -0x20(%rbp),%rax
  409953:	48 c7 40 10 00 00 00 	movq   $0x0,0x10(%rax)
  40995a:	00 
  40995b:	48 8b 45 e0          	mov    -0x20(%rbp),%rax
  40995f:	48 89 45 f8          	mov    %rax,-0x8(%rbp)
  409963:	48 8b 45 f8          	mov    -0x8(%rbp),%rax
  409967:	48 83 c4 20          	add    $0x20,%rsp
  40996b:	5d                   	pop    %rbp
  40996c:	c3                   	ret    
  40996d:	0f 1f 00             	nopl   (%rax)

0000000000409970 <add_thrash_node_to_list>:
  409970:	55                   	push   %rbp
  409971:	48 89 e5             	mov    %rsp,%rbp
  409974:	48 89 7d f8          	mov    %rdi,-0x8(%rbp)
  409978:	48 89 75 f0          	mov    %rsi,-0x10(%rbp)
  40997c:	48 83 7d f0 00       	cmpq   $0x0,-0x10(%rbp)
  409981:	0f 85 05 00 00 00    	jne    40998c <add_thrash_node_to_list+0x1c>
  409987:	e9 6d 00 00 00       	jmp    4099f9 <add_thrash_node_to_list+0x89>
  40998c:	48 8b 45 f8          	mov    -0x8(%rbp),%rax
  409990:	48 83 b8 98 00 00 00 	cmpq   $0x0,0x98(%rax)
  409997:	00 
  409998:	0f 85 14 00 00 00    	jne    4099b2 <add_thrash_node_to_list+0x42>
  40999e:	48 8b 4d f0          	mov    -0x10(%rbp),%rcx
  4099a2:	48 8b 45 f8          	mov    -0x8(%rbp),%rax
  4099a6:	48 89 88 98 00 00 00 	mov    %rcx,0x98(%rax)
  4099ad:	e9 47 00 00 00       	jmp    4099f9 <add_thrash_node_to_list+0x89>
  4099b2:	48 8b 45 f8          	mov    -0x8(%rbp),%rax
  4099b6:	48 8b 80 98 00 00 00 	mov    0x98(%rax),%rax
  4099bd:	48 89 45 e8          	mov    %rax,-0x18(%rbp)
  4099c1:	48 8b 45 e8          	mov    -0x18(%rbp),%rax
  4099c5:	48 83 78 10 00       	cmpq   $0x0,0x10(%rax)
  4099ca:	0f 84 11 00 00 00    	je     4099e1 <add_thrash_node_to_list+0x71>
  4099d0:	48 8b 45 e8          	mov    -0x18(%rbp),%rax
  4099d4:	48 8b 40 10          	mov    0x10(%rax),%rax
  4099d8:	48 89 45 e8          	mov    %rax,-0x18(%rbp)
  4099dc:	e9 e0 ff ff ff       	jmp    4099c1 <add_thrash_node_to_list+0x51>
  4099e1:	48 8b 4d f0          	mov    -0x10(%rbp),%rcx
  4099e5:	48 8b 45 e8          	mov    -0x18(%rbp),%rax
  4099e9:	48 89 48 10          	mov    %rcx,0x10(%rax)
  4099ed:	48 8b 4d e8          	mov    -0x18(%rbp),%rcx
  4099f1:	48 8b 45 f0          	mov    -0x10(%rbp),%rax
  4099f5:	48 89 48 08          	mov    %rcx,0x8(%rax)
  4099f9:	5d                   	pop    %rbp
  4099fa:	c3                   	ret    
  4099fb:	0f 1f 44 00 00       	nopl   0x0(%rax,%rax,1)

0000000000409a00 <get_hash>:
  409a00:	55                   	push   %rbp
  409a01:	48 89 e5             	mov    %rsp,%rbp
  409a04:	48 89 7d f8          	mov    %rdi,-0x8(%rbp)
  409a08:	48 8b 75 f8          	mov    -0x8(%rbp),%rsi
  409a0c:	bf e8 03 00 00       	mov    $0x3e8,%edi
  409a11:	53                   	push   %rbx
  409a12:	48 89 f3             	mov    %rsi,%rbx
  409a15:	48 31 c0             	xor    %rax,%rax
  409a18:	48 31 c9             	xor    %rcx,%rcx
  409a1b:	48 31 d2             	xor    %rdx,%rdx
  409a1e:	8a 0b                	mov    (%rbx),%cl
  409a20:	80 f9 00             	cmp    $0x0,%cl
  409a23:	0f 84 18 00 00 00    	je     409a41 <get_hash+0x41>
  409a29:	48 6b c0 1f          	imul   $0x1f,%rax,%rax
  409a2d:	48 0f b6 c9          	movzbq %cl,%rcx
  409a31:	48 01 c8             	add    %rcx,%rax
  409a34:	f7 f7                	div    %edi
  409a36:	48 89 d0             	mov    %rdx,%rax
  409a39:	48 ff c3             	inc    %rbx
  409a3c:	e9 dd ff ff ff       	jmp    409a1e <get_hash+0x1e>
  409a41:	48 89 c6             	mov    %rax,%rsi
  409a44:	5b                   	pop    %rbx
  409a45:	48 89 75 e8          	mov    %rsi,-0x18(%rbp)
  409a49:	48 8b 45 e8          	mov    -0x18(%rbp),%rax
  409a4d:	48 89 45 f0          	mov    %rax,-0x10(%rbp)
  409a51:	48 8b 45 f0          	mov    -0x10(%rbp),%rax
  409a55:	5d                   	pop    %rbp
  409a56:	c3                   	ret    
  409a57:	66 0f 1f 84 00 00 00 	nopw   0x0(%rax,%rax,1)
  409a5e:	00 00 

0000000000409a60 <get_hash2>:
  409a60:	55                   	push   %rbp
  409a61:	48 89 e5             	mov    %rsp,%rbp
  409a64:	48 89 7d f8          	mov    %rdi,-0x8(%rbp)
  409a68:	48 8b 75 f8          	mov    -0x8(%rbp),%rsi
  409a6c:	53                   	push   %rbx
  409a6d:	48 8d 1e             	lea    (%rsi),%rbx
  409a70:	48 31 c0             	xor    %rax,%rax
  409a73:	4d 31 c0             	xor    %r8,%r8
  409a76:	8a 13                	mov    (%rbx),%dl
  409a78:	80 fa 00             	cmp    $0x0,%dl
  409a7b:	0f 84 1d 00 00 00    	je     409a9e <get_hash2+0x3e>
  409a81:	b9 11 00 00 00       	mov    $0x11,%ecx
  409a86:	48 0f b6 d2          	movzbq %dl,%rdx
  409a8a:	48 f7 e1             	mul    %rcx
  409a8d:	48 01 d0             	add    %rdx,%rax
  409a90:	4c 01 c0             	add    %r8,%rax
  409a93:	48 ff c3             	inc    %rbx
  409a96:	49 ff c0             	inc    %r8
  409a99:	e9 d8 ff ff ff       	jmp    409a76 <get_hash2+0x16>
  409a9e:	48 89 c6             	mov    %rax,%rsi
  409aa1:	5b                   	pop    %rbx
  409aa2:	48 89 75 e8          	mov    %rsi,-0x18(%rbp)
  409aa6:	48 8b 45 e8          	mov    -0x18(%rbp),%rax
  409aaa:	48 89 45 f0          	mov    %rax,-0x10(%rbp)
  409aae:	48 8b 45 f0          	mov    -0x10(%rbp),%rax
  409ab2:	5d                   	pop    %rbp
  409ab3:	c3                   	ret    
  409ab4:	66 2e 0f 1f 84 00 00 	cs nopw 0x0(%rax,%rax,1)
  409abb:	00 00 00 
  409abe:	66 90                	xchg   %ax,%ax

0000000000409ac0 <store_data>:
  409ac0:	55                   	push   %rbp
  409ac1:	48 89 e5             	mov    %rsp,%rbp
  409ac4:	48 83 ec 30          	sub    $0x30,%rsp
  409ac8:	48 89 7d f0          	mov    %rdi,-0x10(%rbp)
  409acc:	48 89 75 e8          	mov    %rsi,-0x18(%rbp)
  409ad0:	48 89 55 e0          	mov    %rdx,-0x20(%rbp)
  409ad4:	48 8b 7d e8          	mov    -0x18(%rbp),%rdi
  409ad8:	e8 23 ff ff ff       	call   409a00 <get_hash>
  409add:	48 89 45 d0          	mov    %rax,-0x30(%rbp)
  409ae1:	48 8b 45 f0          	mov    -0x10(%rbp),%rax
  409ae5:	48 8b 4d d0          	mov    -0x30(%rbp),%rcx
  409ae9:	48 83 3c c8 00       	cmpq   $0x0,(%rax,%rcx,8)
  409aee:	0f 84 0c 00 00 00    	je     409b00 <store_data+0x40>
  409af4:	c7 45 fc 01 00 00 00 	movl   $0x1,-0x4(%rbp)
  409afb:	e9 de 00 00 00       	jmp    409bde <store_data+0x11e>
  409b00:	bf 20 00 00 00       	mov    $0x20,%edi
  409b05:	e8 26 76 ff ff       	call   401130 <malloc@plt>
  409b0a:	48 89 45 d8          	mov    %rax,-0x28(%rbp)
  409b0e:	48 83 7d d8 00       	cmpq   $0x0,-0x28(%rbp)
  409b13:	0f 85 0c 00 00 00    	jne    409b25 <store_data+0x65>
  409b19:	c7 45 fc 00 00 00 00 	movl   $0x0,-0x4(%rbp)
  409b20:	e9 b9 00 00 00       	jmp    409bde <store_data+0x11e>
  409b25:	48 8b 7d e8          	mov    -0x18(%rbp),%rdi
  409b29:	e8 12 11 00 00       	call   40ac40 <ft_strdup>
  409b2e:	48 89 c1             	mov    %rax,%rcx
  409b31:	48 8b 45 d8          	mov    -0x28(%rbp),%rax
  409b35:	48 89 08             	mov    %rcx,(%rax)
  409b38:	48 8b 45 d8          	mov    -0x28(%rbp),%rax
  409b3c:	48 83 38 00          	cmpq   $0x0,(%rax)
  409b40:	0f 85 15 00 00 00    	jne    409b5b <store_data+0x9b>
  409b46:	48 8b 7d d8          	mov    -0x28(%rbp),%rdi
  409b4a:	e8 e1 74 ff ff       	call   401030 <free@plt>
  409b4f:	c7 45 fc 00 00 00 00 	movl   $0x0,-0x4(%rbp)
  409b56:	e9 83 00 00 00       	jmp    409bde <store_data+0x11e>
  409b5b:	48 8b 7d e0          	mov    -0x20(%rbp),%rdi
  409b5f:	e8 dc 10 00 00       	call   40ac40 <ft_strdup>
  409b64:	48 89 c1             	mov    %rax,%rcx
  409b67:	48 8b 45 d8          	mov    -0x28(%rbp),%rax
  409b6b:	48 89 48 08          	mov    %rcx,0x8(%rax)
  409b6f:	48 8b 45 d8          	mov    -0x28(%rbp),%rax
  409b73:	48 83 78 08 00       	cmpq   $0x0,0x8(%rax)
  409b78:	0f 85 21 00 00 00    	jne    409b9f <store_data+0xdf>
  409b7e:	48 8b 45 d8          	mov    -0x28(%rbp),%rax
  409b82:	48 8b 38             	mov    (%rax),%rdi
  409b85:	e8 a6 74 ff ff       	call   401030 <free@plt>
  409b8a:	48 8b 7d d8          	mov    -0x28(%rbp),%rdi
  409b8e:	e8 9d 74 ff ff       	call   401030 <free@plt>
  409b93:	c7 45 fc 00 00 00 00 	movl   $0x0,-0x4(%rbp)
  409b9a:	e9 3f 00 00 00       	jmp    409bde <store_data+0x11e>
  409b9f:	48 8b 7d e8          	mov    -0x18(%rbp),%rdi
  409ba3:	e8 b8 fe ff ff       	call   409a60 <get_hash2>
  409ba8:	48 89 c1             	mov    %rax,%rcx
  409bab:	48 8b 45 d8          	mov    -0x28(%rbp),%rax
  409baf:	48 89 48 10          	mov    %rcx,0x10(%rax)
  409bb3:	48 8b 45 f0          	mov    -0x10(%rbp),%rax
  409bb7:	48 8b 4d d0          	mov    -0x30(%rbp),%rcx
  409bbb:	48 8b 0c c8          	mov    (%rax,%rcx,8),%rcx
  409bbf:	48 8b 45 d8          	mov    -0x28(%rbp),%rax
  409bc3:	48 89 48 18          	mov    %rcx,0x18(%rax)
  409bc7:	48 8b 55 d8          	mov    -0x28(%rbp),%rdx
  409bcb:	48 8b 45 f0          	mov    -0x10(%rbp),%rax
  409bcf:	48 8b 4d d0          	mov    -0x30(%rbp),%rcx
  409bd3:	48 89 14 c8          	mov    %rdx,(%rax,%rcx,8)
  409bd7:	c7 45 fc 01 00 00 00 	movl   $0x1,-0x4(%rbp)
  409bde:	8b 45 fc             	mov    -0x4(%rbp),%eax
  409be1:	48 83 c4 30          	add    $0x30,%rsp
  409be5:	5d                   	pop    %rbp
  409be6:	c3                   	ret    
  409be7:	66 0f 1f 84 00 00 00 	nopw   0x0(%rax,%rax,1)
  409bee:	00 00 

0000000000409bf0 <hash_lookup>:
  409bf0:	55                   	push   %rbp
  409bf1:	48 89 e5             	mov    %rsp,%rbp
  409bf4:	48 83 ec 40          	sub    $0x40,%rsp
  409bf8:	48 89 7d f0          	mov    %rdi,-0x10(%rbp)
  409bfc:	48 89 75 e8          	mov    %rsi,-0x18(%rbp)
  409c00:	48 8b 7d e8          	mov    -0x18(%rbp),%rdi
  409c04:	e8 f7 fd ff ff       	call   409a00 <get_hash>
  409c09:	48 89 45 e0          	mov    %rax,-0x20(%rbp)
  409c0d:	48 8b 45 f0          	mov    -0x10(%rbp),%rax
  409c11:	48 8b 4d e0          	mov    -0x20(%rbp),%rcx
  409c15:	48 83 3c c8 00       	cmpq   $0x0,(%rax,%rcx,8)
  409c1a:	0f 85 0d 00 00 00    	jne    409c2d <hash_lookup+0x3d>
  409c20:	48 c7 45 f8 00 00 00 	movq   $0x0,-0x8(%rbp)
  409c27:	00 
  409c28:	e9 89 00 00 00       	jmp    409cb6 <hash_lookup+0xc6>
  409c2d:	48 8b 7d e8          	mov    -0x18(%rbp),%rdi
  409c31:	e8 2a fe ff ff       	call   409a60 <get_hash2>
  409c36:	48 89 45 d8          	mov    %rax,-0x28(%rbp)
  409c3a:	48 8b 45 f0          	mov    -0x10(%rbp),%rax
  409c3e:	48 8b 4d e0          	mov    -0x20(%rbp),%rcx
  409c42:	48 8b 04 c8          	mov    (%rax,%rcx,8),%rax
  409c46:	48 89 45 d0          	mov    %rax,-0x30(%rbp)
  409c4a:	31 c0                	xor    %eax,%eax
  409c4c:	48 83 7d d0 00       	cmpq   $0x0,-0x30(%rbp)
  409c51:	88 45 cf             	mov    %al,-0x31(%rbp)
  409c54:	0f 84 12 00 00 00    	je     409c6c <hash_lookup+0x7c>
  409c5a:	48 8b 45 d0          	mov    -0x30(%rbp),%rax
  409c5e:	48 8b 40 10          	mov    0x10(%rax),%rax
  409c62:	48 3b 45 d8          	cmp    -0x28(%rbp),%rax
  409c66:	0f 95 c0             	setne  %al
  409c69:	88 45 cf             	mov    %al,-0x31(%rbp)
  409c6c:	8a 45 cf             	mov    -0x31(%rbp),%al
  409c6f:	a8 01                	test   $0x1,%al
  409c71:	0f 85 05 00 00 00    	jne    409c7c <hash_lookup+0x8c>
  409c77:	e9 11 00 00 00       	jmp    409c8d <hash_lookup+0x9d>
  409c7c:	48 8b 45 d0          	mov    -0x30(%rbp),%rax
  409c80:	48 8b 40 18          	mov    0x18(%rax),%rax
  409c84:	48 89 45 d0          	mov    %rax,-0x30(%rbp)
  409c88:	e9 bd ff ff ff       	jmp    409c4a <hash_lookup+0x5a>
  409c8d:	48 83 7d d0 00       	cmpq   $0x0,-0x30(%rbp)
  409c92:	0f 84 16 00 00 00    	je     409cae <hash_lookup+0xbe>
  409c98:	48 8b 45 d0          	mov    -0x30(%rbp),%rax
  409c9c:	48 8b 78 08          	mov    0x8(%rax),%rdi
  409ca0:	e8 9b 0f 00 00       	call   40ac40 <ft_strdup>
  409ca5:	48 89 45 f8          	mov    %rax,-0x8(%rbp)
  409ca9:	e9 08 00 00 00       	jmp    409cb6 <hash_lookup+0xc6>
  409cae:	48 c7 45 f8 00 00 00 	movq   $0x0,-0x8(%rbp)
  409cb5:	00 
  409cb6:	48 8b 45 f8          	mov    -0x8(%rbp),%rax
  409cba:	48 83 c4 40          	add    $0x40,%rsp
  409cbe:	5d                   	pop    %rbp
  409cbf:	c3                   	ret    

0000000000409cc0 <free_hashtable>:
  409cc0:	55                   	push   %rbp
  409cc1:	48 89 e5             	mov    %rsp,%rbp
  409cc4:	48 83 ec 30          	sub    $0x30,%rsp
  409cc8:	40 88 f0             	mov    %sil,%al
  409ccb:	48 89 7d f8          	mov    %rdi,-0x8(%rbp)
  409ccf:	24 01                	and    $0x1,%al
  409cd1:	88 45 f7             	mov    %al,-0x9(%rbp)
  409cd4:	48 c7 45 e8 00 00 00 	movq   $0x0,-0x18(%rbp)
  409cdb:	00 
  409cdc:	48 81 7d e8 e8 03 00 	cmpq   $0x3e8,-0x18(%rbp)
  409ce3:	00 
  409ce4:	0f 83 77 00 00 00    	jae    409d61 <free_hashtable+0xa1>
  409cea:	48 8b 45 f8          	mov    -0x8(%rbp),%rax
  409cee:	48 8b 4d e8          	mov    -0x18(%rbp),%rcx
  409cf2:	48 8b 04 c8          	mov    (%rax,%rcx,8),%rax
  409cf6:	48 89 45 e0          	mov    %rax,-0x20(%rbp)
  409cfa:	48 83 7d e0 00       	cmpq   $0x0,-0x20(%rbp)
  409cff:	0f 84 3b 00 00 00    	je     409d40 <free_hashtable+0x80>
  409d05:	48 8b 45 e0          	mov    -0x20(%rbp),%rax
  409d09:	48 8b 38             	mov    (%rax),%rdi
  409d0c:	e8 1f 73 ff ff       	call   401030 <free@plt>
  409d11:	48 8b 45 e0          	mov    -0x20(%rbp),%rax
  409d15:	48 8b 78 08          	mov    0x8(%rax),%rdi
  409d19:	e8 12 73 ff ff       	call   401030 <free@plt>
  409d1e:	48 8b 45 e0          	mov    -0x20(%rbp),%rax
  409d22:	48 89 45 d8          	mov    %rax,-0x28(%rbp)
  409d26:	48 8b 45 e0          	mov    -0x20(%rbp),%rax
  409d2a:	48 8b 40 18          	mov    0x18(%rax),%rax
  409d2e:	48 89 45 e0          	mov    %rax,-0x20(%rbp)
  409d32:	48 8b 7d d8          	mov    -0x28(%rbp),%rdi
  409d36:	e8 f5 72 ff ff       	call   401030 <free@plt>
  409d3b:	e9 ba ff ff ff       	jmp    409cfa <free_hashtable+0x3a>
  409d40:	48 8b 45 f8          	mov    -0x8(%rbp),%rax
  409d44:	48 8b 4d e8          	mov    -0x18(%rbp),%rcx
  409d48:	48 c7 04 c8 00 00 00 	movq   $0x0,(%rax,%rcx,8)
  409d4f:	00 
  409d50:	48 8b 45 e8          	mov    -0x18(%rbp),%rax
  409d54:	48 83 c0 01          	add    $0x1,%rax
  409d58:	48 89 45 e8          	mov    %rax,-0x18(%rbp)
  409d5c:	e9 7b ff ff ff       	jmp    409cdc <free_hashtable+0x1c>
  409d61:	f6 45 f7 01          	testb  $0x1,-0x9(%rbp)
  409d65:	0f 84 09 00 00 00    	je     409d74 <free_hashtable+0xb4>
  409d6b:	48 8b 7d f8          	mov    -0x8(%rbp),%rdi
  409d6f:	e8 bc 72 ff ff       	call   401030 <free@plt>
  409d74:	48 83 c4 30          	add    $0x30,%rsp
  409d78:	5d                   	pop    %rbp
  409d79:	c3                   	ret    
  409d7a:	66 0f 1f 44 00 00    	nopw   0x0(%rax,%rax,1)

0000000000409d80 <ft_substr_prot>:
  409d80:	55                   	push   %rbp
  409d81:	48 89 e5             	mov    %rsp,%rbp
  409d84:	48 83 ec 30          	sub    $0x30,%rsp
  409d88:	48 89 7d f8          	mov    %rdi,-0x8(%rbp)
  409d8c:	48 89 75 f0          	mov    %rsi,-0x10(%rbp)
  409d90:	89 55 ec             	mov    %edx,-0x14(%rbp)
  409d93:	89 4d e8             	mov    %ecx,-0x18(%rbp)
  409d96:	8b 45 ec             	mov    -0x14(%rbp),%eax
  409d99:	89 45 dc             	mov    %eax,-0x24(%rbp)
  409d9c:	48 8b 7d f0          	mov    -0x10(%rbp),%rdi
  409da0:	e8 0b 06 00 00       	call   40a3b0 <ft_strlen>
  409da5:	89 45 d8             	mov    %eax,-0x28(%rbp)
  409da8:	8b 45 ec             	mov    -0x14(%rbp),%eax
  409dab:	03 45 e8             	add    -0x18(%rbp),%eax
  409dae:	3b 45 d8             	cmp    -0x28(%rbp),%eax
  409db1:	0f 8e 09 00 00 00    	jle    409dc0 <ft_substr_prot+0x40>
  409db7:	8b 45 d8             	mov    -0x28(%rbp),%eax
  409dba:	2b 45 ec             	sub    -0x14(%rbp),%eax
  409dbd:	89 45 e8             	mov    %eax,-0x18(%rbp)
  409dc0:	8b 45 e8             	mov    -0x18(%rbp),%eax
  409dc3:	83 c0 01             	add    $0x1,%eax
  409dc6:	48 63 f8             	movslq %eax,%rdi
  409dc9:	48 c1 e7 00          	shl    $0x0,%rdi
  409dcd:	e8 5e 73 ff ff       	call   401130 <malloc@plt>
  409dd2:	48 89 45 e0          	mov    %rax,-0x20(%rbp)
  409dd6:	48 83 7d e0 00       	cmpq   $0x0,-0x20(%rbp)
  409ddb:	0f 85 1c 00 00 00    	jne    409dfd <ft_substr_prot+0x7d>
  409de1:	48 8b 7d f8          	mov    -0x8(%rbp),%rdi
  409de5:	48 be 6c cb 40 00 00 	movabs $0x40cb6c,%rsi
  409dec:	00 00 00 
  409def:	31 c0                	xor    %eax,%eax
  409df1:	89 c2                	mov    %eax,%edx
  409df3:	b9 ff 00 00 00       	mov    $0xff,%ecx
  409df8:	e8 03 dd ff ff       	call   407b00 <snuff_it>
  409dfd:	e9 00 00 00 00       	jmp    409e02 <ft_substr_prot+0x82>
  409e02:	48 8b 45 f0          	mov    -0x10(%rbp),%rax
  409e06:	48 63 4d dc          	movslq -0x24(%rbp),%rcx
  409e0a:	0f be 0c 08          	movsbl (%rax,%rcx,1),%ecx
  409e0e:	31 c0                	xor    %eax,%eax
  409e10:	83 f9 00             	cmp    $0x0,%ecx
  409e13:	88 45 d7             	mov    %al,-0x29(%rbp)
  409e16:	0f 84 0a 00 00 00    	je     409e26 <ft_substr_prot+0xa6>
  409e1c:	83 7d e8 00          	cmpl   $0x0,-0x18(%rbp)
  409e20:	0f 9f c0             	setg   %al
  409e23:	88 45 d7             	mov    %al,-0x29(%rbp)
  409e26:	8a 45 d7             	mov    -0x29(%rbp),%al
  409e29:	a8 01                	test   $0x1,%al
  409e2b:	0f 85 05 00 00 00    	jne    409e36 <ft_substr_prot+0xb6>
  409e31:	e9 32 00 00 00       	jmp    409e68 <ft_substr_prot+0xe8>
  409e36:	48 8b 45 f0          	mov    -0x10(%rbp),%rax
  409e3a:	48 63 4d dc          	movslq -0x24(%rbp),%rcx
  409e3e:	8a 14 08             	mov    (%rax,%rcx,1),%dl
  409e41:	48 8b 45 e0          	mov    -0x20(%rbp),%rax
  409e45:	8b 4d dc             	mov    -0x24(%rbp),%ecx
  409e48:	2b 4d ec             	sub    -0x14(%rbp),%ecx
  409e4b:	48 63 c9             	movslq %ecx,%rcx
  409e4e:	88 14 08             	mov    %dl,(%rax,%rcx,1)
  409e51:	8b 45 e8             	mov    -0x18(%rbp),%eax
  409e54:	83 c0 ff             	add    $0xffffffff,%eax
  409e57:	89 45 e8             	mov    %eax,-0x18(%rbp)
  409e5a:	8b 45 dc             	mov    -0x24(%rbp),%eax
  409e5d:	83 c0 01             	add    $0x1,%eax
  409e60:	89 45 dc             	mov    %eax,-0x24(%rbp)
  409e63:	e9 9a ff ff ff       	jmp    409e02 <ft_substr_prot+0x82>
  409e68:	48 8b 45 e0          	mov    -0x20(%rbp),%rax
  409e6c:	8b 4d dc             	mov    -0x24(%rbp),%ecx
  409e6f:	2b 4d ec             	sub    -0x14(%rbp),%ecx
  409e72:	48 63 c9             	movslq %ecx,%rcx
  409e75:	c6 04 08 00          	movb   $0x0,(%rax,%rcx,1)
  409e79:	48 8b 45 e0          	mov    -0x20(%rbp),%rax
  409e7d:	48 83 c4 30          	add    $0x30,%rsp
  409e81:	5d                   	pop    %rbp
  409e82:	c3                   	ret    
  409e83:	66 2e 0f 1f 84 00 00 	cs nopw 0x0(%rax,%rax,1)
  409e8a:	00 00 00 
  409e8d:	0f 1f 00             	nopl   (%rax)

0000000000409e90 <count_words_q>:
  409e90:	55                   	push   %rbp
  409e91:	48 89 e5             	mov    %rsp,%rbp
  409e94:	48 89 7d f0          	mov    %rdi,-0x10(%rbp)
  409e98:	48 89 75 e8          	mov    %rsi,-0x18(%rbp)
  409e9c:	48 89 55 e0          	mov    %rdx,-0x20(%rbp)
  409ea0:	48 8b 45 f0          	mov    -0x10(%rbp),%rax
  409ea4:	c7 40 5c 00 00 00 00 	movl   $0x0,0x5c(%rax)
  409eab:	c7 45 dc 00 00 00 00 	movl   $0x0,-0x24(%rbp)
  409eb2:	c6 45 db 00          	movb   $0x0,-0x25(%rbp)
  409eb6:	48 83 7d e8 00       	cmpq   $0x0,-0x18(%rbp)
  409ebb:	0f 85 0b 00 00 00    	jne    409ecc <count_words_q+0x3c>
  409ec1:	8b 45 dc             	mov    -0x24(%rbp),%eax
  409ec4:	89 45 fc             	mov    %eax,-0x4(%rbp)
  409ec7:	e9 ed 00 00 00       	jmp    409fb9 <count_words_q+0x129>
  409ecc:	e9 00 00 00 00       	jmp    409ed1 <count_words_q+0x41>
  409ed1:	48 8b 45 e8          	mov    -0x18(%rbp),%rax
  409ed5:	80 38 00             	cmpb   $0x0,(%rax)
  409ed8:	0f 84 cc 00 00 00    	je     409faa <count_words_q+0x11a>
  409ede:	48 8b 45 e8          	mov    -0x18(%rbp),%rax
  409ee2:	0f be 00             	movsbl (%rax),%eax
  409ee5:	83 f8 27             	cmp    $0x27,%eax
  409ee8:	0f 84 10 00 00 00    	je     409efe <count_words_q+0x6e>
  409eee:	48 8b 45 e8          	mov    -0x18(%rbp),%rax
  409ef2:	0f be 00             	movsbl (%rax),%eax
  409ef5:	83 f8 22             	cmp    $0x22,%eax
  409ef8:	0f 85 21 00 00 00    	jne    409f1f <count_words_q+0x8f>
  409efe:	48 8b 45 f0          	mov    -0x10(%rbp),%rax
  409f02:	83 78 5c 00          	cmpl   $0x0,0x5c(%rax)
  409f06:	0f 85 13 00 00 00    	jne    409f1f <count_words_q+0x8f>
  409f0c:	48 8b 45 e8          	mov    -0x18(%rbp),%rax
  409f10:	0f be 08             	movsbl (%rax),%ecx
  409f13:	48 8b 45 f0          	mov    -0x10(%rbp),%rax
  409f17:	89 48 5c             	mov    %ecx,0x5c(%rax)
  409f1a:	e9 30 00 00 00       	jmp    409f4f <count_words_q+0xbf>
  409f1f:	48 8b 45 e8          	mov    -0x18(%rbp),%rax
  409f23:	0f be 00             	movsbl (%rax),%eax
  409f26:	83 f8 27             	cmp    $0x27,%eax
  409f29:	0f 84 10 00 00 00    	je     409f3f <count_words_q+0xaf>
  409f2f:	48 8b 45 e8          	mov    -0x18(%rbp),%rax
  409f33:	0f be 00             	movsbl (%rax),%eax
  409f36:	83 f8 22             	cmp    $0x22,%eax
  409f39:	0f 85 0b 00 00 00    	jne    409f4a <count_words_q+0xba>
  409f3f:	48 8b 45 f0          	mov    -0x10(%rbp),%rax
  409f43:	c7 40 5c 00 00 00 00 	movl   $0x0,0x5c(%rax)
  409f4a:	e9 00 00 00 00       	jmp    409f4f <count_words_q+0xbf>
  409f4f:	48 8b 45 e8          	mov    -0x18(%rbp),%rax
  409f53:	0f be 00             	movsbl (%rax),%eax
  409f56:	83 f8 20             	cmp    $0x20,%eax
  409f59:	0f 85 17 00 00 00    	jne    409f76 <count_words_q+0xe6>
  409f5f:	48 8b 45 f0          	mov    -0x10(%rbp),%rax
  409f63:	83 78 5c 00          	cmpl   $0x0,0x5c(%rax)
  409f67:	0f 85 09 00 00 00    	jne    409f76 <count_words_q+0xe6>
  409f6d:	c6 45 db 00          	movb   $0x0,-0x25(%rbp)
  409f71:	e9 23 00 00 00       	jmp    409f99 <count_words_q+0x109>
  409f76:	8a 45 db             	mov    -0x25(%rbp),%al
  409f79:	24 01                	and    $0x1,%al
  409f7b:	0f b6 c0             	movzbl %al,%eax
  409f7e:	83 f8 00             	cmp    $0x0,%eax
  409f81:	0f 85 0d 00 00 00    	jne    409f94 <count_words_q+0x104>
  409f87:	8b 45 dc             	mov    -0x24(%rbp),%eax
  409f8a:	83 c0 01             	add    $0x1,%eax
  409f8d:	89 45 dc             	mov    %eax,-0x24(%rbp)
  409f90:	c6 45 db 01          	movb   $0x1,-0x25(%rbp)
  409f94:	e9 00 00 00 00       	jmp    409f99 <count_words_q+0x109>
  409f99:	48 8b 45 e8          	mov    -0x18(%rbp),%rax
  409f9d:	48 83 c0 01          	add    $0x1,%rax
  409fa1:	48 89 45 e8          	mov    %rax,-0x18(%rbp)
  409fa5:	e9 27 ff ff ff       	jmp    409ed1 <count_words_q+0x41>
  409faa:	8b 4d dc             	mov    -0x24(%rbp),%ecx
  409fad:	48 8b 45 e0          	mov    -0x20(%rbp),%rax
  409fb1:	89 08                	mov    %ecx,(%rax)
  409fb3:	8b 45 dc             	mov    -0x24(%rbp),%eax
  409fb6:	89 45 fc             	mov    %eax,-0x4(%rbp)
  409fb9:	8b 45 fc             	mov    -0x4(%rbp),%eax
  409fbc:	5d                   	pop    %rbp
  409fbd:	c3                   	ret    
  409fbe:	66 90                	xchg   %ax,%ax

0000000000409fc0 <init_vals>:
  409fc0:	55                   	push   %rbp
  409fc1:	48 89 e5             	mov    %rsp,%rbp
  409fc4:	48 89 7d f8          	mov    %rdi,-0x8(%rbp)
  409fc8:	48 89 75 f0          	mov    %rsi,-0x10(%rbp)
  409fcc:	48 89 55 e8          	mov    %rdx,-0x18(%rbp)
  409fd0:	48 89 4d e0          	mov    %rcx,-0x20(%rbp)
  409fd4:	48 8b 45 f0          	mov    -0x10(%rbp),%rax
  409fd8:	c7 00 ff ff ff ff    	movl   $0xffffffff,(%rax)
  409fde:	48 8b 45 e8          	mov    -0x18(%rbp),%rax
  409fe2:	c7 00 00 00 00 00    	movl   $0x0,(%rax)
  409fe8:	48 8b 45 e0          	mov    -0x20(%rbp),%rax
  409fec:	c6 00 00             	movb   $0x0,(%rax)
  409fef:	48 8b 45 f8          	mov    -0x8(%rbp),%rax
  409ff3:	c7 00 00 00 00 00    	movl   $0x0,(%rax)
  409ff9:	5d                   	pop    %rbp
  409ffa:	c3                   	ret    
  409ffb:	0f 1f 44 00 00       	nopl   0x0(%rax,%rax,1)

000000000040a000 <malloc_for_res>:
  40a000:	55                   	push   %rbp
  40a001:	48 89 e5             	mov    %rsp,%rbp
  40a004:	48 83 ec 20          	sub    $0x20,%rsp
  40a008:	48 89 7d f8          	mov    %rdi,-0x8(%rbp)
  40a00c:	89 75 f4             	mov    %esi,-0xc(%rbp)
  40a00f:	48 8b 45 f8          	mov    -0x8(%rbp),%rax
  40a013:	c7 40 5c 00 00 00 00 	movl   $0x0,0x5c(%rax)
  40a01a:	8b 45 f4             	mov    -0xc(%rbp),%eax
  40a01d:	83 c0 01             	add    $0x1,%eax
  40a020:	48 63 f8             	movslq %eax,%rdi
  40a023:	48 c1 e7 03          	shl    $0x3,%rdi
  40a027:	e8 04 71 ff ff       	call   401130 <malloc@plt>
  40a02c:	48 89 45 e8          	mov    %rax,-0x18(%rbp)
  40a030:	48 83 7d e8 00       	cmpq   $0x0,-0x18(%rbp)
  40a035:	0f 85 1c 00 00 00    	jne    40a057 <malloc_for_res+0x57>
  40a03b:	48 8b 7d f8          	mov    -0x8(%rbp),%rdi
  40a03f:	48 be 94 cb 40 00 00 	movabs $0x40cb94,%rsi
  40a046:	00 00 00 
  40a049:	31 c0                	xor    %eax,%eax
  40a04b:	89 c2                	mov    %eax,%edx
  40a04d:	b9 ff 00 00 00       	mov    $0xff,%ecx
  40a052:	e8 a9 da ff ff       	call   407b00 <snuff_it>
  40a057:	48 8b 45 e8          	mov    -0x18(%rbp),%rax
  40a05b:	48 83 c4 20          	add    $0x20,%rsp
  40a05f:	5d                   	pop    %rbp
  40a060:	c3                   	ret    
  40a061:	66 2e 0f 1f 84 00 00 	cs nopw 0x0(%rax,%rax,1)
  40a068:	00 00 00 
  40a06b:	0f 1f 44 00 00       	nopl   0x0(%rax,%rax,1)

000000000040a070 <ft_split_returns>:
  40a070:	55                   	push   %rbp
  40a071:	48 89 e5             	mov    %rsp,%rbp
  40a074:	48 83 ec 50          	sub    $0x50,%rsp
  40a078:	48 89 7d f8          	mov    %rdi,-0x8(%rbp)
  40a07c:	48 89 75 f0          	mov    %rsi,-0x10(%rbp)
  40a080:	48 89 55 e8          	mov    %rdx,-0x18(%rbp)
  40a084:	48 8d 7d e4          	lea    -0x1c(%rbp),%rdi
  40a088:	48 8d 75 e0          	lea    -0x20(%rbp),%rsi
  40a08c:	48 8d 55 dc          	lea    -0x24(%rbp),%rdx
  40a090:	48 8d 4d cf          	lea    -0x31(%rbp),%rcx
  40a094:	e8 27 ff ff ff       	call   409fc0 <init_vals>
  40a099:	48 8b 45 f8          	mov    -0x8(%rbp),%rax
  40a09d:	48 89 45 c0          	mov    %rax,-0x40(%rbp)
  40a0a1:	48 8b 7d f8          	mov    -0x8(%rbp),%rdi
  40a0a5:	48 8b 75 f0          	mov    -0x10(%rbp),%rsi
  40a0a9:	48 8b 55 e8          	mov    -0x18(%rbp),%rdx
  40a0ad:	e8 de fd ff ff       	call   409e90 <count_words_q>
  40a0b2:	48 8b 7d c0          	mov    -0x40(%rbp),%rdi
  40a0b6:	89 c6                	mov    %eax,%esi
  40a0b8:	e8 43 ff ff ff       	call   40a000 <malloc_for_res>
  40a0bd:	48 89 45 d0          	mov    %rax,-0x30(%rbp)
  40a0c1:	48 8b 45 f0          	mov    -0x10(%rbp),%rax
  40a0c5:	48 63 4d e4          	movslq -0x1c(%rbp),%rcx
  40a0c9:	80 3c 08 00          	cmpb   $0x0,(%rax,%rcx,1)
  40a0cd:	0f 84 91 01 00 00    	je     40a264 <ft_split_returns+0x1f4>
  40a0d3:	48 8b 45 f0          	mov    -0x10(%rbp),%rax
  40a0d7:	8b 4d e0             	mov    -0x20(%rbp),%ecx
  40a0da:	83 c1 01             	add    $0x1,%ecx
  40a0dd:	89 4d e0             	mov    %ecx,-0x20(%rbp)
  40a0e0:	48 63 c9             	movslq %ecx,%rcx
  40a0e3:	0f be 04 08          	movsbl (%rax,%rcx,1),%eax
  40a0e7:	48 8b 4d f8          	mov    -0x8(%rbp),%rcx
  40a0eb:	3b 41 5c             	cmp    0x5c(%rcx),%eax
  40a0ee:	0f 85 1e 00 00 00    	jne    40a112 <ft_split_returns+0xa2>
  40a0f4:	48 8b 45 f8          	mov    -0x8(%rbp),%rax
  40a0f8:	83 78 5c 00          	cmpl   $0x0,0x5c(%rax)
  40a0fc:	0f 84 10 00 00 00    	je     40a112 <ft_split_returns+0xa2>
  40a102:	48 8b 45 f8          	mov    -0x8(%rbp),%rax
  40a106:	c7 40 5c 00 00 00 00 	movl   $0x0,0x5c(%rax)
  40a10d:	e9 50 00 00 00       	jmp    40a162 <ft_split_returns+0xf2>
  40a112:	48 8b 45 f0          	mov    -0x10(%rbp),%rax
  40a116:	48 63 4d e0          	movslq -0x20(%rbp),%rcx
  40a11a:	0f be 04 08          	movsbl (%rax,%rcx,1),%eax
  40a11e:	83 f8 27             	cmp    $0x27,%eax
  40a121:	0f 84 15 00 00 00    	je     40a13c <ft_split_returns+0xcc>
  40a127:	48 8b 45 f0          	mov    -0x10(%rbp),%rax
  40a12b:	48 63 4d e0          	movslq -0x20(%rbp),%rcx
  40a12f:	0f be 04 08          	movsbl (%rax,%rcx,1),%eax
  40a133:	83 f8 22             	cmp    $0x22,%eax
  40a136:	0f 85 21 00 00 00    	jne    40a15d <ft_split_returns+0xed>
  40a13c:	48 8b 45 f8          	mov    -0x8(%rbp),%rax
  40a140:	83 78 5c 00          	cmpl   $0x0,0x5c(%rax)
  40a144:	0f 85 13 00 00 00    	jne    40a15d <ft_split_returns+0xed>
  40a14a:	48 8b 45 f0          	mov    -0x10(%rbp),%rax
  40a14e:	48 63 4d e0          	movslq -0x20(%rbp),%rcx
  40a152:	0f be 0c 08          	movsbl (%rax,%rcx,1),%ecx
  40a156:	48 8b 45 f8          	mov    -0x8(%rbp),%rax
  40a15a:	89 48 5c             	mov    %ecx,0x5c(%rax)
  40a15d:	e9 00 00 00 00       	jmp    40a162 <ft_split_returns+0xf2>
  40a162:	48 8b 45 f0          	mov    -0x10(%rbp),%rax
  40a166:	48 63 4d e0          	movslq -0x20(%rbp),%rcx
  40a16a:	0f be 04 08          	movsbl (%rax,%rcx,1),%eax
  40a16e:	83 f8 20             	cmp    $0x20,%eax
  40a171:	0f 85 0e 00 00 00    	jne    40a185 <ft_split_returns+0x115>
  40a177:	48 8b 45 f8          	mov    -0x8(%rbp),%rax
  40a17b:	83 78 5c 00          	cmpl   $0x0,0x5c(%rax)
  40a17f:	0f 84 12 00 00 00    	je     40a197 <ft_split_returns+0x127>
  40a185:	48 8b 45 f0          	mov    -0x10(%rbp),%rax
  40a189:	48 63 4d e0          	movslq -0x20(%rbp),%rcx
  40a18d:	80 3c 08 00          	cmpb   $0x0,(%rax,%rcx,1)
  40a191:	0f 85 5d 00 00 00    	jne    40a1f4 <ft_split_returns+0x184>
  40a197:	f6 45 cf 01          	testb  $0x1,-0x31(%rbp)
  40a19b:	0f 84 53 00 00 00    	je     40a1f4 <ft_split_returns+0x184>
  40a1a1:	48 8b 7d f8          	mov    -0x8(%rbp),%rdi
  40a1a5:	48 8b 75 f0          	mov    -0x10(%rbp),%rsi
  40a1a9:	8b 55 e4             	mov    -0x1c(%rbp),%edx
  40a1ac:	8b 4d e0             	mov    -0x20(%rbp),%ecx
  40a1af:	2b 4d e4             	sub    -0x1c(%rbp),%ecx
  40a1b2:	e8 c9 fb ff ff       	call   409d80 <ft_substr_prot>
  40a1b7:	48 89 c2             	mov    %rax,%rdx
  40a1ba:	48 8b 45 d0          	mov    -0x30(%rbp),%rax
  40a1be:	8b 4d dc             	mov    -0x24(%rbp),%ecx
  40a1c1:	89 ce                	mov    %ecx,%esi
  40a1c3:	83 c6 01             	add    $0x1,%esi
  40a1c6:	89 75 dc             	mov    %esi,-0x24(%rbp)
  40a1c9:	48 63 c9             	movslq %ecx,%rcx
  40a1cc:	48 89 14 c8          	mov    %rdx,(%rax,%rcx,8)
  40a1d0:	8b 45 e0             	mov    -0x20(%rbp),%eax
  40a1d3:	48 8b 4d f0          	mov    -0x10(%rbp),%rcx
  40a1d7:	48 63 55 e0          	movslq -0x20(%rbp),%rdx
  40a1db:	0f be 0c 11          	movsbl (%rcx,%rdx,1),%ecx
  40a1df:	83 f9 00             	cmp    $0x0,%ecx
  40a1e2:	0f 95 c1             	setne  %cl
  40a1e5:	80 e1 01             	and    $0x1,%cl
  40a1e8:	0f b6 c9             	movzbl %cl,%ecx
  40a1eb:	01 c8                	add    %ecx,%eax
  40a1ed:	89 45 e4             	mov    %eax,-0x1c(%rbp)
  40a1f0:	c6 45 cf 00          	movb   $0x0,-0x31(%rbp)
  40a1f4:	8a 45 cf             	mov    -0x31(%rbp),%al
  40a1f7:	24 01                	and    $0x1,%al
  40a1f9:	0f b6 c8             	movzbl %al,%ecx
  40a1fc:	31 c0                	xor    %eax,%eax
  40a1fe:	83 f9 00             	cmp    $0x0,%ecx
  40a201:	88 45 bf             	mov    %al,-0x41(%rbp)
  40a204:	0f 85 15 00 00 00    	jne    40a21f <ft_split_returns+0x1af>
  40a20a:	48 8b 45 f0          	mov    -0x10(%rbp),%rax
  40a20e:	48 63 4d e4          	movslq -0x1c(%rbp),%rcx
  40a212:	0f be 04 08          	movsbl (%rax,%rcx,1),%eax
  40a216:	83 f8 20             	cmp    $0x20,%eax
  40a219:	0f 94 c0             	sete   %al
  40a21c:	88 45 bf             	mov    %al,-0x41(%rbp)
  40a21f:	8a 45 bf             	mov    -0x41(%rbp),%al
  40a222:	24 01                	and    $0x1,%al
  40a224:	0f b6 c0             	movzbl %al,%eax
  40a227:	03 45 e4             	add    -0x1c(%rbp),%eax
  40a22a:	89 45 e4             	mov    %eax,-0x1c(%rbp)
  40a22d:	48 8b 45 f0          	mov    -0x10(%rbp),%rax
  40a231:	48 63 4d e0          	movslq -0x20(%rbp),%rcx
  40a235:	0f be 0c 08          	movsbl (%rax,%rcx,1),%ecx
  40a239:	31 c0                	xor    %eax,%eax
  40a23b:	83 f9 20             	cmp    $0x20,%ecx
  40a23e:	88 45 be             	mov    %al,-0x42(%rbp)
  40a241:	0f 84 10 00 00 00    	je     40a257 <ft_split_returns+0x1e7>
  40a247:	48 8b 45 f8          	mov    -0x8(%rbp),%rax
  40a24b:	83 78 5c 00          	cmpl   $0x0,0x5c(%rax)
  40a24f:	0f 95 c0             	setne  %al
  40a252:	34 ff                	xor    $0xff,%al
  40a254:	88 45 be             	mov    %al,-0x42(%rbp)
  40a257:	8a 45 be             	mov    -0x42(%rbp),%al
  40a25a:	24 01                	and    $0x1,%al
  40a25c:	88 45 cf             	mov    %al,-0x31(%rbp)
  40a25f:	e9 5d fe ff ff       	jmp    40a0c1 <ft_split_returns+0x51>
  40a264:	48 8b 45 d0          	mov    -0x30(%rbp),%rax
  40a268:	48 63 4d dc          	movslq -0x24(%rbp),%rcx
  40a26c:	48 c7 04 c8 00 00 00 	movq   $0x0,(%rax,%rcx,8)
  40a273:	00 
  40a274:	48 8b 45 d0          	mov    -0x30(%rbp),%rax
  40a278:	48 83 c4 50          	add    $0x50,%rsp
  40a27c:	5d                   	pop    %rbp
  40a27d:	c3                   	ret    
  40a27e:	66 90                	xchg   %ax,%ax

000000000040a280 <ft_isalpha>:
  40a280:	55                   	push   %rbp
  40a281:	48 89 e5             	mov    %rsp,%rbp
  40a284:	89 7d f8             	mov    %edi,-0x8(%rbp)
  40a287:	83 7d f8 41          	cmpl   $0x41,-0x8(%rbp)
  40a28b:	0f 8c 0a 00 00 00    	jl     40a29b <ft_isalpha+0x1b>
  40a291:	83 7d f8 5a          	cmpl   $0x5a,-0x8(%rbp)
  40a295:	0f 8e 14 00 00 00    	jle    40a2af <ft_isalpha+0x2f>
  40a29b:	83 7d f8 61          	cmpl   $0x61,-0x8(%rbp)
  40a29f:	0f 8c 16 00 00 00    	jl     40a2bb <ft_isalpha+0x3b>
  40a2a5:	83 7d f8 7a          	cmpl   $0x7a,-0x8(%rbp)
  40a2a9:	0f 8f 0c 00 00 00    	jg     40a2bb <ft_isalpha+0x3b>
  40a2af:	c7 45 fc 01 00 00 00 	movl   $0x1,-0x4(%rbp)
  40a2b6:	e9 07 00 00 00       	jmp    40a2c2 <ft_isalpha+0x42>
  40a2bb:	c7 45 fc 00 00 00 00 	movl   $0x0,-0x4(%rbp)
  40a2c2:	8b 45 fc             	mov    -0x4(%rbp),%eax
  40a2c5:	5d                   	pop    %rbp
  40a2c6:	c3                   	ret    
  40a2c7:	66 0f 1f 84 00 00 00 	nopw   0x0(%rax,%rax,1)
  40a2ce:	00 00 

000000000040a2d0 <ft_isalnum_or_>:
  40a2d0:	55                   	push   %rbp
  40a2d1:	48 89 e5             	mov    %rsp,%rbp
  40a2d4:	89 7d f8             	mov    %edi,-0x8(%rbp)
  40a2d7:	83 7d f8 30          	cmpl   $0x30,-0x8(%rbp)
  40a2db:	0f 8c 0a 00 00 00    	jl     40a2eb <ft_isalnum_or_+0x1b>
  40a2e1:	83 7d f8 39          	cmpl   $0x39,-0x8(%rbp)
  40a2e5:	0f 8e 28 00 00 00    	jle    40a313 <ft_isalnum_or_+0x43>
  40a2eb:	83 7d f8 41          	cmpl   $0x41,-0x8(%rbp)
  40a2ef:	0f 8c 0a 00 00 00    	jl     40a2ff <ft_isalnum_or_+0x2f>
  40a2f5:	83 7d f8 5a          	cmpl   $0x5a,-0x8(%rbp)
  40a2f9:	0f 8e 14 00 00 00    	jle    40a313 <ft_isalnum_or_+0x43>
  40a2ff:	83 7d f8 61          	cmpl   $0x61,-0x8(%rbp)
  40a303:	0f 8c 16 00 00 00    	jl     40a31f <ft_isalnum_or_+0x4f>
  40a309:	83 7d f8 7a          	cmpl   $0x7a,-0x8(%rbp)
  40a30d:	0f 8f 0c 00 00 00    	jg     40a31f <ft_isalnum_or_+0x4f>
  40a313:	c7 45 fc 01 00 00 00 	movl   $0x1,-0x4(%rbp)
  40a31a:	e9 1d 00 00 00       	jmp    40a33c <ft_isalnum_or_+0x6c>
  40a31f:	83 7d f8 5f          	cmpl   $0x5f,-0x8(%rbp)
  40a323:	0f 85 0c 00 00 00    	jne    40a335 <ft_isalnum_or_+0x65>
  40a329:	c7 45 fc 01 00 00 00 	movl   $0x1,-0x4(%rbp)
  40a330:	e9 07 00 00 00       	jmp    40a33c <ft_isalnum_or_+0x6c>
  40a335:	c7 45 fc 00 00 00 00 	movl   $0x0,-0x4(%rbp)
  40a33c:	8b 45 fc             	mov    -0x4(%rbp),%eax
  40a33f:	5d                   	pop    %rbp
  40a340:	c3                   	ret    
  40a341:	66 2e 0f 1f 84 00 00 	cs nopw 0x0(%rax,%rax,1)
  40a348:	00 00 00 
  40a34b:	0f 1f 44 00 00       	nopl   0x0(%rax,%rax,1)

000000000040a350 <ft_iswhitespace>:
  40a350:	55                   	push   %rbp
  40a351:	48 89 e5             	mov    %rsp,%rbp
  40a354:	89 7d f8             	mov    %edi,-0x8(%rbp)
  40a357:	83 7d f8 20          	cmpl   $0x20,-0x8(%rbp)
  40a35b:	0f 84 32 00 00 00    	je     40a393 <ft_iswhitespace+0x43>
  40a361:	83 7d f8 0c          	cmpl   $0xc,-0x8(%rbp)
  40a365:	0f 84 28 00 00 00    	je     40a393 <ft_iswhitespace+0x43>
  40a36b:	83 7d f8 0a          	cmpl   $0xa,-0x8(%rbp)
  40a36f:	0f 84 1e 00 00 00    	je     40a393 <ft_iswhitespace+0x43>
  40a375:	83 7d f8 0d          	cmpl   $0xd,-0x8(%rbp)
  40a379:	0f 84 14 00 00 00    	je     40a393 <ft_iswhitespace+0x43>
  40a37f:	83 7d f8 09          	cmpl   $0x9,-0x8(%rbp)
  40a383:	0f 84 0a 00 00 00    	je     40a393 <ft_iswhitespace+0x43>
  40a389:	83 7d f8 0b          	cmpl   $0xb,-0x8(%rbp)
  40a38d:	0f 85 0c 00 00 00    	jne    40a39f <ft_iswhitespace+0x4f>
  40a393:	c7 45 fc 01 00 00 00 	movl   $0x1,-0x4(%rbp)
  40a39a:	e9 07 00 00 00       	jmp    40a3a6 <ft_iswhitespace+0x56>
  40a39f:	c7 45 fc 00 00 00 00 	movl   $0x0,-0x4(%rbp)
  40a3a6:	8b 45 fc             	mov    -0x4(%rbp),%eax
  40a3a9:	5d                   	pop    %rbp
  40a3aa:	c3                   	ret    
  40a3ab:	0f 1f 44 00 00       	nopl   0x0(%rax,%rax,1)

000000000040a3b0 <ft_strlen>:
  40a3b0:	55                   	push   %rbp
  40a3b1:	48 89 e5             	mov    %rsp,%rbp
  40a3b4:	48 89 7d f8          	mov    %rdi,-0x8(%rbp)
  40a3b8:	c7 45 f4 00 00 00 00 	movl   $0x0,-0xc(%rbp)
  40a3bf:	48 8b 45 f8          	mov    -0x8(%rbp),%rax
  40a3c3:	80 38 00             	cmpb   $0x0,(%rax)
  40a3c6:	0f 84 1a 00 00 00    	je     40a3e6 <ft_strlen+0x36>
  40a3cc:	48 8b 45 f8          	mov    -0x8(%rbp),%rax
  40a3d0:	48 83 c0 01          	add    $0x1,%rax
  40a3d4:	48 89 45 f8          	mov    %rax,-0x8(%rbp)
  40a3d8:	8b 45 f4             	mov    -0xc(%rbp),%eax
  40a3db:	83 c0 01             	add    $0x1,%eax
  40a3de:	89 45 f4             	mov    %eax,-0xc(%rbp)
  40a3e1:	e9 d9 ff ff ff       	jmp    40a3bf <ft_strlen+0xf>
  40a3e6:	8b 45 f4             	mov    -0xc(%rbp),%eax
  40a3e9:	5d                   	pop    %rbp
  40a3ea:	c3                   	ret    
  40a3eb:	0f 1f 44 00 00       	nopl   0x0(%rax,%rax,1)

000000000040a3f0 <ft_memmove>:
  40a3f0:	55                   	push   %rbp
  40a3f1:	48 89 e5             	mov    %rsp,%rbp
  40a3f4:	48 89 7d f0          	mov    %rdi,-0x10(%rbp)
  40a3f8:	48 89 75 e8          	mov    %rsi,-0x18(%rbp)
  40a3fc:	48 89 55 e0          	mov    %rdx,-0x20(%rbp)
  40a400:	48 8b 45 f0          	mov    -0x10(%rbp),%rax
  40a404:	48 89 45 d8          	mov    %rax,-0x28(%rbp)
  40a408:	48 8b 45 e8          	mov    -0x18(%rbp),%rax
  40a40c:	48 89 45 d0          	mov    %rax,-0x30(%rbp)
  40a410:	48 c7 45 c8 00 00 00 	movq   $0x0,-0x38(%rbp)
  40a417:	00 
  40a418:	48 8b 45 d8          	mov    -0x28(%rbp),%rax
  40a41c:	48 3b 45 d0          	cmp    -0x30(%rbp),%rax
  40a420:	0f 85 0d 00 00 00    	jne    40a433 <ft_memmove+0x43>
  40a426:	48 8b 45 f0          	mov    -0x10(%rbp),%rax
  40a42a:	48 89 45 f8          	mov    %rax,-0x8(%rbp)
  40a42e:	e9 ab 00 00 00       	jmp    40a4de <ft_memmove+0xee>
  40a433:	48 8b 45 d8          	mov    -0x28(%rbp),%rax
  40a437:	48 3b 45 d0          	cmp    -0x30(%rbp),%rax
  40a43b:	0f 82 15 00 00 00    	jb     40a456 <ft_memmove+0x66>
  40a441:	48 8b 45 d8          	mov    -0x28(%rbp),%rax
  40a445:	48 8b 4d d0          	mov    -0x30(%rbp),%rcx
  40a449:	48 03 4d e0          	add    -0x20(%rbp),%rcx
  40a44d:	48 39 c8             	cmp    %rcx,%rax
  40a450:	0f 82 3f 00 00 00    	jb     40a495 <ft_memmove+0xa5>
  40a456:	e9 00 00 00 00       	jmp    40a45b <ft_memmove+0x6b>
  40a45b:	48 8b 45 c8          	mov    -0x38(%rbp),%rax
  40a45f:	48 3b 45 e0          	cmp    -0x20(%rbp),%rax
  40a463:	0f 83 27 00 00 00    	jae    40a490 <ft_memmove+0xa0>
  40a469:	48 8b 45 d0          	mov    -0x30(%rbp),%rax
  40a46d:	48 8b 4d c8          	mov    -0x38(%rbp),%rcx
  40a471:	8a 14 08             	mov    (%rax,%rcx,1),%dl
  40a474:	48 8b 45 d8          	mov    -0x28(%rbp),%rax
  40a478:	48 8b 4d c8          	mov    -0x38(%rbp),%rcx
  40a47c:	88 14 08             	mov    %dl,(%rax,%rcx,1)
  40a47f:	48 8b 45 c8          	mov    -0x38(%rbp),%rax
  40a483:	48 83 c0 01          	add    $0x1,%rax
  40a487:	48 89 45 c8          	mov    %rax,-0x38(%rbp)
  40a48b:	e9 cb ff ff ff       	jmp    40a45b <ft_memmove+0x6b>
  40a490:	e9 41 00 00 00       	jmp    40a4d6 <ft_memmove+0xe6>
  40a495:	48 8b 45 e0          	mov    -0x20(%rbp),%rax
  40a499:	48 89 45 c8          	mov    %rax,-0x38(%rbp)
  40a49d:	48 8b 45 c8          	mov    -0x38(%rbp),%rax
  40a4a1:	48 89 c1             	mov    %rax,%rcx
  40a4a4:	48 83 c1 ff          	add    $0xffffffffffffffff,%rcx
  40a4a8:	48 89 4d c8          	mov    %rcx,-0x38(%rbp)
  40a4ac:	48 83 f8 00          	cmp    $0x0,%rax
  40a4b0:	0f 86 1b 00 00 00    	jbe    40a4d1 <ft_memmove+0xe1>
  40a4b6:	48 8b 45 d0          	mov    -0x30(%rbp),%rax
  40a4ba:	48 8b 4d c8          	mov    -0x38(%rbp),%rcx
  40a4be:	8a 14 08             	mov    (%rax,%rcx,1),%dl
  40a4c1:	48 8b 45 d8          	mov    -0x28(%rbp),%rax
  40a4c5:	48 8b 4d c8          	mov    -0x38(%rbp),%rcx
  40a4c9:	88 14 08             	mov    %dl,(%rax,%rcx,1)
  40a4cc:	e9 cc ff ff ff       	jmp    40a49d <ft_memmove+0xad>
  40a4d1:	e9 00 00 00 00       	jmp    40a4d6 <ft_memmove+0xe6>
  40a4d6:	48 8b 45 f0          	mov    -0x10(%rbp),%rax
  40a4da:	48 89 45 f8          	mov    %rax,-0x8(%rbp)
  40a4de:	48 8b 45 f8          	mov    -0x8(%rbp),%rax
  40a4e2:	5d                   	pop    %rbp
  40a4e3:	c3                   	ret    
  40a4e4:	66 2e 0f 1f 84 00 00 	cs nopw 0x0(%rax,%rax,1)
  40a4eb:	00 00 00 
  40a4ee:	66 90                	xchg   %ax,%ax

000000000040a4f0 <ft_strlcat>:
  40a4f0:	55                   	push   %rbp
  40a4f1:	48 89 e5             	mov    %rsp,%rbp
  40a4f4:	48 83 ec 30          	sub    $0x30,%rsp
  40a4f8:	48 89 7d f0          	mov    %rdi,-0x10(%rbp)
  40a4fc:	48 89 75 e8          	mov    %rsi,-0x18(%rbp)
  40a500:	89 55 e4             	mov    %edx,-0x1c(%rbp)
  40a503:	48 83 7d f0 00       	cmpq   $0x0,-0x10(%rbp)
  40a508:	0f 84 0b 00 00 00    	je     40a519 <ft_strlcat+0x29>
  40a50e:	48 83 7d e8 00       	cmpq   $0x0,-0x18(%rbp)
  40a513:	0f 85 0c 00 00 00    	jne    40a525 <ft_strlcat+0x35>
  40a519:	c7 45 fc 00 00 00 00 	movl   $0x0,-0x4(%rbp)
  40a520:	e9 bb 00 00 00       	jmp    40a5e0 <ft_strlcat+0xf0>
  40a525:	c7 45 e0 00 00 00 00 	movl   $0x0,-0x20(%rbp)
  40a52c:	48 8b 7d f0          	mov    -0x10(%rbp),%rdi
  40a530:	e8 7b fe ff ff       	call   40a3b0 <ft_strlen>
  40a535:	89 45 dc             	mov    %eax,-0x24(%rbp)
  40a538:	48 8b 7d e8          	mov    -0x18(%rbp),%rdi
  40a53c:	e8 6f fe ff ff       	call   40a3b0 <ft_strlen>
  40a541:	89 45 d8             	mov    %eax,-0x28(%rbp)
  40a544:	8b 45 e4             	mov    -0x1c(%rbp),%eax
  40a547:	3b 45 dc             	cmp    -0x24(%rbp),%eax
  40a54a:	0f 87 0e 00 00 00    	ja     40a55e <ft_strlcat+0x6e>
  40a550:	8b 45 e4             	mov    -0x1c(%rbp),%eax
  40a553:	03 45 d8             	add    -0x28(%rbp),%eax
  40a556:	89 45 fc             	mov    %eax,-0x4(%rbp)
  40a559:	e9 82 00 00 00       	jmp    40a5e0 <ft_strlcat+0xf0>
  40a55e:	e9 00 00 00 00       	jmp    40a563 <ft_strlcat+0x73>
  40a563:	48 8b 45 e8          	mov    -0x18(%rbp),%rax
  40a567:	8b 4d e0             	mov    -0x20(%rbp),%ecx
  40a56a:	0f be 0c 08          	movsbl (%rax,%rcx,1),%ecx
  40a56e:	31 c0                	xor    %eax,%eax
  40a570:	83 f9 00             	cmp    $0x0,%ecx
  40a573:	88 45 d7             	mov    %al,-0x29(%rbp)
  40a576:	0f 84 14 00 00 00    	je     40a590 <ft_strlcat+0xa0>
  40a57c:	8b 45 e4             	mov    -0x1c(%rbp),%eax
  40a57f:	83 e8 01             	sub    $0x1,%eax
  40a582:	8b 4d dc             	mov    -0x24(%rbp),%ecx
  40a585:	03 4d e0             	add    -0x20(%rbp),%ecx
  40a588:	39 c8                	cmp    %ecx,%eax
  40a58a:	0f 97 c0             	seta   %al
  40a58d:	88 45 d7             	mov    %al,-0x29(%rbp)
  40a590:	8a 45 d7             	mov    -0x29(%rbp),%al
  40a593:	a8 01                	test   $0x1,%al
  40a595:	0f 85 05 00 00 00    	jne    40a5a0 <ft_strlcat+0xb0>
  40a59b:	e9 27 00 00 00       	jmp    40a5c7 <ft_strlcat+0xd7>
  40a5a0:	48 8b 45 e8          	mov    -0x18(%rbp),%rax
  40a5a4:	8b 4d e0             	mov    -0x20(%rbp),%ecx
  40a5a7:	8a 14 08             	mov    (%rax,%rcx,1),%dl
  40a5aa:	48 8b 45 f0          	mov    -0x10(%rbp),%rax
  40a5ae:	8b 4d dc             	mov    -0x24(%rbp),%ecx
  40a5b1:	03 4d e0             	add    -0x20(%rbp),%ecx
  40a5b4:	89 c9                	mov    %ecx,%ecx
  40a5b6:	88 14 08             	mov    %dl,(%rax,%rcx,1)
  40a5b9:	8b 45 e0             	mov    -0x20(%rbp),%eax
  40a5bc:	83 c0 01             	add    $0x1,%eax
  40a5bf:	89 45 e0             	mov    %eax,-0x20(%rbp)
  40a5c2:	e9 9c ff ff ff       	jmp    40a563 <ft_strlcat+0x73>
  40a5c7:	48 8b 45 f0          	mov    -0x10(%rbp),%rax
  40a5cb:	8b 4d dc             	mov    -0x24(%rbp),%ecx
  40a5ce:	03 4d e0             	add    -0x20(%rbp),%ecx
  40a5d1:	89 c9                	mov    %ecx,%ecx
  40a5d3:	c6 04 08 00          	movb   $0x0,(%rax,%rcx,1)
  40a5d7:	8b 45 dc             	mov    -0x24(%rbp),%eax
  40a5da:	03 45 d8             	add    -0x28(%rbp),%eax
  40a5dd:	89 45 fc             	mov    %eax,-0x4(%rbp)
  40a5e0:	8b 45 fc             	mov    -0x4(%rbp),%eax
  40a5e3:	48 83 c4 30          	add    $0x30,%rsp
  40a5e7:	5d                   	pop    %rbp
  40a5e8:	c3                   	ret    
  40a5e9:	0f 1f 80 00 00 00 00 	nopl   0x0(%rax)

000000000040a5f0 <ft_strchr>:
  40a5f0:	55                   	push   %rbp
  40a5f1:	48 89 e5             	mov    %rsp,%rbp
  40a5f4:	48 89 7d f0          	mov    %rdi,-0x10(%rbp)
  40a5f8:	89 75 ec             	mov    %esi,-0x14(%rbp)
  40a5fb:	48 83 7d f0 00       	cmpq   $0x0,-0x10(%rbp)
  40a600:	0f 85 0d 00 00 00    	jne    40a613 <ft_strchr+0x23>
  40a606:	48 c7 45 f8 00 00 00 	movq   $0x0,-0x8(%rbp)
  40a60d:	00 
  40a60e:	e9 7a 00 00 00       	jmp    40a68d <ft_strchr+0x9d>
  40a613:	e9 00 00 00 00       	jmp    40a618 <ft_strchr+0x28>
  40a618:	48 8b 45 f0          	mov    -0x10(%rbp),%rax
  40a61c:	0f be 08             	movsbl (%rax),%ecx
  40a61f:	31 c0                	xor    %eax,%eax
  40a621:	83 f9 00             	cmp    $0x0,%ecx
  40a624:	88 45 eb             	mov    %al,-0x15(%rbp)
  40a627:	0f 84 15 00 00 00    	je     40a642 <ft_strchr+0x52>
  40a62d:	48 8b 45 f0          	mov    -0x10(%rbp),%rax
  40a631:	0f be 00             	movsbl (%rax),%eax
  40a634:	8b 4d ec             	mov    -0x14(%rbp),%ecx
  40a637:	0f b6 c9             	movzbl %cl,%ecx
  40a63a:	39 c8                	cmp    %ecx,%eax
  40a63c:	0f 95 c0             	setne  %al
  40a63f:	88 45 eb             	mov    %al,-0x15(%rbp)
  40a642:	8a 45 eb             	mov    -0x15(%rbp),%al
  40a645:	a8 01                	test   $0x1,%al
  40a647:	0f 85 05 00 00 00    	jne    40a652 <ft_strchr+0x62>
  40a64d:	e9 11 00 00 00       	jmp    40a663 <ft_strchr+0x73>
  40a652:	48 8b 45 f0          	mov    -0x10(%rbp),%rax
  40a656:	48 83 c0 01          	add    $0x1,%rax
  40a65a:	48 89 45 f0          	mov    %rax,-0x10(%rbp)
  40a65e:	e9 b5 ff ff ff       	jmp    40a618 <ft_strchr+0x28>
  40a663:	48 8b 45 f0          	mov    -0x10(%rbp),%rax
  40a667:	0f be 00             	movsbl (%rax),%eax
  40a66a:	8b 4d ec             	mov    -0x14(%rbp),%ecx
  40a66d:	0f b6 c9             	movzbl %cl,%ecx
  40a670:	39 c8                	cmp    %ecx,%eax
  40a672:	0f 85 0d 00 00 00    	jne    40a685 <ft_strchr+0x95>
  40a678:	48 8b 45 f0          	mov    -0x10(%rbp),%rax
  40a67c:	48 89 45 f8          	mov    %rax,-0x8(%rbp)
  40a680:	e9 08 00 00 00       	jmp    40a68d <ft_strchr+0x9d>
  40a685:	48 c7 45 f8 00 00 00 	movq   $0x0,-0x8(%rbp)
  40a68c:	00 
  40a68d:	48 8b 45 f8          	mov    -0x8(%rbp),%rax
  40a691:	5d                   	pop    %rbp
  40a692:	c3                   	ret    
  40a693:	66 2e 0f 1f 84 00 00 	cs nopw 0x0(%rax,%rax,1)
  40a69a:	00 00 00 
  40a69d:	0f 1f 00             	nopl   (%rax)

000000000040a6a0 <ft_strrchr>:
  40a6a0:	55                   	push   %rbp
  40a6a1:	48 89 e5             	mov    %rsp,%rbp
  40a6a4:	48 89 7d f0          	mov    %rdi,-0x10(%rbp)
  40a6a8:	89 75 ec             	mov    %esi,-0x14(%rbp)
  40a6ab:	48 c7 45 e0 00 00 00 	movq   $0x0,-0x20(%rbp)
  40a6b2:	00 
  40a6b3:	48 8b 45 f0          	mov    -0x10(%rbp),%rax
  40a6b7:	80 38 00             	cmpb   $0x0,(%rax)
  40a6ba:	0f 84 2e 00 00 00    	je     40a6ee <ft_strrchr+0x4e>
  40a6c0:	48 8b 45 f0          	mov    -0x10(%rbp),%rax
  40a6c4:	0f be 00             	movsbl (%rax),%eax
  40a6c7:	8b 4d ec             	mov    -0x14(%rbp),%ecx
  40a6ca:	0f b6 c9             	movzbl %cl,%ecx
  40a6cd:	39 c8                	cmp    %ecx,%eax
  40a6cf:	0f 85 08 00 00 00    	jne    40a6dd <ft_strrchr+0x3d>
  40a6d5:	48 8b 45 f0          	mov    -0x10(%rbp),%rax
  40a6d9:	48 89 45 e0          	mov    %rax,-0x20(%rbp)
  40a6dd:	48 8b 45 f0          	mov    -0x10(%rbp),%rax
  40a6e1:	48 83 c0 01          	add    $0x1,%rax
  40a6e5:	48 89 45 f0          	mov    %rax,-0x10(%rbp)
  40a6e9:	e9 c5 ff ff ff       	jmp    40a6b3 <ft_strrchr+0x13>
  40a6ee:	48 8b 45 f0          	mov    -0x10(%rbp),%rax
  40a6f2:	0f be 00             	movsbl (%rax),%eax
  40a6f5:	8b 4d ec             	mov    -0x14(%rbp),%ecx
  40a6f8:	0f b6 c9             	movzbl %cl,%ecx
  40a6fb:	39 c8                	cmp    %ecx,%eax
  40a6fd:	0f 85 08 00 00 00    	jne    40a70b <ft_strrchr+0x6b>
  40a703:	48 8b 45 f0          	mov    -0x10(%rbp),%rax
  40a707:	48 89 45 e0          	mov    %rax,-0x20(%rbp)
  40a70b:	48 83 7d e0 00       	cmpq   $0x0,-0x20(%rbp)
  40a710:	0f 84 0d 00 00 00    	je     40a723 <ft_strrchr+0x83>
  40a716:	48 8b 45 e0          	mov    -0x20(%rbp),%rax
  40a71a:	48 89 45 f8          	mov    %rax,-0x8(%rbp)
  40a71e:	e9 08 00 00 00       	jmp    40a72b <ft_strrchr+0x8b>
  40a723:	48 c7 45 f8 00 00 00 	movq   $0x0,-0x8(%rbp)
  40a72a:	00 
  40a72b:	48 8b 45 f8          	mov    -0x8(%rbp),%rax
  40a72f:	5d                   	pop    %rbp
  40a730:	c3                   	ret    
  40a731:	66 2e 0f 1f 84 00 00 	cs nopw 0x0(%rax,%rax,1)
  40a738:	00 00 00 
  40a73b:	0f 1f 44 00 00       	nopl   0x0(%rax,%rax,1)

000000000040a740 <ft_strcmp>:
  40a740:	55                   	push   %rbp
  40a741:	48 89 e5             	mov    %rsp,%rbp
  40a744:	48 89 7d f8          	mov    %rdi,-0x8(%rbp)
  40a748:	48 89 75 f0          	mov    %rsi,-0x10(%rbp)
  40a74c:	48 c7 45 e8 00 00 00 	movq   $0x0,-0x18(%rbp)
  40a753:	00 
  40a754:	48 8b 45 f8          	mov    -0x8(%rbp),%rax
  40a758:	48 8b 4d e8          	mov    -0x18(%rbp),%rcx
  40a75c:	0f be 0c 08          	movsbl (%rax,%rcx,1),%ecx
  40a760:	31 c0                	xor    %eax,%eax
  40a762:	83 f9 00             	cmp    $0x0,%ecx
  40a765:	88 45 e3             	mov    %al,-0x1d(%rbp)
  40a768:	0f 84 15 00 00 00    	je     40a783 <ft_strcmp+0x43>
  40a76e:	48 8b 45 f0          	mov    -0x10(%rbp),%rax
  40a772:	48 8b 4d e8          	mov    -0x18(%rbp),%rcx
  40a776:	0f be 04 08          	movsbl (%rax,%rcx,1),%eax
  40a77a:	83 f8 00             	cmp    $0x0,%eax
  40a77d:	0f 95 c0             	setne  %al
  40a780:	88 45 e3             	mov    %al,-0x1d(%rbp)
  40a783:	8a 45 e3             	mov    -0x1d(%rbp),%al
  40a786:	24 01                	and    $0x1,%al
  40a788:	0f b6 c0             	movzbl %al,%eax
  40a78b:	83 f8 00             	cmp    $0x0,%eax
  40a78e:	0f 84 3b 00 00 00    	je     40a7cf <ft_strcmp+0x8f>
  40a794:	48 8b 45 f8          	mov    -0x8(%rbp),%rax
  40a798:	48 8b 4d e8          	mov    -0x18(%rbp),%rcx
  40a79c:	0f be 04 08          	movsbl (%rax,%rcx,1),%eax
  40a7a0:	48 8b 4d f0          	mov    -0x10(%rbp),%rcx
  40a7a4:	48 8b 55 e8          	mov    -0x18(%rbp),%rdx
  40a7a8:	0f be 0c 11          	movsbl (%rcx,%rdx,1),%ecx
  40a7ac:	39 c8                	cmp    %ecx,%eax
  40a7ae:	0f 85 11 00 00 00    	jne    40a7c5 <ft_strcmp+0x85>
  40a7b4:	48 8b 45 e8          	mov    -0x18(%rbp),%rax
  40a7b8:	48 83 c0 01          	add    $0x1,%rax
  40a7bc:	48 89 45 e8          	mov    %rax,-0x18(%rbp)
  40a7c0:	e9 05 00 00 00       	jmp    40a7ca <ft_strcmp+0x8a>
  40a7c5:	e9 05 00 00 00       	jmp    40a7cf <ft_strcmp+0x8f>
  40a7ca:	e9 85 ff ff ff       	jmp    40a754 <ft_strcmp+0x14>
  40a7cf:	48 8b 45 f8          	mov    -0x8(%rbp),%rax
  40a7d3:	48 8b 4d e8          	mov    -0x18(%rbp),%rcx
  40a7d7:	0f be 04 08          	movsbl (%rax,%rcx,1),%eax
  40a7db:	48 8b 4d f0          	mov    -0x10(%rbp),%rcx
  40a7df:	48 8b 55 e8          	mov    -0x18(%rbp),%rdx
  40a7e3:	0f be 0c 11          	movsbl (%rcx,%rdx,1),%ecx
  40a7e7:	29 c8                	sub    %ecx,%eax
  40a7e9:	89 45 e4             	mov    %eax,-0x1c(%rbp)
  40a7ec:	8b 45 e4             	mov    -0x1c(%rbp),%eax
  40a7ef:	5d                   	pop    %rbp
  40a7f0:	c3                   	ret    
  40a7f1:	66 2e 0f 1f 84 00 00 	cs nopw 0x0(%rax,%rax,1)
  40a7f8:	00 00 00 
  40a7fb:	0f 1f 44 00 00       	nopl   0x0(%rax,%rax,1)

000000000040a800 <ft_strncmp>:
  40a800:	55                   	push   %rbp
  40a801:	48 89 e5             	mov    %rsp,%rbp
  40a804:	48 89 7d f0          	mov    %rdi,-0x10(%rbp)
  40a808:	48 89 75 e8          	mov    %rsi,-0x18(%rbp)
  40a80c:	89 55 e4             	mov    %edx,-0x1c(%rbp)
  40a80f:	c7 45 e0 00 00 00 00 	movl   $0x0,-0x20(%rbp)
  40a816:	48 83 7d f0 00       	cmpq   $0x0,-0x10(%rbp)
  40a81b:	0f 84 0b 00 00 00    	je     40a82c <ft_strncmp+0x2c>
  40a821:	48 83 7d e8 00       	cmpq   $0x0,-0x18(%rbp)
  40a826:	0f 85 0c 00 00 00    	jne    40a838 <ft_strncmp+0x38>
  40a82c:	c7 45 fc 01 00 00 00 	movl   $0x1,-0x4(%rbp)
  40a833:	e9 b7 00 00 00       	jmp    40a8ef <ft_strncmp+0xef>
  40a838:	83 7d e4 00          	cmpl   $0x0,-0x1c(%rbp)
  40a83c:	0f 85 0c 00 00 00    	jne    40a84e <ft_strncmp+0x4e>
  40a842:	c7 45 fc 00 00 00 00 	movl   $0x0,-0x4(%rbp)
  40a849:	e9 a1 00 00 00       	jmp    40a8ef <ft_strncmp+0xef>
  40a84e:	e9 00 00 00 00       	jmp    40a853 <ft_strncmp+0x53>
  40a853:	48 8b 45 f0          	mov    -0x10(%rbp),%rax
  40a857:	0f be 00             	movsbl (%rax),%eax
  40a85a:	83 f8 00             	cmp    $0x0,%eax
  40a85d:	0f 85 15 00 00 00    	jne    40a878 <ft_strncmp+0x78>
  40a863:	48 8b 45 e8          	mov    -0x18(%rbp),%rax
  40a867:	0f be 08             	movsbl (%rax),%ecx
  40a86a:	31 c0                	xor    %eax,%eax
  40a86c:	83 f9 00             	cmp    $0x0,%ecx
  40a86f:	88 45 df             	mov    %al,-0x21(%rbp)
  40a872:	0f 84 0c 00 00 00    	je     40a884 <ft_strncmp+0x84>
  40a878:	8b 45 e0             	mov    -0x20(%rbp),%eax
  40a87b:	3b 45 e4             	cmp    -0x1c(%rbp),%eax
  40a87e:	0f 92 c0             	setb   %al
  40a881:	88 45 df             	mov    %al,-0x21(%rbp)
  40a884:	8a 45 df             	mov    -0x21(%rbp),%al
  40a887:	a8 01                	test   $0x1,%al
  40a889:	0f 85 05 00 00 00    	jne    40a894 <ft_strncmp+0x94>
  40a88f:	e9 54 00 00 00       	jmp    40a8e8 <ft_strncmp+0xe8>
  40a894:	48 8b 45 f0          	mov    -0x10(%rbp),%rax
  40a898:	0f b6 00             	movzbl (%rax),%eax
  40a89b:	48 8b 4d e8          	mov    -0x18(%rbp),%rcx
  40a89f:	0f b6 09             	movzbl (%rcx),%ecx
  40a8a2:	39 c8                	cmp    %ecx,%eax
  40a8a4:	0f 84 18 00 00 00    	je     40a8c2 <ft_strncmp+0xc2>
  40a8aa:	48 8b 45 f0          	mov    -0x10(%rbp),%rax
  40a8ae:	0f b6 00             	movzbl (%rax),%eax
  40a8b1:	48 8b 4d e8          	mov    -0x18(%rbp),%rcx
  40a8b5:	0f b6 09             	movzbl (%rcx),%ecx
  40a8b8:	29 c8                	sub    %ecx,%eax
  40a8ba:	89 45 fc             	mov    %eax,-0x4(%rbp)
  40a8bd:	e9 2d 00 00 00       	jmp    40a8ef <ft_strncmp+0xef>
  40a8c2:	8b 45 e0             	mov    -0x20(%rbp),%eax
  40a8c5:	83 c0 01             	add    $0x1,%eax
  40a8c8:	89 45 e0             	mov    %eax,-0x20(%rbp)
  40a8cb:	48 8b 45 f0          	mov    -0x10(%rbp),%rax
  40a8cf:	48 83 c0 01          	add    $0x1,%rax
  40a8d3:	48 89 45 f0          	mov    %rax,-0x10(%rbp)
  40a8d7:	48 8b 45 e8          	mov    -0x18(%rbp),%rax
  40a8db:	48 83 c0 01          	add    $0x1,%rax
  40a8df:	48 89 45 e8          	mov    %rax,-0x18(%rbp)
  40a8e3:	e9 6b ff ff ff       	jmp    40a853 <ft_strncmp+0x53>
  40a8e8:	c7 45 fc 00 00 00 00 	movl   $0x0,-0x4(%rbp)
  40a8ef:	8b 45 fc             	mov    -0x4(%rbp),%eax
  40a8f2:	5d                   	pop    %rbp
  40a8f3:	c3                   	ret    
  40a8f4:	66 2e 0f 1f 84 00 00 	cs nopw 0x0(%rax,%rax,1)
  40a8fb:	00 00 00 
  40a8fe:	66 90                	xchg   %ax,%ax

000000000040a900 <is_whitespace>:
  40a900:	55                   	push   %rbp
  40a901:	48 89 e5             	mov    %rsp,%rbp
  40a904:	48 89 7d f0          	mov    %rdi,-0x10(%rbp)
  40a908:	48 8b 45 f0          	mov    -0x10(%rbp),%rax
  40a90c:	0f be 00             	movsbl (%rax),%eax
  40a90f:	83 f8 20             	cmp    $0x20,%eax
  40a912:	0f 84 50 00 00 00    	je     40a968 <is_whitespace+0x68>
  40a918:	48 8b 45 f0          	mov    -0x10(%rbp),%rax
  40a91c:	0f be 00             	movsbl (%rax),%eax
  40a91f:	83 f8 0c             	cmp    $0xc,%eax
  40a922:	0f 84 40 00 00 00    	je     40a968 <is_whitespace+0x68>
  40a928:	48 8b 45 f0          	mov    -0x10(%rbp),%rax
  40a92c:	0f be 00             	movsbl (%rax),%eax
  40a92f:	83 f8 0a             	cmp    $0xa,%eax
  40a932:	0f 84 30 00 00 00    	je     40a968 <is_whitespace+0x68>
  40a938:	48 8b 45 f0          	mov    -0x10(%rbp),%rax
  40a93c:	0f be 00             	movsbl (%rax),%eax
  40a93f:	83 f8 0d             	cmp    $0xd,%eax
  40a942:	0f 84 20 00 00 00    	je     40a968 <is_whitespace+0x68>
  40a948:	48 8b 45 f0          	mov    -0x10(%rbp),%rax
  40a94c:	0f be 00             	movsbl (%rax),%eax
  40a94f:	83 f8 09             	cmp    $0x9,%eax
  40a952:	0f 84 10 00 00 00    	je     40a968 <is_whitespace+0x68>
  40a958:	48 8b 45 f0          	mov    -0x10(%rbp),%rax
  40a95c:	0f be 00             	movsbl (%rax),%eax
  40a95f:	83 f8 0b             	cmp    $0xb,%eax
  40a962:	0f 85 0c 00 00 00    	jne    40a974 <is_whitespace+0x74>
  40a968:	c7 45 fc 01 00 00 00 	movl   $0x1,-0x4(%rbp)
  40a96f:	e9 07 00 00 00       	jmp    40a97b <is_whitespace+0x7b>
  40a974:	c7 45 fc 00 00 00 00 	movl   $0x0,-0x4(%rbp)
  40a97b:	8b 45 fc             	mov    -0x4(%rbp),%eax
  40a97e:	5d                   	pop    %rbp
  40a97f:	c3                   	ret    

000000000040a980 <check_overflow>:
  40a980:	55                   	push   %rbp
  40a981:	48 89 e5             	mov    %rsp,%rbp
  40a984:	89 7d f8             	mov    %edi,-0x8(%rbp)
  40a987:	48 89 75 f0          	mov    %rsi,-0x10(%rbp)
  40a98b:	48 89 55 e8          	mov    %rdx,-0x18(%rbp)
  40a98f:	48 81 7d f0 cc cc cc 	cmpq   $0xccccccc,-0x10(%rbp)
  40a996:	0c 
  40a997:	0f 8e 0c 00 00 00    	jle    40a9a9 <check_overflow+0x29>
  40a99d:	c7 45 fc ff ff ff ff 	movl   $0xffffffff,-0x4(%rbp)
  40a9a4:	e9 85 00 00 00       	jmp    40aa2e <check_overflow+0xae>
  40a9a9:	83 7d f8 01          	cmpl   $0x1,-0x8(%rbp)
  40a9ad:	0f 85 33 00 00 00    	jne    40a9e6 <check_overflow+0x66>
  40a9b3:	48 8b 45 e8          	mov    -0x18(%rbp),%rax
  40a9b7:	0f be 00             	movsbl (%rax),%eax
  40a9ba:	83 e8 30             	sub    $0x30,%eax
  40a9bd:	48 98                	cltq   
  40a9bf:	48 6b 55 f0 0a       	imul   $0xa,-0x10(%rbp),%rdx
  40a9c4:	b9 ff ff ff 7f       	mov    $0x7fffffff,%ecx
  40a9c9:	48 29 d1             	sub    %rdx,%rcx
  40a9cc:	48 39 c8             	cmp    %rcx,%rax
  40a9cf:	0f 8e 0c 00 00 00    	jle    40a9e1 <check_overflow+0x61>
  40a9d5:	c7 45 fc ff ff ff ff 	movl   $0xffffffff,-0x4(%rbp)
  40a9dc:	e9 4d 00 00 00       	jmp    40aa2e <check_overflow+0xae>
  40a9e1:	e9 00 00 00 00       	jmp    40a9e6 <check_overflow+0x66>
  40a9e6:	83 7d f8 ff          	cmpl   $0xffffffff,-0x8(%rbp)
  40a9ea:	0f 85 37 00 00 00    	jne    40aa27 <check_overflow+0xa7>
  40a9f0:	48 8b 45 e8          	mov    -0x18(%rbp),%rax
  40a9f4:	0f be 00             	movsbl (%rax),%eax
  40a9f7:	83 e8 30             	sub    $0x30,%eax
  40a9fa:	48 98                	cltq   
  40a9fc:	48 6b 55 f0 0a       	imul   $0xa,-0x10(%rbp),%rdx
  40aa01:	48 81 c2 00 00 00 80 	add    $0xffffffff80000000,%rdx
  40aa08:	31 c9                	xor    %ecx,%ecx
  40aa0a:	48 29 d1             	sub    %rdx,%rcx
  40aa0d:	48 39 c8             	cmp    %rcx,%rax
  40aa10:	0f 8e 0c 00 00 00    	jle    40aa22 <check_overflow+0xa2>
  40aa16:	c7 45 fc ff ff ff ff 	movl   $0xffffffff,-0x4(%rbp)
  40aa1d:	e9 0c 00 00 00       	jmp    40aa2e <check_overflow+0xae>
  40aa22:	e9 00 00 00 00       	jmp    40aa27 <check_overflow+0xa7>
  40aa27:	c7 45 fc 00 00 00 00 	movl   $0x0,-0x4(%rbp)
  40aa2e:	8b 45 fc             	mov    -0x4(%rbp),%eax
  40aa31:	5d                   	pop    %rbp
  40aa32:	c3                   	ret    
  40aa33:	66 2e 0f 1f 84 00 00 	cs nopw 0x0(%rax,%rax,1)
  40aa3a:	00 00 00 
  40aa3d:	0f 1f 00             	nopl   (%rax)

000000000040aa40 <ft_atoi>:
  40aa40:	55                   	push   %rbp
  40aa41:	48 89 e5             	mov    %rsp,%rbp
  40aa44:	48 83 ec 30          	sub    $0x30,%rsp
  40aa48:	48 89 7d f0          	mov    %rdi,-0x10(%rbp)
  40aa4c:	c7 45 ec 01 00 00 00 	movl   $0x1,-0x14(%rbp)
  40aa53:	48 c7 45 e0 00 00 00 	movq   $0x0,-0x20(%rbp)
  40aa5a:	00 
  40aa5b:	48 8b 45 f0          	mov    -0x10(%rbp),%rax
  40aa5f:	0f be 08             	movsbl (%rax),%ecx
  40aa62:	31 c0                	xor    %eax,%eax
  40aa64:	83 f9 00             	cmp    $0x0,%ecx
  40aa67:	88 45 df             	mov    %al,-0x21(%rbp)
  40aa6a:	0f 84 12 00 00 00    	je     40aa82 <ft_atoi+0x42>
  40aa70:	48 8b 7d f0          	mov    -0x10(%rbp),%rdi
  40aa74:	e8 87 fe ff ff       	call   40a900 <is_whitespace>
  40aa79:	83 f8 00             	cmp    $0x0,%eax
  40aa7c:	0f 9f c0             	setg   %al
  40aa7f:	88 45 df             	mov    %al,-0x21(%rbp)
  40aa82:	8a 45 df             	mov    -0x21(%rbp),%al
  40aa85:	a8 01                	test   $0x1,%al
  40aa87:	0f 85 05 00 00 00    	jne    40aa92 <ft_atoi+0x52>
  40aa8d:	e9 11 00 00 00       	jmp    40aaa3 <ft_atoi+0x63>
  40aa92:	48 8b 45 f0          	mov    -0x10(%rbp),%rax
  40aa96:	48 83 c0 01          	add    $0x1,%rax
  40aa9a:	48 89 45 f0          	mov    %rax,-0x10(%rbp)
  40aa9e:	e9 b8 ff ff ff       	jmp    40aa5b <ft_atoi+0x1b>
  40aaa3:	48 8b 45 f0          	mov    -0x10(%rbp),%rax
  40aaa7:	0f be 00             	movsbl (%rax),%eax
  40aaaa:	83 f8 2b             	cmp    $0x2b,%eax
  40aaad:	0f 84 10 00 00 00    	je     40aac3 <ft_atoi+0x83>
  40aab3:	48 8b 45 f0          	mov    -0x10(%rbp),%rax
  40aab7:	0f be 00             	movsbl (%rax),%eax
  40aaba:	83 f8 2d             	cmp    $0x2d,%eax
  40aabd:	0f 85 22 00 00 00    	jne    40aae5 <ft_atoi+0xa5>
  40aac3:	48 8b 45 f0          	mov    -0x10(%rbp),%rax
  40aac7:	48 89 c1             	mov    %rax,%rcx
  40aaca:	48 83 c1 01          	add    $0x1,%rcx
  40aace:	48 89 4d f0          	mov    %rcx,-0x10(%rbp)
  40aad2:	0f be 00             	movsbl (%rax),%eax
  40aad5:	83 f8 2d             	cmp    $0x2d,%eax
  40aad8:	0f 85 07 00 00 00    	jne    40aae5 <ft_atoi+0xa5>
  40aade:	c7 45 ec ff ff ff ff 	movl   $0xffffffff,-0x14(%rbp)
  40aae5:	e9 00 00 00 00       	jmp    40aaea <ft_atoi+0xaa>
  40aaea:	48 8b 45 f0          	mov    -0x10(%rbp),%rax
  40aaee:	0f be 08             	movsbl (%rax),%ecx
  40aaf1:	31 c0                	xor    %eax,%eax
  40aaf3:	83 f9 30             	cmp    $0x30,%ecx
  40aaf6:	88 45 de             	mov    %al,-0x22(%rbp)
  40aaf9:	0f 8c 10 00 00 00    	jl     40ab0f <ft_atoi+0xcf>
  40aaff:	48 8b 45 f0          	mov    -0x10(%rbp),%rax
  40ab03:	0f be 00             	movsbl (%rax),%eax
  40ab06:	83 f8 39             	cmp    $0x39,%eax
  40ab09:	0f 9e c0             	setle  %al
  40ab0c:	88 45 de             	mov    %al,-0x22(%rbp)
  40ab0f:	8a 45 de             	mov    -0x22(%rbp),%al
  40ab12:	a8 01                	test   $0x1,%al
  40ab14:	0f 85 05 00 00 00    	jne    40ab1f <ft_atoi+0xdf>
  40ab1a:	e9 4f 00 00 00       	jmp    40ab6e <ft_atoi+0x12e>
  40ab1f:	8b 7d ec             	mov    -0x14(%rbp),%edi
  40ab22:	48 8b 75 e0          	mov    -0x20(%rbp),%rsi
  40ab26:	48 8b 55 f0          	mov    -0x10(%rbp),%rdx
  40ab2a:	e8 51 fe ff ff       	call   40a980 <check_overflow>
  40ab2f:	83 f8 00             	cmp    $0x0,%eax
  40ab32:	0f 84 0c 00 00 00    	je     40ab44 <ft_atoi+0x104>
  40ab38:	c7 45 fc ff ff ff ff 	movl   $0xffffffff,-0x4(%rbp)
  40ab3f:	e9 39 00 00 00       	jmp    40ab7d <ft_atoi+0x13d>
  40ab44:	48 6b 45 e0 0a       	imul   $0xa,-0x20(%rbp),%rax
  40ab49:	48 8b 4d f0          	mov    -0x10(%rbp),%rcx
  40ab4d:	0f be 09             	movsbl (%rcx),%ecx
  40ab50:	83 e9 30             	sub    $0x30,%ecx
  40ab53:	48 63 c9             	movslq %ecx,%rcx
  40ab56:	48 01 c8             	add    %rcx,%rax
  40ab59:	48 89 45 e0          	mov    %rax,-0x20(%rbp)
  40ab5d:	48 8b 45 f0          	mov    -0x10(%rbp),%rax
  40ab61:	48 83 c0 01          	add    $0x1,%rax
  40ab65:	48 89 45 f0          	mov    %rax,-0x10(%rbp)
  40ab69:	e9 7c ff ff ff       	jmp    40aaea <ft_atoi+0xaa>
  40ab6e:	48 8b 45 e0          	mov    -0x20(%rbp),%rax
  40ab72:	48 63 4d ec          	movslq -0x14(%rbp),%rcx
  40ab76:	48 0f af c1          	imul   %rcx,%rax
  40ab7a:	89 45 fc             	mov    %eax,-0x4(%rbp)
  40ab7d:	8b 45 fc             	mov    -0x4(%rbp),%eax
  40ab80:	48 83 c4 30          	add    $0x30,%rsp
  40ab84:	5d                   	pop    %rbp
  40ab85:	c3                   	ret    
  40ab86:	66 2e 0f 1f 84 00 00 	cs nopw 0x0(%rax,%rax,1)
  40ab8d:	00 00 00 

000000000040ab90 <ft_calloc>:
  40ab90:	55                   	push   %rbp
  40ab91:	48 89 e5             	mov    %rsp,%rbp
  40ab94:	48 83 ec 30          	sub    $0x30,%rsp
  40ab98:	48 89 7d f0          	mov    %rdi,-0x10(%rbp)
  40ab9c:	48 89 75 e8          	mov    %rsi,-0x18(%rbp)
  40aba0:	48 8b 45 f0          	mov    -0x10(%rbp),%rax
  40aba4:	48 0f af 45 e8       	imul   -0x18(%rbp),%rax
  40aba9:	89 45 dc             	mov    %eax,-0x24(%rbp)
  40abac:	48 83 7d f0 00       	cmpq   $0x0,-0x10(%rbp)
  40abb1:	0f 84 2e 00 00 00    	je     40abe5 <ft_calloc+0x55>
  40abb7:	48 83 7d e8 00       	cmpq   $0x0,-0x18(%rbp)
  40abbc:	0f 84 23 00 00 00    	je     40abe5 <ft_calloc+0x55>
  40abc2:	48 63 45 dc          	movslq -0x24(%rbp),%rax
  40abc6:	31 c9                	xor    %ecx,%ecx
  40abc8:	89 ca                	mov    %ecx,%edx
  40abca:	48 f7 75 f0          	divq   -0x10(%rbp)
  40abce:	48 3b 45 e8          	cmp    -0x18(%rbp),%rax
  40abd2:	0f 84 0d 00 00 00    	je     40abe5 <ft_calloc+0x55>
  40abd8:	48 c7 45 f8 00 00 00 	movq   $0x0,-0x8(%rbp)
  40abdf:	00 
  40abe0:	e9 44 00 00 00       	jmp    40ac29 <ft_calloc+0x99>
  40abe5:	48 8b 7d f0          	mov    -0x10(%rbp),%rdi
  40abe9:	48 0f af 7d e8       	imul   -0x18(%rbp),%rdi
  40abee:	e8 3d 65 ff ff       	call   401130 <malloc@plt>
  40abf3:	48 89 45 e0          	mov    %rax,-0x20(%rbp)
  40abf7:	48 83 7d e0 00       	cmpq   $0x0,-0x20(%rbp)
  40abfc:	0f 85 0d 00 00 00    	jne    40ac0f <ft_calloc+0x7f>
  40ac02:	48 c7 45 f8 00 00 00 	movq   $0x0,-0x8(%rbp)
  40ac09:	00 
  40ac0a:	e9 1a 00 00 00       	jmp    40ac29 <ft_calloc+0x99>
  40ac0f:	48 8b 7d e0          	mov    -0x20(%rbp),%rdi
  40ac13:	48 8b 75 f0          	mov    -0x10(%rbp),%rsi
  40ac17:	48 0f af 75 e8       	imul   -0x18(%rbp),%rsi
  40ac1c:	e8 3f 0c 00 00       	call   40b860 <ft_bzero>
  40ac21:	48 8b 45 e0          	mov    -0x20(%rbp),%rax
  40ac25:	48 89 45 f8          	mov    %rax,-0x8(%rbp)
  40ac29:	48 8b 45 f8          	mov    -0x8(%rbp),%rax
  40ac2d:	48 83 c4 30          	add    $0x30,%rsp
  40ac31:	5d                   	pop    %rbp
  40ac32:	c3                   	ret    
  40ac33:	66 2e 0f 1f 84 00 00 	cs nopw 0x0(%rax,%rax,1)
  40ac3a:	00 00 00 
  40ac3d:	0f 1f 00             	nopl   (%rax)

000000000040ac40 <ft_strdup>:
  40ac40:	55                   	push   %rbp
  40ac41:	48 89 e5             	mov    %rsp,%rbp
  40ac44:	48 83 ec 30          	sub    $0x30,%rsp
  40ac48:	48 89 7d f0          	mov    %rdi,-0x10(%rbp)
  40ac4c:	48 83 7d f0 00       	cmpq   $0x0,-0x10(%rbp)
  40ac51:	0f 85 0d 00 00 00    	jne    40ac64 <ft_strdup+0x24>
  40ac57:	48 c7 45 f8 00 00 00 	movq   $0x0,-0x8(%rbp)
  40ac5e:	00 
  40ac5f:	e9 8b 00 00 00       	jmp    40acef <ft_strdup+0xaf>
  40ac64:	48 8b 45 f0          	mov    -0x10(%rbp),%rax
  40ac68:	48 89 45 e0          	mov    %rax,-0x20(%rbp)
  40ac6c:	48 8b 7d e0          	mov    -0x20(%rbp),%rdi
  40ac70:	e8 3b f7 ff ff       	call   40a3b0 <ft_strlen>
  40ac75:	89 45 ec             	mov    %eax,-0x14(%rbp)
  40ac78:	8b 45 ec             	mov    -0x14(%rbp),%eax
  40ac7b:	83 c0 01             	add    $0x1,%eax
  40ac7e:	48 63 f8             	movslq %eax,%rdi
  40ac81:	e8 aa 64 ff ff       	call   401130 <malloc@plt>
  40ac86:	48 89 45 d8          	mov    %rax,-0x28(%rbp)
  40ac8a:	48 83 7d d8 00       	cmpq   $0x0,-0x28(%rbp)
  40ac8f:	0f 85 0d 00 00 00    	jne    40aca2 <ft_strdup+0x62>
  40ac95:	48 c7 45 f8 00 00 00 	movq   $0x0,-0x8(%rbp)
  40ac9c:	00 
  40ac9d:	e9 4d 00 00 00       	jmp    40acef <ft_strdup+0xaf>
  40aca2:	48 8b 45 d8          	mov    -0x28(%rbp),%rax
  40aca6:	48 89 45 d0          	mov    %rax,-0x30(%rbp)
  40acaa:	48 8b 45 f0          	mov    -0x10(%rbp),%rax
  40acae:	80 38 00             	cmpb   $0x0,(%rax)
  40acb1:	0f 84 29 00 00 00    	je     40ace0 <ft_strdup+0xa0>
  40acb7:	48 8b 45 f0          	mov    -0x10(%rbp),%rax
  40acbb:	8a 08                	mov    (%rax),%cl
  40acbd:	48 8b 45 d8          	mov    -0x28(%rbp),%rax
  40acc1:	88 08                	mov    %cl,(%rax)
  40acc3:	48 8b 45 d8          	mov    -0x28(%rbp),%rax
  40acc7:	48 83 c0 01          	add    $0x1,%rax
  40accb:	48 89 45 d8          	mov    %rax,-0x28(%rbp)
  40accf:	48 8b 45 f0          	mov    -0x10(%rbp),%rax
  40acd3:	48 83 c0 01          	add    $0x1,%rax
  40acd7:	48 89 45 f0          	mov    %rax,-0x10(%rbp)
  40acdb:	e9 ca ff ff ff       	jmp    40acaa <ft_strdup+0x6a>
  40ace0:	48 8b 45 d8          	mov    -0x28(%rbp),%rax
  40ace4:	c6 00 00             	movb   $0x0,(%rax)
  40ace7:	48 8b 45 d0          	mov    -0x30(%rbp),%rax
  40aceb:	48 89 45 f8          	mov    %rax,-0x8(%rbp)
  40acef:	48 8b 45 f8          	mov    -0x8(%rbp),%rax
  40acf3:	48 83 c4 30          	add    $0x30,%rsp
  40acf7:	5d                   	pop    %rbp
  40acf8:	c3                   	ret    
  40acf9:	0f 1f 80 00 00 00 00 	nopl   0x0(%rax)

000000000040ad00 <ft_strdup_array>:
  40ad00:	55                   	push   %rbp
  40ad01:	48 89 e5             	mov    %rsp,%rbp
  40ad04:	48 83 ec 20          	sub    $0x20,%rsp
  40ad08:	48 89 7d f0          	mov    %rdi,-0x10(%rbp)
  40ad0c:	c7 45 ec 00 00 00 00 	movl   $0x0,-0x14(%rbp)
  40ad13:	48 8b 45 f0          	mov    -0x10(%rbp),%rax
  40ad17:	48 63 4d ec          	movslq -0x14(%rbp),%rcx
  40ad1b:	48 83 3c c8 00       	cmpq   $0x0,(%rax,%rcx,8)
  40ad20:	0f 84 0e 00 00 00    	je     40ad34 <ft_strdup_array+0x34>
  40ad26:	8b 45 ec             	mov    -0x14(%rbp),%eax
  40ad29:	83 c0 01             	add    $0x1,%eax
  40ad2c:	89 45 ec             	mov    %eax,-0x14(%rbp)
  40ad2f:	e9 df ff ff ff       	jmp    40ad13 <ft_strdup_array+0x13>
  40ad34:	8b 45 ec             	mov    -0x14(%rbp),%eax
  40ad37:	83 c0 01             	add    $0x1,%eax
  40ad3a:	48 63 f8             	movslq %eax,%rdi
  40ad3d:	48 c1 e7 03          	shl    $0x3,%rdi
  40ad41:	e8 ea 63 ff ff       	call   401130 <malloc@plt>
  40ad46:	48 89 45 e0          	mov    %rax,-0x20(%rbp)
  40ad4a:	48 83 7d e0 00       	cmpq   $0x0,-0x20(%rbp)
  40ad4f:	0f 85 0d 00 00 00    	jne    40ad62 <ft_strdup_array+0x62>
  40ad55:	48 c7 45 f8 00 00 00 	movq   $0x0,-0x8(%rbp)
  40ad5c:	00 
  40ad5d:	e9 89 00 00 00       	jmp    40adeb <ft_strdup_array+0xeb>
  40ad62:	c7 45 ec 00 00 00 00 	movl   $0x0,-0x14(%rbp)
  40ad69:	48 8b 45 f0          	mov    -0x10(%rbp),%rax
  40ad6d:	48 63 4d ec          	movslq -0x14(%rbp),%rcx
  40ad71:	48 83 3c c8 00       	cmpq   $0x0,(%rax,%rcx,8)
  40ad76:	0f 84 57 00 00 00    	je     40add3 <ft_strdup_array+0xd3>
  40ad7c:	48 8b 45 f0          	mov    -0x10(%rbp),%rax
  40ad80:	48 63 4d ec          	movslq -0x14(%rbp),%rcx
  40ad84:	48 8b 3c c8          	mov    (%rax,%rcx,8),%rdi
  40ad88:	e8 b3 fe ff ff       	call   40ac40 <ft_strdup>
  40ad8d:	48 89 c2             	mov    %rax,%rdx
  40ad90:	48 8b 45 e0          	mov    -0x20(%rbp),%rax
  40ad94:	48 63 4d ec          	movslq -0x14(%rbp),%rcx
  40ad98:	48 89 14 c8          	mov    %rdx,(%rax,%rcx,8)
  40ad9c:	48 8b 45 e0          	mov    -0x20(%rbp),%rax
  40ada0:	48 63 4d ec          	movslq -0x14(%rbp),%rcx
  40ada4:	48 83 3c c8 00       	cmpq   $0x0,(%rax,%rcx,8)
  40ada9:	0f 85 16 00 00 00    	jne    40adc5 <ft_strdup_array+0xc5>
  40adaf:	48 8b 7d e0          	mov    -0x20(%rbp),%rdi
  40adb3:	e8 48 00 00 00       	call   40ae00 <ft_free_array>
  40adb8:	48 c7 45 f8 00 00 00 	movq   $0x0,-0x8(%rbp)
  40adbf:	00 
  40adc0:	e9 26 00 00 00       	jmp    40adeb <ft_strdup_array+0xeb>
  40adc5:	8b 45 ec             	mov    -0x14(%rbp),%eax
  40adc8:	83 c0 01             	add    $0x1,%eax
  40adcb:	89 45 ec             	mov    %eax,-0x14(%rbp)
  40adce:	e9 96 ff ff ff       	jmp    40ad69 <ft_strdup_array+0x69>
  40add3:	48 8b 45 e0          	mov    -0x20(%rbp),%rax
  40add7:	48 63 4d ec          	movslq -0x14(%rbp),%rcx
  40addb:	48 c7 04 c8 00 00 00 	movq   $0x0,(%rax,%rcx,8)
  40ade2:	00 
  40ade3:	48 8b 45 e0          	mov    -0x20(%rbp),%rax
  40ade7:	48 89 45 f8          	mov    %rax,-0x8(%rbp)
  40adeb:	48 8b 45 f8          	mov    -0x8(%rbp),%rax
  40adef:	48 83 c4 20          	add    $0x20,%rsp
  40adf3:	5d                   	pop    %rbp
  40adf4:	c3                   	ret    
  40adf5:	66 2e 0f 1f 84 00 00 	cs nopw 0x0(%rax,%rax,1)
  40adfc:	00 00 00 
  40adff:	90                   	nop

000000000040ae00 <ft_free_array>:
  40ae00:	55                   	push   %rbp
  40ae01:	48 89 e5             	mov    %rsp,%rbp
  40ae04:	48 83 ec 10          	sub    $0x10,%rsp
  40ae08:	48 89 7d f8          	mov    %rdi,-0x8(%rbp)
  40ae0c:	c7 45 f4 ff ff ff ff 	movl   $0xffffffff,-0xc(%rbp)
  40ae13:	48 83 7d f8 00       	cmpq   $0x0,-0x8(%rbp)
  40ae18:	0f 84 57 00 00 00    	je     40ae75 <ft_free_array+0x75>
  40ae1e:	e9 00 00 00 00       	jmp    40ae23 <ft_free_array+0x23>
  40ae23:	48 8b 45 f8          	mov    -0x8(%rbp),%rax
  40ae27:	8b 4d f4             	mov    -0xc(%rbp),%ecx
  40ae2a:	83 c1 01             	add    $0x1,%ecx
  40ae2d:	89 4d f4             	mov    %ecx,-0xc(%rbp)
  40ae30:	48 63 c9             	movslq %ecx,%rcx
  40ae33:	48 83 3c c8 00       	cmpq   $0x0,(%rax,%rcx,8)
  40ae38:	0f 84 26 00 00 00    	je     40ae64 <ft_free_array+0x64>
  40ae3e:	48 8b 45 f8          	mov    -0x8(%rbp),%rax
  40ae42:	48 63 4d f4          	movslq -0xc(%rbp),%rcx
  40ae46:	48 8b 3c c8          	mov    (%rax,%rcx,8),%rdi
  40ae4a:	e8 e1 61 ff ff       	call   401030 <free@plt>
  40ae4f:	48 8b 45 f8          	mov    -0x8(%rbp),%rax
  40ae53:	48 63 4d f4          	movslq -0xc(%rbp),%rcx
  40ae57:	48 c7 04 c8 00 00 00 	movq   $0x0,(%rax,%rcx,8)
  40ae5e:	00 
  40ae5f:	e9 bf ff ff ff       	jmp    40ae23 <ft_free_array+0x23>
  40ae64:	48 8b 7d f8          	mov    -0x8(%rbp),%rdi
  40ae68:	e8 c3 61 ff ff       	call   401030 <free@plt>
  40ae6d:	48 c7 45 f8 00 00 00 	movq   $0x0,-0x8(%rbp)
  40ae74:	00 
  40ae75:	48 83 c4 10          	add    $0x10,%rsp
  40ae79:	5d                   	pop    %rbp
  40ae7a:	c3                   	ret    
  40ae7b:	0f 1f 44 00 00       	nopl   0x0(%rax,%rax,1)

000000000040ae80 <ft_substr>:
  40ae80:	55                   	push   %rbp
  40ae81:	48 89 e5             	mov    %rsp,%rbp
  40ae84:	48 83 ec 40          	sub    $0x40,%rsp
  40ae88:	48 89 7d f0          	mov    %rdi,-0x10(%rbp)
  40ae8c:	89 75 ec             	mov    %esi,-0x14(%rbp)
  40ae8f:	48 89 55 e0          	mov    %rdx,-0x20(%rbp)
  40ae93:	8b 45 ec             	mov    -0x14(%rbp),%eax
  40ae96:	89 45 d4             	mov    %eax,-0x2c(%rbp)
  40ae99:	48 8b 7d f0          	mov    -0x10(%rbp),%rdi
  40ae9d:	e8 0e f5 ff ff       	call   40a3b0 <ft_strlen>
  40aea2:	89 45 d0             	mov    %eax,-0x30(%rbp)
  40aea5:	8b 45 ec             	mov    -0x14(%rbp),%eax
  40aea8:	3b 45 d0             	cmp    -0x30(%rbp),%eax
  40aeab:	0f 82 18 00 00 00    	jb     40aec9 <ft_substr+0x49>
  40aeb1:	48 bf d6 c1 40 00 00 	movabs $0x40c1d6,%rdi
  40aeb8:	00 00 00 
  40aebb:	e8 80 fd ff ff       	call   40ac40 <ft_strdup>
  40aec0:	48 89 45 f8          	mov    %rax,-0x8(%rbp)
  40aec4:	e9 d0 00 00 00       	jmp    40af99 <ft_substr+0x119>
  40aec9:	8b 45 ec             	mov    -0x14(%rbp),%eax
  40aecc:	48 03 45 e0          	add    -0x20(%rbp),%rax
  40aed0:	8b 4d d0             	mov    -0x30(%rbp),%ecx
  40aed3:	48 39 c8             	cmp    %rcx,%rax
  40aed6:	0f 86 0c 00 00 00    	jbe    40aee8 <ft_substr+0x68>
  40aedc:	8b 45 d0             	mov    -0x30(%rbp),%eax
  40aedf:	2b 45 ec             	sub    -0x14(%rbp),%eax
  40aee2:	89 c0                	mov    %eax,%eax
  40aee4:	48 89 45 e0          	mov    %rax,-0x20(%rbp)
  40aee8:	48 8b 7d e0          	mov    -0x20(%rbp),%rdi
  40aeec:	48 83 c7 01          	add    $0x1,%rdi
  40aef0:	48 c1 e7 00          	shl    $0x0,%rdi
  40aef4:	e8 37 62 ff ff       	call   401130 <malloc@plt>
  40aef9:	48 89 45 d8          	mov    %rax,-0x28(%rbp)
  40aefd:	48 83 7d d8 00       	cmpq   $0x0,-0x28(%rbp)
  40af02:	0f 85 0d 00 00 00    	jne    40af15 <ft_substr+0x95>
  40af08:	48 c7 45 f8 00 00 00 	movq   $0x0,-0x8(%rbp)
  40af0f:	00 
  40af10:	e9 84 00 00 00       	jmp    40af99 <ft_substr+0x119>
  40af15:	e9 00 00 00 00       	jmp    40af1a <ft_substr+0x9a>
  40af1a:	48 8b 45 f0          	mov    -0x10(%rbp),%rax
  40af1e:	8b 4d d4             	mov    -0x2c(%rbp),%ecx
  40af21:	0f be 0c 08          	movsbl (%rax,%rcx,1),%ecx
  40af25:	31 c0                	xor    %eax,%eax
  40af27:	83 f9 00             	cmp    $0x0,%ecx
  40af2a:	88 45 cf             	mov    %al,-0x31(%rbp)
  40af2d:	0f 84 0b 00 00 00    	je     40af3e <ft_substr+0xbe>
  40af33:	48 83 7d e0 00       	cmpq   $0x0,-0x20(%rbp)
  40af38:	0f 97 c0             	seta   %al
  40af3b:	88 45 cf             	mov    %al,-0x31(%rbp)
  40af3e:	8a 45 cf             	mov    -0x31(%rbp),%al
  40af41:	a8 01                	test   $0x1,%al
  40af43:	0f 85 05 00 00 00    	jne    40af4e <ft_substr+0xce>
  40af49:	e9 33 00 00 00       	jmp    40af81 <ft_substr+0x101>
  40af4e:	48 8b 45 f0          	mov    -0x10(%rbp),%rax
  40af52:	8b 4d d4             	mov    -0x2c(%rbp),%ecx
  40af55:	8a 14 08             	mov    (%rax,%rcx,1),%dl
  40af58:	48 8b 45 d8          	mov    -0x28(%rbp),%rax
  40af5c:	8b 4d d4             	mov    -0x2c(%rbp),%ecx
  40af5f:	2b 4d ec             	sub    -0x14(%rbp),%ecx
  40af62:	89 c9                	mov    %ecx,%ecx
  40af64:	88 14 08             	mov    %dl,(%rax,%rcx,1)
  40af67:	48 8b 45 e0          	mov    -0x20(%rbp),%rax
  40af6b:	48 83 c0 ff          	add    $0xffffffffffffffff,%rax
  40af6f:	48 89 45 e0          	mov    %rax,-0x20(%rbp)
  40af73:	8b 45 d4             	mov    -0x2c(%rbp),%eax
  40af76:	83 c0 01             	add    $0x1,%eax
  40af79:	89 45 d4             	mov    %eax,-0x2c(%rbp)
  40af7c:	e9 99 ff ff ff       	jmp    40af1a <ft_substr+0x9a>
  40af81:	48 8b 45 d8          	mov    -0x28(%rbp),%rax
  40af85:	8b 4d d4             	mov    -0x2c(%rbp),%ecx
  40af88:	2b 4d ec             	sub    -0x14(%rbp),%ecx
  40af8b:	89 c9                	mov    %ecx,%ecx
  40af8d:	c6 04 08 00          	movb   $0x0,(%rax,%rcx,1)
  40af91:	48 8b 45 d8          	mov    -0x28(%rbp),%rax
  40af95:	48 89 45 f8          	mov    %rax,-0x8(%rbp)
  40af99:	48 8b 45 f8          	mov    -0x8(%rbp),%rax
  40af9d:	48 83 c4 40          	add    $0x40,%rsp
  40afa1:	5d                   	pop    %rbp
  40afa2:	c3                   	ret    
  40afa3:	66 2e 0f 1f 84 00 00 	cs nopw 0x0(%rax,%rax,1)
  40afaa:	00 00 00 
  40afad:	0f 1f 00             	nopl   (%rax)

000000000040afb0 <ft_strjoin>:
  40afb0:	55                   	push   %rbp
  40afb1:	48 89 e5             	mov    %rsp,%rbp
  40afb4:	48 83 ec 30          	sub    $0x30,%rsp
  40afb8:	48 89 7d f0          	mov    %rdi,-0x10(%rbp)
  40afbc:	48 89 75 e8          	mov    %rsi,-0x18(%rbp)
  40afc0:	c7 45 e4 00 00 00 00 	movl   $0x0,-0x1c(%rbp)
  40afc7:	48 8b 7d f0          	mov    -0x10(%rbp),%rdi
  40afcb:	e8 e0 f3 ff ff       	call   40a3b0 <ft_strlen>
  40afd0:	89 45 e0             	mov    %eax,-0x20(%rbp)
  40afd3:	48 8b 7d e8          	mov    -0x18(%rbp),%rdi
  40afd7:	e8 d4 f3 ff ff       	call   40a3b0 <ft_strlen>
  40afdc:	89 45 dc             	mov    %eax,-0x24(%rbp)
  40afdf:	8b 45 e0             	mov    -0x20(%rbp),%eax
  40afe2:	03 45 dc             	add    -0x24(%rbp),%eax
  40afe5:	83 c0 01             	add    $0x1,%eax
  40afe8:	48 63 f8             	movslq %eax,%rdi
  40afeb:	48 c1 e7 00          	shl    $0x0,%rdi
  40afef:	e8 3c 61 ff ff       	call   401130 <malloc@plt>
  40aff4:	48 89 45 d0          	mov    %rax,-0x30(%rbp)
  40aff8:	48 83 7d d0 00       	cmpq   $0x0,-0x30(%rbp)
  40affd:	0f 85 0d 00 00 00    	jne    40b010 <ft_strjoin+0x60>
  40b003:	48 c7 45 f8 00 00 00 	movq   $0x0,-0x8(%rbp)
  40b00a:	00 
  40b00b:	e9 88 00 00 00       	jmp    40b098 <ft_strjoin+0xe8>
  40b010:	e9 00 00 00 00       	jmp    40b015 <ft_strjoin+0x65>
  40b015:	8b 45 e4             	mov    -0x1c(%rbp),%eax
  40b018:	3b 45 e0             	cmp    -0x20(%rbp),%eax
  40b01b:	0f 8d 24 00 00 00    	jge    40b045 <ft_strjoin+0x95>
  40b021:	48 8b 45 f0          	mov    -0x10(%rbp),%rax
  40b025:	48 63 4d e4          	movslq -0x1c(%rbp),%rcx
  40b029:	8a 14 08             	mov    (%rax,%rcx,1),%dl
  40b02c:	48 8b 45 d0          	mov    -0x30(%rbp),%rax
  40b030:	48 63 4d e4          	movslq -0x1c(%rbp),%rcx
  40b034:	88 14 08             	mov    %dl,(%rax,%rcx,1)
  40b037:	8b 45 e4             	mov    -0x1c(%rbp),%eax
  40b03a:	83 c0 01             	add    $0x1,%eax
  40b03d:	89 45 e4             	mov    %eax,-0x1c(%rbp)
  40b040:	e9 d0 ff ff ff       	jmp    40b015 <ft_strjoin+0x65>
  40b045:	e9 00 00 00 00       	jmp    40b04a <ft_strjoin+0x9a>
  40b04a:	8b 45 e4             	mov    -0x1c(%rbp),%eax
  40b04d:	8b 4d e0             	mov    -0x20(%rbp),%ecx
  40b050:	03 4d dc             	add    -0x24(%rbp),%ecx
  40b053:	39 c8                	cmp    %ecx,%eax
  40b055:	0f 8d 29 00 00 00    	jge    40b084 <ft_strjoin+0xd4>
  40b05b:	48 8b 45 e8          	mov    -0x18(%rbp),%rax
  40b05f:	8b 4d e4             	mov    -0x1c(%rbp),%ecx
  40b062:	2b 4d e0             	sub    -0x20(%rbp),%ecx
  40b065:	48 63 c9             	movslq %ecx,%rcx
  40b068:	8a 14 08             	mov    (%rax,%rcx,1),%dl
  40b06b:	48 8b 45 d0          	mov    -0x30(%rbp),%rax
  40b06f:	48 63 4d e4          	movslq -0x1c(%rbp),%rcx
  40b073:	88 14 08             	mov    %dl,(%rax,%rcx,1)
  40b076:	8b 45 e4             	mov    -0x1c(%rbp),%eax
  40b079:	83 c0 01             	add    $0x1,%eax
  40b07c:	89 45 e4             	mov    %eax,-0x1c(%rbp)
  40b07f:	e9 c6 ff ff ff       	jmp    40b04a <ft_strjoin+0x9a>
  40b084:	48 8b 45 d0          	mov    -0x30(%rbp),%rax
  40b088:	48 63 4d e4          	movslq -0x1c(%rbp),%rcx
  40b08c:	c6 04 08 00          	movb   $0x0,(%rax,%rcx,1)
  40b090:	48 8b 45 d0          	mov    -0x30(%rbp),%rax
  40b094:	48 89 45 f8          	mov    %rax,-0x8(%rbp)
  40b098:	48 8b 45 f8          	mov    -0x8(%rbp),%rax
  40b09c:	48 83 c4 30          	add    $0x30,%rsp
  40b0a0:	5d                   	pop    %rbp
  40b0a1:	c3                   	ret    
  40b0a2:	66 2e 0f 1f 84 00 00 	cs nopw 0x0(%rax,%rax,1)
  40b0a9:	00 00 00 
  40b0ac:	0f 1f 40 00          	nopl   0x0(%rax)

000000000040b0b0 <ft_strjoin_char>:
  40b0b0:	55                   	push   %rbp
  40b0b1:	48 89 e5             	mov    %rsp,%rbp
  40b0b4:	48 83 ec 30          	sub    $0x30,%rsp
  40b0b8:	40 88 f0             	mov    %sil,%al
  40b0bb:	48 89 7d f0          	mov    %rdi,-0x10(%rbp)
  40b0bf:	88 45 ef             	mov    %al,-0x11(%rbp)
  40b0c2:	48 8b 7d f0          	mov    -0x10(%rbp),%rdi
  40b0c6:	e8 e5 f2 ff ff       	call   40a3b0 <ft_strlen>
  40b0cb:	48 98                	cltq   
  40b0cd:	48 89 45 e0          	mov    %rax,-0x20(%rbp)
  40b0d1:	48 8b 7d e0          	mov    -0x20(%rbp),%rdi
  40b0d5:	48 83 c7 02          	add    $0x2,%rdi
  40b0d9:	48 c1 e7 00          	shl    $0x0,%rdi
  40b0dd:	e8 4e 60 ff ff       	call   401130 <malloc@plt>
  40b0e2:	48 89 45 d8          	mov    %rax,-0x28(%rbp)
  40b0e6:	48 83 7d d8 00       	cmpq   $0x0,-0x28(%rbp)
  40b0eb:	0f 85 0d 00 00 00    	jne    40b0fe <ft_strjoin_char+0x4e>
  40b0f1:	48 c7 45 f8 00 00 00 	movq   $0x0,-0x8(%rbp)
  40b0f8:	00 
  40b0f9:	e9 3a 00 00 00       	jmp    40b138 <ft_strjoin_char+0x88>
  40b0fe:	48 8b 7d d8          	mov    -0x28(%rbp),%rdi
  40b102:	48 8b 75 f0          	mov    -0x10(%rbp),%rsi
  40b106:	48 8b 45 e0          	mov    -0x20(%rbp),%rax
  40b10a:	48 83 c0 01          	add    $0x1,%rax
  40b10e:	89 c2                	mov    %eax,%edx
  40b110:	e8 2b a4 ff ff       	call   405540 <ft_strlcpy>
  40b115:	8a 55 ef             	mov    -0x11(%rbp),%dl
  40b118:	48 8b 45 d8          	mov    -0x28(%rbp),%rax
  40b11c:	48 8b 4d e0          	mov    -0x20(%rbp),%rcx
  40b120:	88 14 08             	mov    %dl,(%rax,%rcx,1)
  40b123:	48 8b 45 d8          	mov    -0x28(%rbp),%rax
  40b127:	48 8b 4d e0          	mov    -0x20(%rbp),%rcx
  40b12b:	c6 44 08 01 00       	movb   $0x0,0x1(%rax,%rcx,1)
  40b130:	48 8b 45 d8          	mov    -0x28(%rbp),%rax
  40b134:	48 89 45 f8          	mov    %rax,-0x8(%rbp)
  40b138:	48 8b 45 f8          	mov    -0x8(%rbp),%rax
  40b13c:	48 83 c4 30          	add    $0x30,%rsp
  40b140:	5d                   	pop    %rbp
  40b141:	c3                   	ret    
  40b142:	66 2e 0f 1f 84 00 00 	cs nopw 0x0(%rax,%rax,1)
  40b149:	00 00 00 
  40b14c:	0f 1f 40 00          	nopl   0x0(%rax)

000000000040b150 <ft_strjoin_free>:
  40b150:	55                   	push   %rbp
  40b151:	48 89 e5             	mov    %rsp,%rbp
  40b154:	48 83 ec 30          	sub    $0x30,%rsp
  40b158:	40 88 f0             	mov    %sil,%al
  40b15b:	48 89 7d f0          	mov    %rdi,-0x10(%rbp)
  40b15f:	88 45 ef             	mov    %al,-0x11(%rbp)
  40b162:	48 8b 7d f0          	mov    -0x10(%rbp),%rdi
  40b166:	e8 45 f2 ff ff       	call   40a3b0 <ft_strlen>
  40b16b:	48 98                	cltq   
  40b16d:	48 89 45 e0          	mov    %rax,-0x20(%rbp)
  40b171:	48 8b 7d e0          	mov    -0x20(%rbp),%rdi
  40b175:	48 83 c7 02          	add    $0x2,%rdi
  40b179:	48 c1 e7 00          	shl    $0x0,%rdi
  40b17d:	e8 ae 5f ff ff       	call   401130 <malloc@plt>
  40b182:	48 89 45 d8          	mov    %rax,-0x28(%rbp)
  40b186:	48 83 7d d8 00       	cmpq   $0x0,-0x28(%rbp)
  40b18b:	0f 85 0d 00 00 00    	jne    40b19e <ft_strjoin_free+0x4e>
  40b191:	48 c7 45 f8 00 00 00 	movq   $0x0,-0x8(%rbp)
  40b198:	00 
  40b199:	e9 43 00 00 00       	jmp    40b1e1 <ft_strjoin_free+0x91>
  40b19e:	48 8b 7d d8          	mov    -0x28(%rbp),%rdi
  40b1a2:	48 8b 75 f0          	mov    -0x10(%rbp),%rsi
  40b1a6:	48 8b 45 e0          	mov    -0x20(%rbp),%rax
  40b1aa:	48 83 c0 01          	add    $0x1,%rax
  40b1ae:	89 c2                	mov    %eax,%edx
  40b1b0:	e8 8b a3 ff ff       	call   405540 <ft_strlcpy>
  40b1b5:	8a 55 ef             	mov    -0x11(%rbp),%dl
  40b1b8:	48 8b 45 d8          	mov    -0x28(%rbp),%rax
  40b1bc:	48 8b 4d e0          	mov    -0x20(%rbp),%rcx
  40b1c0:	88 14 08             	mov    %dl,(%rax,%rcx,1)
  40b1c3:	48 8b 45 d8          	mov    -0x28(%rbp),%rax
  40b1c7:	48 8b 4d e0          	mov    -0x20(%rbp),%rcx
  40b1cb:	c6 44 08 01 00       	movb   $0x0,0x1(%rax,%rcx,1)
  40b1d0:	48 8b 7d f0          	mov    -0x10(%rbp),%rdi
  40b1d4:	e8 57 5e ff ff       	call   401030 <free@plt>
  40b1d9:	48 8b 45 d8          	mov    -0x28(%rbp),%rax
  40b1dd:	48 89 45 f8          	mov    %rax,-0x8(%rbp)
  40b1e1:	48 8b 45 f8          	mov    -0x8(%rbp),%rax
  40b1e5:	48 83 c4 30          	add    $0x30,%rsp
  40b1e9:	5d                   	pop    %rbp
  40b1ea:	c3                   	ret    
  40b1eb:	0f 1f 44 00 00       	nopl   0x0(%rax,%rax,1)

000000000040b1f0 <ft_str_arr_join>:
  40b1f0:	55                   	push   %rbp
  40b1f1:	48 89 e5             	mov    %rsp,%rbp
  40b1f4:	48 83 ec 30          	sub    $0x30,%rsp
  40b1f8:	48 89 7d f0          	mov    %rdi,-0x10(%rbp)
  40b1fc:	48 89 75 e8          	mov    %rsi,-0x18(%rbp)
  40b200:	c7 45 e4 00 00 00 00 	movl   $0x0,-0x1c(%rbp)
  40b207:	48 8b 45 f0          	mov    -0x10(%rbp),%rax
  40b20b:	48 63 4d e4          	movslq -0x1c(%rbp),%rcx
  40b20f:	48 83 3c c8 00       	cmpq   $0x0,(%rax,%rcx,8)
  40b214:	0f 84 0e 00 00 00    	je     40b228 <ft_str_arr_join+0x38>
  40b21a:	8b 45 e4             	mov    -0x1c(%rbp),%eax
  40b21d:	83 c0 01             	add    $0x1,%eax
  40b220:	89 45 e4             	mov    %eax,-0x1c(%rbp)
  40b223:	e9 df ff ff ff       	jmp    40b207 <ft_str_arr_join+0x17>
  40b228:	8b 45 e4             	mov    -0x1c(%rbp),%eax
  40b22b:	83 c0 02             	add    $0x2,%eax
  40b22e:	48 63 f8             	movslq %eax,%rdi
  40b231:	48 c1 e7 03          	shl    $0x3,%rdi
  40b235:	e8 f6 5e ff ff       	call   401130 <malloc@plt>
  40b23a:	48 89 45 d8          	mov    %rax,-0x28(%rbp)
  40b23e:	48 83 7d d8 00       	cmpq   $0x0,-0x28(%rbp)
  40b243:	0f 85 0d 00 00 00    	jne    40b256 <ft_str_arr_join+0x66>
  40b249:	48 c7 45 f8 00 00 00 	movq   $0x0,-0x8(%rbp)
  40b250:	00 
  40b251:	e9 cf 00 00 00       	jmp    40b325 <ft_str_arr_join+0x135>
  40b256:	c7 45 e4 00 00 00 00 	movl   $0x0,-0x1c(%rbp)
  40b25d:	48 8b 45 f0          	mov    -0x10(%rbp),%rax
  40b261:	48 63 4d e4          	movslq -0x1c(%rbp),%rcx
  40b265:	48 83 3c c8 00       	cmpq   $0x0,(%rax,%rcx,8)
  40b26a:	0f 84 57 00 00 00    	je     40b2c7 <ft_str_arr_join+0xd7>
  40b270:	48 8b 45 f0          	mov    -0x10(%rbp),%rax
  40b274:	48 63 4d e4          	movslq -0x1c(%rbp),%rcx
  40b278:	48 8b 3c c8          	mov    (%rax,%rcx,8),%rdi
  40b27c:	e8 bf f9 ff ff       	call   40ac40 <ft_strdup>
  40b281:	48 89 c2             	mov    %rax,%rdx
  40b284:	48 8b 45 d8          	mov    -0x28(%rbp),%rax
  40b288:	48 63 4d e4          	movslq -0x1c(%rbp),%rcx
  40b28c:	48 89 14 c8          	mov    %rdx,(%rax,%rcx,8)
  40b290:	48 8b 45 d8          	mov    -0x28(%rbp),%rax
  40b294:	48 63 4d e4          	movslq -0x1c(%rbp),%rcx
  40b298:	48 83 3c c8 00       	cmpq   $0x0,(%rax,%rcx,8)
  40b29d:	0f 85 16 00 00 00    	jne    40b2b9 <ft_str_arr_join+0xc9>
  40b2a3:	48 8b 7d d8          	mov    -0x28(%rbp),%rdi
  40b2a7:	e8 54 fb ff ff       	call   40ae00 <ft_free_array>
  40b2ac:	48 c7 45 f8 00 00 00 	movq   $0x0,-0x8(%rbp)
  40b2b3:	00 
  40b2b4:	e9 6c 00 00 00       	jmp    40b325 <ft_str_arr_join+0x135>
  40b2b9:	8b 45 e4             	mov    -0x1c(%rbp),%eax
  40b2bc:	83 c0 01             	add    $0x1,%eax
  40b2bf:	89 45 e4             	mov    %eax,-0x1c(%rbp)
  40b2c2:	e9 96 ff ff ff       	jmp    40b25d <ft_str_arr_join+0x6d>
  40b2c7:	48 8b 7d e8          	mov    -0x18(%rbp),%rdi
  40b2cb:	e8 70 f9 ff ff       	call   40ac40 <ft_strdup>
  40b2d0:	48 89 c2             	mov    %rax,%rdx
  40b2d3:	48 8b 45 d8          	mov    -0x28(%rbp),%rax
  40b2d7:	48 63 4d e4          	movslq -0x1c(%rbp),%rcx
  40b2db:	48 89 14 c8          	mov    %rdx,(%rax,%rcx,8)
  40b2df:	48 8b 45 d8          	mov    -0x28(%rbp),%rax
  40b2e3:	48 63 4d e4          	movslq -0x1c(%rbp),%rcx
  40b2e7:	48 83 3c c8 00       	cmpq   $0x0,(%rax,%rcx,8)
  40b2ec:	0f 85 16 00 00 00    	jne    40b308 <ft_str_arr_join+0x118>
  40b2f2:	48 8b 7d d8          	mov    -0x28(%rbp),%rdi
  40b2f6:	e8 05 fb ff ff       	call   40ae00 <ft_free_array>
  40b2fb:	48 c7 45 f8 00 00 00 	movq   $0x0,-0x8(%rbp)
  40b302:	00 
  40b303:	e9 1d 00 00 00       	jmp    40b325 <ft_str_arr_join+0x135>
  40b308:	48 8b 45 d8          	mov    -0x28(%rbp),%rax
  40b30c:	8b 4d e4             	mov    -0x1c(%rbp),%ecx
  40b30f:	83 c1 01             	add    $0x1,%ecx
  40b312:	48 63 c9             	movslq %ecx,%rcx
  40b315:	48 c7 04 c8 00 00 00 	movq   $0x0,(%rax,%rcx,8)
  40b31c:	00 
  40b31d:	48 8b 45 d8          	mov    -0x28(%rbp),%rax
  40b321:	48 89 45 f8          	mov    %rax,-0x8(%rbp)
  40b325:	48 8b 45 f8          	mov    -0x8(%rbp),%rax
  40b329:	48 83 c4 30          	add    $0x30,%rsp
  40b32d:	5d                   	pop    %rbp
  40b32e:	c3                   	ret    
  40b32f:	90                   	nop

000000000040b330 <count_words>:
  40b330:	55                   	push   %rbp
  40b331:	48 89 e5             	mov    %rsp,%rbp
  40b334:	40 88 f0             	mov    %sil,%al
  40b337:	48 89 7d f0          	mov    %rdi,-0x10(%rbp)
  40b33b:	88 45 ef             	mov    %al,-0x11(%rbp)
  40b33e:	c7 45 e8 00 00 00 00 	movl   $0x0,-0x18(%rbp)
  40b345:	48 8b 45 f0          	mov    -0x10(%rbp),%rax
  40b349:	80 38 00             	cmpb   $0x0,(%rax)
  40b34c:	0f 85 0c 00 00 00    	jne    40b35e <count_words+0x2e>
  40b352:	c7 45 fc 00 00 00 00 	movl   $0x0,-0x4(%rbp)
  40b359:	e9 aa 00 00 00       	jmp    40b408 <count_words+0xd8>
  40b35e:	e9 00 00 00 00       	jmp    40b363 <count_words+0x33>
  40b363:	48 8b 45 f0          	mov    -0x10(%rbp),%rax
  40b367:	80 38 00             	cmpb   $0x0,(%rax)
  40b36a:	0f 84 92 00 00 00    	je     40b402 <count_words+0xd2>
  40b370:	e9 00 00 00 00       	jmp    40b375 <count_words+0x45>
  40b375:	48 8b 45 f0          	mov    -0x10(%rbp),%rax
  40b379:	0f be 00             	movsbl (%rax),%eax
  40b37c:	0f be 4d ef          	movsbl -0x11(%rbp),%ecx
  40b380:	39 c8                	cmp    %ecx,%eax
  40b382:	0f 85 11 00 00 00    	jne    40b399 <count_words+0x69>
  40b388:	48 8b 45 f0          	mov    -0x10(%rbp),%rax
  40b38c:	48 83 c0 01          	add    $0x1,%rax
  40b390:	48 89 45 f0          	mov    %rax,-0x10(%rbp)
  40b394:	e9 dc ff ff ff       	jmp    40b375 <count_words+0x45>
  40b399:	48 8b 45 f0          	mov    -0x10(%rbp),%rax
  40b39d:	80 38 00             	cmpb   $0x0,(%rax)
  40b3a0:	0f 84 09 00 00 00    	je     40b3af <count_words+0x7f>
  40b3a6:	8b 45 e8             	mov    -0x18(%rbp),%eax
  40b3a9:	83 c0 01             	add    $0x1,%eax
  40b3ac:	89 45 e8             	mov    %eax,-0x18(%rbp)
  40b3af:	e9 00 00 00 00       	jmp    40b3b4 <count_words+0x84>
  40b3b4:	48 8b 45 f0          	mov    -0x10(%rbp),%rax
  40b3b8:	0f be 08             	movsbl (%rax),%ecx
  40b3bb:	0f be 55 ef          	movsbl -0x11(%rbp),%edx
  40b3bf:	31 c0                	xor    %eax,%eax
  40b3c1:	39 d1                	cmp    %edx,%ecx
  40b3c3:	88 45 e7             	mov    %al,-0x19(%rbp)
  40b3c6:	0f 84 10 00 00 00    	je     40b3dc <count_words+0xac>
  40b3cc:	48 8b 45 f0          	mov    -0x10(%rbp),%rax
  40b3d0:	0f be 00             	movsbl (%rax),%eax
  40b3d3:	83 f8 00             	cmp    $0x0,%eax
  40b3d6:	0f 95 c0             	setne  %al
  40b3d9:	88 45 e7             	mov    %al,-0x19(%rbp)
  40b3dc:	8a 45 e7             	mov    -0x19(%rbp),%al
  40b3df:	a8 01                	test   $0x1,%al
  40b3e1:	0f 85 05 00 00 00    	jne    40b3ec <count_words+0xbc>
  40b3e7:	e9 11 00 00 00       	jmp    40b3fd <count_words+0xcd>
  40b3ec:	48 8b 45 f0          	mov    -0x10(%rbp),%rax
  40b3f0:	48 83 c0 01          	add    $0x1,%rax
  40b3f4:	48 89 45 f0          	mov    %rax,-0x10(%rbp)
  40b3f8:	e9 b7 ff ff ff       	jmp    40b3b4 <count_words+0x84>
  40b3fd:	e9 61 ff ff ff       	jmp    40b363 <count_words+0x33>
  40b402:	8b 45 e8             	mov    -0x18(%rbp),%eax
  40b405:	89 45 fc             	mov    %eax,-0x4(%rbp)
  40b408:	8b 45 fc             	mov    -0x4(%rbp),%eax
  40b40b:	5d                   	pop    %rbp
  40b40c:	c3                   	ret    
  40b40d:	0f 1f 00             	nopl   (%rax)

000000000040b410 <count_word_len>:
  40b410:	55                   	push   %rbp
  40b411:	48 89 e5             	mov    %rsp,%rbp
  40b414:	40 88 f0             	mov    %sil,%al
  40b417:	48 89 7d f8          	mov    %rdi,-0x8(%rbp)
  40b41b:	88 45 f7             	mov    %al,-0x9(%rbp)
  40b41e:	c7 45 f0 00 00 00 00 	movl   $0x0,-0x10(%rbp)
  40b425:	48 8b 45 f8          	mov    -0x8(%rbp),%rax
  40b429:	0f be 00             	movsbl (%rax),%eax
  40b42c:	0f be 4d f7          	movsbl -0x9(%rbp),%ecx
  40b430:	39 c8                	cmp    %ecx,%eax
  40b432:	0f 85 11 00 00 00    	jne    40b449 <count_word_len+0x39>
  40b438:	48 8b 45 f8          	mov    -0x8(%rbp),%rax
  40b43c:	48 83 c0 01          	add    $0x1,%rax
  40b440:	48 89 45 f8          	mov    %rax,-0x8(%rbp)
  40b444:	e9 dc ff ff ff       	jmp    40b425 <count_word_len+0x15>
  40b449:	e9 00 00 00 00       	jmp    40b44e <count_word_len+0x3e>
  40b44e:	48 8b 45 f8          	mov    -0x8(%rbp),%rax
  40b452:	0f be 08             	movsbl (%rax),%ecx
  40b455:	0f be 55 f7          	movsbl -0x9(%rbp),%edx
  40b459:	31 c0                	xor    %eax,%eax
  40b45b:	39 d1                	cmp    %edx,%ecx
  40b45d:	88 45 ef             	mov    %al,-0x11(%rbp)
  40b460:	0f 84 10 00 00 00    	je     40b476 <count_word_len+0x66>
  40b466:	48 8b 45 f8          	mov    -0x8(%rbp),%rax
  40b46a:	0f be 00             	movsbl (%rax),%eax
  40b46d:	83 f8 00             	cmp    $0x0,%eax
  40b470:	0f 95 c0             	setne  %al
  40b473:	88 45 ef             	mov    %al,-0x11(%rbp)
  40b476:	8a 45 ef             	mov    -0x11(%rbp),%al
  40b479:	a8 01                	test   $0x1,%al
  40b47b:	0f 85 05 00 00 00    	jne    40b486 <count_word_len+0x76>
  40b481:	e9 1a 00 00 00       	jmp    40b4a0 <count_word_len+0x90>
  40b486:	48 8b 45 f8          	mov    -0x8(%rbp),%rax
  40b48a:	48 83 c0 01          	add    $0x1,%rax
  40b48e:	48 89 45 f8          	mov    %rax,-0x8(%rbp)
  40b492:	8b 45 f0             	mov    -0x10(%rbp),%eax
  40b495:	83 c0 01             	add    $0x1,%eax
  40b498:	89 45 f0             	mov    %eax,-0x10(%rbp)
  40b49b:	e9 ae ff ff ff       	jmp    40b44e <count_word_len+0x3e>
  40b4a0:	8b 45 f0             	mov    -0x10(%rbp),%eax
  40b4a3:	5d                   	pop    %rbp
  40b4a4:	c3                   	ret    
  40b4a5:	66 2e 0f 1f 84 00 00 	cs nopw 0x0(%rax,%rax,1)
  40b4ac:	00 00 00 
  40b4af:	90                   	nop

000000000040b4b0 <free_whole_array>:
  40b4b0:	55                   	push   %rbp
  40b4b1:	48 89 e5             	mov    %rsp,%rbp
  40b4b4:	48 83 ec 10          	sub    $0x10,%rsp
  40b4b8:	89 7d fc             	mov    %edi,-0x4(%rbp)
  40b4bb:	48 89 75 f0          	mov    %rsi,-0x10(%rbp)
  40b4bf:	83 7d fc 00          	cmpl   $0x0,-0x4(%rbp)
  40b4c3:	0f 8c 1f 00 00 00    	jl     40b4e8 <free_whole_array+0x38>
  40b4c9:	48 8b 45 f0          	mov    -0x10(%rbp),%rax
  40b4cd:	48 63 4d fc          	movslq -0x4(%rbp),%rcx
  40b4d1:	48 8b 3c c8          	mov    (%rax,%rcx,8),%rdi
  40b4d5:	e8 56 5b ff ff       	call   401030 <free@plt>
  40b4da:	8b 45 fc             	mov    -0x4(%rbp),%eax
  40b4dd:	83 c0 ff             	add    $0xffffffff,%eax
  40b4e0:	89 45 fc             	mov    %eax,-0x4(%rbp)
  40b4e3:	e9 d7 ff ff ff       	jmp    40b4bf <free_whole_array+0xf>
  40b4e8:	48 8b 7d f0          	mov    -0x10(%rbp),%rdi
  40b4ec:	e8 3f 5b ff ff       	call   401030 <free@plt>
  40b4f1:	31 c0                	xor    %eax,%eax
  40b4f3:	48 83 c4 10          	add    $0x10,%rsp
  40b4f7:	5d                   	pop    %rbp
  40b4f8:	c3                   	ret    
  40b4f9:	0f 1f 80 00 00 00 00 	nopl   0x0(%rax)

000000000040b500 <ft_split>:
  40b500:	55                   	push   %rbp
  40b501:	48 89 e5             	mov    %rsp,%rbp
  40b504:	48 83 ec 30          	sub    $0x30,%rsp
  40b508:	40 88 f0             	mov    %sil,%al
  40b50b:	48 89 7d f0          	mov    %rdi,-0x10(%rbp)
  40b50f:	88 45 ef             	mov    %al,-0x11(%rbp)
  40b512:	c7 45 e8 00 00 00 00 	movl   $0x0,-0x18(%rbp)
  40b519:	48 8b 7d f0          	mov    -0x10(%rbp),%rdi
  40b51d:	0f be 75 ef          	movsbl -0x11(%rbp),%esi
  40b521:	e8 0a fe ff ff       	call   40b330 <count_words>
  40b526:	83 c0 01             	add    $0x1,%eax
  40b529:	48 63 f8             	movslq %eax,%rdi
  40b52c:	48 c1 e7 03          	shl    $0x3,%rdi
  40b530:	e8 fb 5b ff ff       	call   401130 <malloc@plt>
  40b535:	48 89 45 e0          	mov    %rax,-0x20(%rbp)
  40b539:	48 83 7d e0 00       	cmpq   $0x0,-0x20(%rbp)
  40b53e:	0f 85 0d 00 00 00    	jne    40b551 <ft_split+0x51>
  40b544:	48 c7 45 f8 00 00 00 	movq   $0x0,-0x8(%rbp)
  40b54b:	00 
  40b54c:	e9 02 01 00 00       	jmp    40b653 <ft_split+0x153>
  40b551:	e9 00 00 00 00       	jmp    40b556 <ft_split+0x56>
  40b556:	48 8b 45 f0          	mov    -0x10(%rbp),%rax
  40b55a:	80 38 00             	cmpb   $0x0,(%rax)
  40b55d:	0f 84 d8 00 00 00    	je     40b63b <ft_split+0x13b>
  40b563:	e9 00 00 00 00       	jmp    40b568 <ft_split+0x68>
  40b568:	48 8b 45 f0          	mov    -0x10(%rbp),%rax
  40b56c:	0f be 00             	movsbl (%rax),%eax
  40b56f:	0f be 4d ef          	movsbl -0x11(%rbp),%ecx
  40b573:	39 c8                	cmp    %ecx,%eax
  40b575:	0f 85 11 00 00 00    	jne    40b58c <ft_split+0x8c>
  40b57b:	48 8b 45 f0          	mov    -0x10(%rbp),%rax
  40b57f:	48 83 c0 01          	add    $0x1,%rax
  40b583:	48 89 45 f0          	mov    %rax,-0x10(%rbp)
  40b587:	e9 dc ff ff ff       	jmp    40b568 <ft_split+0x68>
  40b58c:	48 8b 45 f0          	mov    -0x10(%rbp),%rax
  40b590:	0f be 00             	movsbl (%rax),%eax
  40b593:	83 f8 00             	cmp    $0x0,%eax
  40b596:	0f 84 9a 00 00 00    	je     40b636 <ft_split+0x136>
  40b59c:	48 8b 7d f0          	mov    -0x10(%rbp),%rdi
  40b5a0:	0f be 75 ef          	movsbl -0x11(%rbp),%esi
  40b5a4:	e8 67 fe ff ff       	call   40b410 <count_word_len>
  40b5a9:	83 f8 00             	cmp    $0x0,%eax
  40b5ac:	0f 8e 84 00 00 00    	jle    40b636 <ft_split+0x136>
  40b5b2:	48 8b 45 f0          	mov    -0x10(%rbp),%rax
  40b5b6:	48 89 45 d8          	mov    %rax,-0x28(%rbp)
  40b5ba:	48 8b 7d f0          	mov    -0x10(%rbp),%rdi
  40b5be:	0f be 75 ef          	movsbl -0x11(%rbp),%esi
  40b5c2:	e8 49 fe ff ff       	call   40b410 <count_word_len>
  40b5c7:	48 8b 7d d8          	mov    -0x28(%rbp),%rdi
  40b5cb:	48 63 d0             	movslq %eax,%rdx
  40b5ce:	31 f6                	xor    %esi,%esi
  40b5d0:	e8 ab f8 ff ff       	call   40ae80 <ft_substr>
  40b5d5:	48 89 c2             	mov    %rax,%rdx
  40b5d8:	48 8b 45 e0          	mov    -0x20(%rbp),%rax
  40b5dc:	48 63 4d e8          	movslq -0x18(%rbp),%rcx
  40b5e0:	48 89 14 c8          	mov    %rdx,(%rax,%rcx,8)
  40b5e4:	48 8b 45 e0          	mov    -0x20(%rbp),%rax
  40b5e8:	48 63 4d e8          	movslq -0x18(%rbp),%rcx
  40b5ec:	48 83 3c c8 00       	cmpq   $0x0,(%rax,%rcx,8)
  40b5f1:	0f 85 19 00 00 00    	jne    40b610 <ft_split+0x110>
  40b5f7:	8b 7d e8             	mov    -0x18(%rbp),%edi
  40b5fa:	48 8b 75 e0          	mov    -0x20(%rbp),%rsi
  40b5fe:	e8 ad fe ff ff       	call   40b4b0 <free_whole_array>
  40b603:	48 c7 45 f8 00 00 00 	movq   $0x0,-0x8(%rbp)
  40b60a:	00 
  40b60b:	e9 43 00 00 00       	jmp    40b653 <ft_split+0x153>
  40b610:	48 8b 7d f0          	mov    -0x10(%rbp),%rdi
  40b614:	0f be 75 ef          	movsbl -0x11(%rbp),%esi
  40b618:	e8 f3 fd ff ff       	call   40b410 <count_word_len>
  40b61d:	89 c1                	mov    %eax,%ecx
  40b61f:	48 8b 45 f0          	mov    -0x10(%rbp),%rax
  40b623:	48 63 c9             	movslq %ecx,%rcx
  40b626:	48 01 c8             	add    %rcx,%rax
  40b629:	48 89 45 f0          	mov    %rax,-0x10(%rbp)
  40b62d:	8b 45 e8             	mov    -0x18(%rbp),%eax
  40b630:	83 c0 01             	add    $0x1,%eax
  40b633:	89 45 e8             	mov    %eax,-0x18(%rbp)
  40b636:	e9 1b ff ff ff       	jmp    40b556 <ft_split+0x56>
  40b63b:	48 8b 45 e0          	mov    -0x20(%rbp),%rax
  40b63f:	48 63 4d e8          	movslq -0x18(%rbp),%rcx
  40b643:	48 c7 04 c8 00 00 00 	movq   $0x0,(%rax,%rcx,8)
  40b64a:	00 
  40b64b:	48 8b 45 e0          	mov    -0x20(%rbp),%rax
  40b64f:	48 89 45 f8          	mov    %rax,-0x8(%rbp)
  40b653:	48 8b 45 f8          	mov    -0x8(%rbp),%rax
  40b657:	48 83 c4 30          	add    $0x30,%rsp
  40b65b:	5d                   	pop    %rbp
  40b65c:	c3                   	ret    
  40b65d:	0f 1f 00             	nopl   (%rax)

000000000040b660 <count_len>:
  40b660:	55                   	push   %rbp
  40b661:	48 89 e5             	mov    %rsp,%rbp
  40b664:	89 7d f8             	mov    %edi,-0x8(%rbp)
  40b667:	c7 45 f4 00 00 00 00 	movl   $0x0,-0xc(%rbp)
  40b66e:	48 63 45 f8          	movslq -0x8(%rbp),%rax
  40b672:	48 3d 00 00 00 80    	cmp    $0xffffffff80000000,%rax
  40b678:	0f 85 10 00 00 00    	jne    40b68e <count_len+0x2e>
  40b67e:	8b 45 f4             	mov    -0xc(%rbp),%eax
  40b681:	83 c0 02             	add    $0x2,%eax
  40b684:	89 45 f4             	mov    %eax,-0xc(%rbp)
  40b687:	c7 45 f8 68 cc cc 0c 	movl   $0xccccc68,-0x8(%rbp)
  40b68e:	83 7d f8 00          	cmpl   $0x0,-0x8(%rbp)
  40b692:	0f 8d 11 00 00 00    	jge    40b6a9 <count_len+0x49>
  40b698:	8b 45 f4             	mov    -0xc(%rbp),%eax
  40b69b:	83 c0 01             	add    $0x1,%eax
  40b69e:	89 45 f4             	mov    %eax,-0xc(%rbp)
  40b6a1:	31 c0                	xor    %eax,%eax
  40b6a3:	2b 45 f8             	sub    -0x8(%rbp),%eax
  40b6a6:	89 45 f8             	mov    %eax,-0x8(%rbp)
  40b6a9:	83 7d f8 00          	cmpl   $0x0,-0x8(%rbp)
  40b6ad:	0f 85 0c 00 00 00    	jne    40b6bf <count_len+0x5f>
  40b6b3:	c7 45 fc 01 00 00 00 	movl   $0x1,-0x4(%rbp)
  40b6ba:	e9 44 00 00 00       	jmp    40b703 <count_len+0xa3>
  40b6bf:	e9 00 00 00 00       	jmp    40b6c4 <count_len+0x64>
  40b6c4:	83 7d f8 09          	cmpl   $0x9,-0x8(%rbp)
  40b6c8:	0f 8e 1c 00 00 00    	jle    40b6ea <count_len+0x8a>
  40b6ce:	8b 45 f4             	mov    -0xc(%rbp),%eax
  40b6d1:	83 c0 01             	add    $0x1,%eax
  40b6d4:	89 45 f4             	mov    %eax,-0xc(%rbp)
  40b6d7:	8b 45 f8             	mov    -0x8(%rbp),%eax
  40b6da:	b9 0a 00 00 00       	mov    $0xa,%ecx
  40b6df:	99                   	cltd   
  40b6e0:	f7 f9                	idiv   %ecx
  40b6e2:	89 45 f8             	mov    %eax,-0x8(%rbp)
  40b6e5:	e9 da ff ff ff       	jmp    40b6c4 <count_len+0x64>
  40b6ea:	83 7d f8 09          	cmpl   $0x9,-0x8(%rbp)
  40b6ee:	0f 8f 09 00 00 00    	jg     40b6fd <count_len+0x9d>
  40b6f4:	8b 45 f4             	mov    -0xc(%rbp),%eax
  40b6f7:	83 c0 01             	add    $0x1,%eax
  40b6fa:	89 45 f4             	mov    %eax,-0xc(%rbp)
  40b6fd:	8b 45 f4             	mov    -0xc(%rbp),%eax
  40b700:	89 45 fc             	mov    %eax,-0x4(%rbp)
  40b703:	8b 45 fc             	mov    -0x4(%rbp),%eax
  40b706:	5d                   	pop    %rbp
  40b707:	c3                   	ret    
  40b708:	0f 1f 84 00 00 00 00 	nopl   0x0(%rax,%rax,1)
  40b70f:	00 

000000000040b710 <ft_itoa>:
  40b710:	55                   	push   %rbp
  40b711:	48 89 e5             	mov    %rsp,%rbp
  40b714:	48 83 ec 20          	sub    $0x20,%rsp
  40b718:	89 7d f4             	mov    %edi,-0xc(%rbp)
  40b71b:	8b 7d f4             	mov    -0xc(%rbp),%edi
  40b71e:	e8 3d ff ff ff       	call   40b660 <count_len>
  40b723:	89 45 f0             	mov    %eax,-0x10(%rbp)
  40b726:	48 63 45 f4          	movslq -0xc(%rbp),%rax
  40b72a:	48 89 45 e0          	mov    %rax,-0x20(%rbp)
  40b72e:	8b 45 f0             	mov    -0x10(%rbp),%eax
  40b731:	83 c0 01             	add    $0x1,%eax
  40b734:	48 63 f8             	movslq %eax,%rdi
  40b737:	48 c1 e7 00          	shl    $0x0,%rdi
  40b73b:	e8 f0 59 ff ff       	call   401130 <malloc@plt>
  40b740:	48 89 45 e8          	mov    %rax,-0x18(%rbp)
  40b744:	48 83 7d e8 00       	cmpq   $0x0,-0x18(%rbp)
  40b749:	0f 85 0d 00 00 00    	jne    40b75c <ft_itoa+0x4c>
  40b74f:	48 c7 45 f8 00 00 00 	movq   $0x0,-0x8(%rbp)
  40b756:	00 
  40b757:	e9 9b 00 00 00       	jmp    40b7f7 <ft_itoa+0xe7>
  40b75c:	48 8b 45 e8          	mov    -0x18(%rbp),%rax
  40b760:	48 63 4d f0          	movslq -0x10(%rbp),%rcx
  40b764:	c6 04 08 00          	movb   $0x0,(%rax,%rcx,1)
  40b768:	8b 45 f0             	mov    -0x10(%rbp),%eax
  40b76b:	83 c0 ff             	add    $0xffffffff,%eax
  40b76e:	89 45 f0             	mov    %eax,-0x10(%rbp)
  40b771:	48 83 7d e0 00       	cmpq   $0x0,-0x20(%rbp)
  40b776:	0f 8d 11 00 00 00    	jge    40b78d <ft_itoa+0x7d>
  40b77c:	48 8b 45 e8          	mov    -0x18(%rbp),%rax
  40b780:	c6 00 2d             	movb   $0x2d,(%rax)
  40b783:	31 c0                	xor    %eax,%eax
  40b785:	48 2b 45 e0          	sub    -0x20(%rbp),%rax
  40b789:	48 89 45 e0          	mov    %rax,-0x20(%rbp)
  40b78d:	e9 00 00 00 00       	jmp    40b792 <ft_itoa+0x82>
  40b792:	48 83 7d e0 09       	cmpq   $0x9,-0x20(%rbp)
  40b797:	0f 8e 3d 00 00 00    	jle    40b7da <ft_itoa+0xca>
  40b79d:	48 8b 45 e0          	mov    -0x20(%rbp),%rax
  40b7a1:	b9 0a 00 00 00       	mov    $0xa,%ecx
  40b7a6:	48 99                	cqto   
  40b7a8:	48 f7 f9             	idiv   %rcx
  40b7ab:	48 83 c2 30          	add    $0x30,%rdx
  40b7af:	48 8b 45 e8          	mov    -0x18(%rbp),%rax
  40b7b3:	48 63 4d f0          	movslq -0x10(%rbp),%rcx
  40b7b7:	88 14 08             	mov    %dl,(%rax,%rcx,1)
  40b7ba:	8b 45 f0             	mov    -0x10(%rbp),%eax
  40b7bd:	83 c0 ff             	add    $0xffffffff,%eax
  40b7c0:	89 45 f0             	mov    %eax,-0x10(%rbp)
  40b7c3:	48 8b 45 e0          	mov    -0x20(%rbp),%rax
  40b7c7:	b9 0a 00 00 00       	mov    $0xa,%ecx
  40b7cc:	48 99                	cqto   
  40b7ce:	48 f7 f9             	idiv   %rcx
  40b7d1:	48 89 45 e0          	mov    %rax,-0x20(%rbp)
  40b7d5:	e9 b8 ff ff ff       	jmp    40b792 <ft_itoa+0x82>
  40b7da:	48 8b 45 e0          	mov    -0x20(%rbp),%rax
  40b7de:	48 83 c0 30          	add    $0x30,%rax
  40b7e2:	88 c2                	mov    %al,%dl
  40b7e4:	48 8b 45 e8          	mov    -0x18(%rbp),%rax
  40b7e8:	48 63 4d f0          	movslq -0x10(%rbp),%rcx
  40b7ec:	88 14 08             	mov    %dl,(%rax,%rcx,1)
  40b7ef:	48 8b 45 e8          	mov    -0x18(%rbp),%rax
  40b7f3:	48 89 45 f8          	mov    %rax,-0x8(%rbp)
  40b7f7:	48 8b 45 f8          	mov    -0x8(%rbp),%rax
  40b7fb:	48 83 c4 20          	add    $0x20,%rsp
  40b7ff:	5d                   	pop    %rbp
  40b800:	c3                   	ret    
  40b801:	66 2e 0f 1f 84 00 00 	cs nopw 0x0(%rax,%rax,1)
  40b808:	00 00 00 
  40b80b:	0f 1f 44 00 00       	nopl   0x0(%rax,%rax,1)

000000000040b810 <ft_putstr_fd>:
  40b810:	55                   	push   %rbp
  40b811:	48 89 e5             	mov    %rsp,%rbp
  40b814:	48 83 ec 10          	sub    $0x10,%rsp
  40b818:	48 89 7d f8          	mov    %rdi,-0x8(%rbp)
  40b81c:	89 75 f4             	mov    %esi,-0xc(%rbp)
  40b81f:	48 8b 45 f8          	mov    -0x8(%rbp),%rax
  40b823:	80 38 00             	cmpb   $0x0,(%rax)
  40b826:	0f 84 22 00 00 00    	je     40b84e <ft_putstr_fd+0x3e>
  40b82c:	8b 7d f4             	mov    -0xc(%rbp),%edi
  40b82f:	48 8b 75 f8          	mov    -0x8(%rbp),%rsi
  40b833:	ba 01 00 00 00       	mov    $0x1,%edx
  40b838:	e8 23 58 ff ff       	call   401060 <write@plt>
  40b83d:	48 8b 45 f8          	mov    -0x8(%rbp),%rax
  40b841:	48 83 c0 01          	add    $0x1,%rax
  40b845:	48 89 45 f8          	mov    %rax,-0x8(%rbp)
  40b849:	e9 d1 ff ff ff       	jmp    40b81f <ft_putstr_fd+0xf>
  40b84e:	48 83 c4 10          	add    $0x10,%rsp
  40b852:	5d                   	pop    %rbp
  40b853:	c3                   	ret    
  40b854:	66 2e 0f 1f 84 00 00 	cs nopw 0x0(%rax,%rax,1)
  40b85b:	00 00 00 
  40b85e:	66 90                	xchg   %ax,%ax

000000000040b860 <ft_bzero>:
  40b860:	55                   	push   %rbp
  40b861:	48 89 e5             	mov    %rsp,%rbp
  40b864:	48 89 7d f8          	mov    %rdi,-0x8(%rbp)
  40b868:	48 89 75 f0          	mov    %rsi,-0x10(%rbp)
  40b86c:	48 8b 45 f8          	mov    -0x8(%rbp),%rax
  40b870:	48 89 45 e8          	mov    %rax,-0x18(%rbp)
  40b874:	48 83 7d f0 00       	cmpq   $0x0,-0x10(%rbp)
  40b879:	0f 86 24 00 00 00    	jbe    40b8a3 <ft_bzero+0x43>
  40b87f:	48 8b 45 e8          	mov    -0x18(%rbp),%rax
  40b883:	c6 00 00             	movb   $0x0,(%rax)
  40b886:	48 8b 45 e8          	mov    -0x18(%rbp),%rax
  40b88a:	48 83 c0 01          	add    $0x1,%rax
  40b88e:	48 89 45 e8          	mov    %rax,-0x18(%rbp)
  40b892:	48 8b 45 f0          	mov    -0x10(%rbp),%rax
  40b896:	48 83 c0 ff          	add    $0xffffffffffffffff,%rax
  40b89a:	48 89 45 f0          	mov    %rax,-0x10(%rbp)
  40b89e:	e9 d1 ff ff ff       	jmp    40b874 <ft_bzero+0x14>
  40b8a3:	5d                   	pop    %rbp
  40b8a4:	c3                   	ret    

Disassembly of section .fini:

000000000040b8a8 <_fini>:
  40b8a8:	f3 0f 1e fa          	endbr64 
  40b8ac:	48 83 ec 08          	sub    $0x8,%rsp
  40b8b0:	48 83 c4 08          	add    $0x8,%rsp
  40b8b4:	c3                   	ret    
